
retrosoc_fw.elf:     file format elf32-littleriscv


Disassembly of section .text:

30000000 <start>:
30000000:	00000093          	li	ra,0
30000004:	00000193          	li	gp,0
30000008:	00000213          	li	tp,0
3000000c:	00000293          	li	t0,0
30000010:	00000313          	li	t1,0
30000014:	00000393          	li	t2,0
30000018:	00000413          	li	s0,0
3000001c:	00000493          	li	s1,0
30000020:	00000513          	li	a0,0
30000024:	00000593          	li	a1,0
30000028:	00000613          	li	a2,0
3000002c:	00000693          	li	a3,0
30000030:	00000713          	li	a4,0
30000034:	00000793          	li	a5,0
30000038:	00000813          	li	a6,0
3000003c:	00000893          	li	a7,0
30000040:	00000913          	li	s2,0
30000044:	00000993          	li	s3,0
30000048:	00000a13          	li	s4,0
3000004c:	00000a93          	li	s5,0
30000050:	00000b13          	li	s6,0
30000054:	00000b93          	li	s7,0
30000058:	00000c13          	li	s8,0
3000005c:	00000c93          	li	s9,0
30000060:	00000d13          	li	s10,0
30000064:	00000d93          	li	s11,0
30000068:	00000e13          	li	t3,0
3000006c:	00000e93          	li	t4,0
30000070:	00000f13          	li	t5,0
30000074:	00000f93          	li	t6,0
30000078:	00000513          	li	a0,0

3000007c <setmemloop>:
3000007c:	00a52023          	sw	a0,0(a0)
30000080:	00450513          	addi	a0,a0,4
30000084:	fe254ce3          	blt	a0,sp,3000007c <setmemloop>
30000088:	0001a517          	auipc	a0,0x1a
3000008c:	ca050513          	addi	a0,a0,-864 # 30019d28 <_etext>
30000090:	d4000597          	auipc	a1,0xd4000
30000094:	f7058593          	addi	a1,a1,-144 # 4000000 <_ebss>
30000098:	d4000617          	auipc	a2,0xd4000
3000009c:	f6860613          	addi	a2,a2,-152 # 4000000 <_ebss>
300000a0:	00c5dc63          	bge	a1,a2,300000b8 <end_init_data>

300000a4 <loop_init_data>:
300000a4:	00052683          	lw	a3,0(a0)
300000a8:	00d5a023          	sw	a3,0(a1)
300000ac:	00450513          	addi	a0,a0,4
300000b0:	00458593          	addi	a1,a1,4
300000b4:	fec5c8e3          	blt	a1,a2,300000a4 <loop_init_data>

300000b8 <end_init_data>:
300000b8:	d4000517          	auipc	a0,0xd4000
300000bc:	f4850513          	addi	a0,a0,-184 # 4000000 <_ebss>
300000c0:	d4000597          	auipc	a1,0xd4000
300000c4:	f4058593          	addi	a1,a1,-192 # 4000000 <_ebss>
300000c8:	00b55863          	bge	a0,a1,300000d8 <end_init_bss>

300000cc <loop_init_bss>:
300000cc:	00052023          	sw	zero,0(a0)
300000d0:	00450513          	addi	a0,a0,4
300000d4:	feb54ce3          	blt	a0,a1,300000cc <loop_init_bss>

300000d8 <end_init_bss>:
300000d8:	580080ef          	jal	30008658 <main>

300000dc <loop>:
300000dc:	0000006f          	j	300000dc <loop>

300000e0 <flashio_worker_begin>:
300000e0:	020002b7          	lui	t0,0x2000
300000e4:	12000313          	li	t1,288
300000e8:	00629023          	sh	t1,0(t0) # 2000000 <_ebss-0x2000000>
300000ec:	000281a3          	sb	zero,3(t0)
300000f0:	02060863          	beqz	a2,30000120 <flashio_worker_L1>
300000f4:	00800f13          	li	t5,8
300000f8:	0ff67393          	zext.b	t2,a2

300000fc <flashio_worker_L4>:
300000fc:	0073de93          	srli	t4,t2,0x7
30000100:	01d28023          	sb	t4,0(t0)
30000104:	010eee93          	ori	t4,t4,16
30000108:	01d28023          	sb	t4,0(t0)
3000010c:	00139393          	slli	t2,t2,0x1
30000110:	0ff3f393          	zext.b	t2,t2
30000114:	ffff0f13          	addi	t5,t5,-1
30000118:	fe0f12e3          	bnez	t5,300000fc <flashio_worker_L4>
3000011c:	00628023          	sb	t1,0(t0)

30000120 <flashio_worker_L1>:
30000120:	04058663          	beqz	a1,3000016c <flashio_worker_L3>
30000124:	00800f13          	li	t5,8
30000128:	00054383          	lbu	t2,0(a0)

3000012c <flashio_worker_L2>:
3000012c:	0073de93          	srli	t4,t2,0x7
30000130:	01d28023          	sb	t4,0(t0)
30000134:	010eee93          	ori	t4,t4,16
30000138:	01d28023          	sb	t4,0(t0)
3000013c:	0002ce83          	lbu	t4,0(t0)
30000140:	002efe93          	andi	t4,t4,2
30000144:	001ede93          	srli	t4,t4,0x1
30000148:	00139393          	slli	t2,t2,0x1
3000014c:	01d3e3b3          	or	t2,t2,t4
30000150:	0ff3f393          	zext.b	t2,t2
30000154:	ffff0f13          	addi	t5,t5,-1
30000158:	fc0f1ae3          	bnez	t5,3000012c <flashio_worker_L2>
3000015c:	00750023          	sb	t2,0(a0)
30000160:	00150513          	addi	a0,a0,1
30000164:	fff58593          	addi	a1,a1,-1
30000168:	fb9ff06f          	j	30000120 <flashio_worker_L1>

3000016c <flashio_worker_L3>:
3000016c:	08000313          	li	t1,128
30000170:	006281a3          	sb	t1,3(t0)
30000174:	00008067          	ret

30000178 <putch>:
30000178:	fe010113          	addi	sp,sp,-32
3000017c:	00112e23          	sw	ra,28(sp)
30000180:	00812c23          	sw	s0,24(sp)
30000184:	02010413          	addi	s0,sp,32
30000188:	00050793          	mv	a5,a0
3000018c:	fef407a3          	sb	a5,-17(s0)
30000190:	030007b7          	lui	a5,0x3000
30000194:	01478793          	addi	a5,a5,20 # 3000014 <_ebss-0xffffec>
30000198:	fef44703          	lbu	a4,-17(s0)
3000019c:	00e7a023          	sw	a4,0(a5)
300001a0:	00000013          	nop
300001a4:	01c12083          	lw	ra,28(sp)
300001a8:	01812403          	lw	s0,24(sp)
300001ac:	02010113          	addi	sp,sp,32
300001b0:	00008067          	ret

300001b4 <strlen>:
300001b4:	fd010113          	addi	sp,sp,-48
300001b8:	02112623          	sw	ra,44(sp)
300001bc:	02812423          	sw	s0,40(sp)
300001c0:	03010413          	addi	s0,sp,48
300001c4:	fca42e23          	sw	a0,-36(s0)
300001c8:	fdc42783          	lw	a5,-36(s0)
300001cc:	fef42623          	sw	a5,-20(s0)
300001d0:	0100006f          	j	300001e0 <strlen+0x2c>
300001d4:	fec42783          	lw	a5,-20(s0)
300001d8:	00178793          	addi	a5,a5,1
300001dc:	fef42623          	sw	a5,-20(s0)
300001e0:	fec42783          	lw	a5,-20(s0)
300001e4:	0007c783          	lbu	a5,0(a5)
300001e8:	fe0796e3          	bnez	a5,300001d4 <strlen+0x20>
300001ec:	fec42703          	lw	a4,-20(s0)
300001f0:	fdc42783          	lw	a5,-36(s0)
300001f4:	40f707b3          	sub	a5,a4,a5
300001f8:	00078513          	mv	a0,a5
300001fc:	02c12083          	lw	ra,44(sp)
30000200:	02812403          	lw	s0,40(sp)
30000204:	03010113          	addi	sp,sp,48
30000208:	00008067          	ret

3000020c <strcpy>:
3000020c:	fd010113          	addi	sp,sp,-48
30000210:	02112623          	sw	ra,44(sp)
30000214:	02812423          	sw	s0,40(sp)
30000218:	03010413          	addi	s0,sp,48
3000021c:	fca42e23          	sw	a0,-36(s0)
30000220:	fcb42c23          	sw	a1,-40(s0)
30000224:	fdc42783          	lw	a5,-36(s0)
30000228:	fef42623          	sw	a5,-20(s0)
3000022c:	00000013          	nop
30000230:	fd842703          	lw	a4,-40(s0)
30000234:	00170793          	addi	a5,a4,1
30000238:	fcf42c23          	sw	a5,-40(s0)
3000023c:	fec42783          	lw	a5,-20(s0)
30000240:	00178693          	addi	a3,a5,1
30000244:	fed42623          	sw	a3,-20(s0)
30000248:	00074703          	lbu	a4,0(a4)
3000024c:	00e78023          	sb	a4,0(a5)
30000250:	0007c783          	lbu	a5,0(a5)
30000254:	fc079ee3          	bnez	a5,30000230 <strcpy+0x24>
30000258:	fdc42783          	lw	a5,-36(s0)
3000025c:	00078513          	mv	a0,a5
30000260:	02c12083          	lw	ra,44(sp)
30000264:	02812403          	lw	s0,40(sp)
30000268:	03010113          	addi	sp,sp,48
3000026c:	00008067          	ret

30000270 <strncpy>:
30000270:	fd010113          	addi	sp,sp,-48
30000274:	02112623          	sw	ra,44(sp)
30000278:	02812423          	sw	s0,40(sp)
3000027c:	03010413          	addi	s0,sp,48
30000280:	fca42e23          	sw	a0,-36(s0)
30000284:	fcb42c23          	sw	a1,-40(s0)
30000288:	fcc42a23          	sw	a2,-44(s0)
3000028c:	fdc42783          	lw	a5,-36(s0)
30000290:	fef42623          	sw	a5,-20(s0)
30000294:	00000013          	nop
30000298:	fd442783          	lw	a5,-44(s0)
3000029c:	fff78713          	addi	a4,a5,-1
300002a0:	fce42a23          	sw	a4,-44(s0)
300002a4:	04078063          	beqz	a5,300002e4 <strncpy+0x74>
300002a8:	fd842703          	lw	a4,-40(s0)
300002ac:	00170793          	addi	a5,a4,1
300002b0:	fcf42c23          	sw	a5,-40(s0)
300002b4:	fec42783          	lw	a5,-20(s0)
300002b8:	00178693          	addi	a3,a5,1
300002bc:	fed42623          	sw	a3,-20(s0)
300002c0:	00074703          	lbu	a4,0(a4)
300002c4:	00e78023          	sb	a4,0(a5)
300002c8:	0007c783          	lbu	a5,0(a5)
300002cc:	fc0796e3          	bnez	a5,30000298 <strncpy+0x28>
300002d0:	0140006f          	j	300002e4 <strncpy+0x74>
300002d4:	fec42783          	lw	a5,-20(s0)
300002d8:	00178713          	addi	a4,a5,1
300002dc:	fee42623          	sw	a4,-20(s0)
300002e0:	00078023          	sb	zero,0(a5)
300002e4:	fd442783          	lw	a5,-44(s0)
300002e8:	fff78713          	addi	a4,a5,-1
300002ec:	fce42a23          	sw	a4,-44(s0)
300002f0:	fe0792e3          	bnez	a5,300002d4 <strncpy+0x64>
300002f4:	fdc42783          	lw	a5,-36(s0)
300002f8:	00078513          	mv	a0,a5
300002fc:	02c12083          	lw	ra,44(sp)
30000300:	02812403          	lw	s0,40(sp)
30000304:	03010113          	addi	sp,sp,48
30000308:	00008067          	ret

3000030c <strcat>:
3000030c:	fd010113          	addi	sp,sp,-48
30000310:	02112623          	sw	ra,44(sp)
30000314:	02812423          	sw	s0,40(sp)
30000318:	03010413          	addi	s0,sp,48
3000031c:	fca42e23          	sw	a0,-36(s0)
30000320:	fcb42c23          	sw	a1,-40(s0)
30000324:	fdc42783          	lw	a5,-36(s0)
30000328:	fef42623          	sw	a5,-20(s0)
3000032c:	00000013          	nop
30000330:	fec42783          	lw	a5,-20(s0)
30000334:	00178713          	addi	a4,a5,1
30000338:	fee42623          	sw	a4,-20(s0)
3000033c:	0007c783          	lbu	a5,0(a5)
30000340:	fe0798e3          	bnez	a5,30000330 <strcat+0x24>
30000344:	fec42783          	lw	a5,-20(s0)
30000348:	fff78793          	addi	a5,a5,-1
3000034c:	fef42623          	sw	a5,-20(s0)
30000350:	00000013          	nop
30000354:	fd842703          	lw	a4,-40(s0)
30000358:	00170793          	addi	a5,a4,1
3000035c:	fcf42c23          	sw	a5,-40(s0)
30000360:	fec42783          	lw	a5,-20(s0)
30000364:	00178693          	addi	a3,a5,1
30000368:	fed42623          	sw	a3,-20(s0)
3000036c:	00074703          	lbu	a4,0(a4)
30000370:	00e78023          	sb	a4,0(a5)
30000374:	0007c783          	lbu	a5,0(a5)
30000378:	fc079ee3          	bnez	a5,30000354 <strcat+0x48>
3000037c:	fdc42783          	lw	a5,-36(s0)
30000380:	00078513          	mv	a0,a5
30000384:	02c12083          	lw	ra,44(sp)
30000388:	02812403          	lw	s0,40(sp)
3000038c:	03010113          	addi	sp,sp,48
30000390:	00008067          	ret

30000394 <strcmp>:
30000394:	fd010113          	addi	sp,sp,-48
30000398:	02112623          	sw	ra,44(sp)
3000039c:	02812423          	sw	s0,40(sp)
300003a0:	03010413          	addi	s0,sp,48
300003a4:	fca42e23          	sw	a0,-36(s0)
300003a8:	fcb42c23          	sw	a1,-40(s0)
300003ac:	fdc42783          	lw	a5,-36(s0)
300003b0:	00178713          	addi	a4,a5,1
300003b4:	fce42e23          	sw	a4,-36(s0)
300003b8:	0007c783          	lbu	a5,0(a5)
300003bc:	fef407a3          	sb	a5,-17(s0)
300003c0:	fd842783          	lw	a5,-40(s0)
300003c4:	00178713          	addi	a4,a5,1
300003c8:	fce42c23          	sw	a4,-40(s0)
300003cc:	0007c783          	lbu	a5,0(a5)
300003d0:	fef40723          	sb	a5,-18(s0)
300003d4:	fef44783          	lbu	a5,-17(s0)
300003d8:	00078863          	beqz	a5,300003e8 <strcmp+0x54>
300003dc:	fef44703          	lbu	a4,-17(s0)
300003e0:	fee44783          	lbu	a5,-18(s0)
300003e4:	fcf704e3          	beq	a4,a5,300003ac <strcmp+0x18>
300003e8:	fef44703          	lbu	a4,-17(s0)
300003ec:	fee44783          	lbu	a5,-18(s0)
300003f0:	40f707b3          	sub	a5,a4,a5
300003f4:	00078513          	mv	a0,a5
300003f8:	02c12083          	lw	ra,44(sp)
300003fc:	02812403          	lw	s0,40(sp)
30000400:	03010113          	addi	sp,sp,48
30000404:	00008067          	ret

30000408 <strncmp>:
30000408:	fd010113          	addi	sp,sp,-48
3000040c:	02112623          	sw	ra,44(sp)
30000410:	02812423          	sw	s0,40(sp)
30000414:	03010413          	addi	s0,sp,48
30000418:	fca42e23          	sw	a0,-36(s0)
3000041c:	fcb42c23          	sw	a1,-40(s0)
30000420:	fcc42a23          	sw	a2,-44(s0)
30000424:	fdc42783          	lw	a5,-36(s0)
30000428:	00178713          	addi	a4,a5,1
3000042c:	fce42e23          	sw	a4,-36(s0)
30000430:	0007c783          	lbu	a5,0(a5)
30000434:	fef407a3          	sb	a5,-17(s0)
30000438:	fd842783          	lw	a5,-40(s0)
3000043c:	00178713          	addi	a4,a5,1
30000440:	fce42c23          	sw	a4,-40(s0)
30000444:	0007c783          	lbu	a5,0(a5)
30000448:	fef40723          	sb	a5,-18(s0)
3000044c:	fd442783          	lw	a5,-44(s0)
30000450:	fff78713          	addi	a4,a5,-1
30000454:	fce42a23          	sw	a4,-44(s0)
30000458:	00078c63          	beqz	a5,30000470 <strncmp+0x68>
3000045c:	fef44783          	lbu	a5,-17(s0)
30000460:	00078863          	beqz	a5,30000470 <strncmp+0x68>
30000464:	fef44703          	lbu	a4,-17(s0)
30000468:	fee44783          	lbu	a5,-18(s0)
3000046c:	faf70ce3          	beq	a4,a5,30000424 <strncmp+0x1c>
30000470:	fd442783          	lw	a5,-44(s0)
30000474:	00079663          	bnez	a5,30000480 <strncmp+0x78>
30000478:	00000793          	li	a5,0
3000047c:	0100006f          	j	3000048c <strncmp+0x84>
30000480:	fef44703          	lbu	a4,-17(s0)
30000484:	fee44783          	lbu	a5,-18(s0)
30000488:	40f707b3          	sub	a5,a4,a5
3000048c:	00078513          	mv	a0,a5
30000490:	02c12083          	lw	ra,44(sp)
30000494:	02812403          	lw	s0,40(sp)
30000498:	03010113          	addi	sp,sp,48
3000049c:	00008067          	ret

300004a0 <memset>:
300004a0:	fd010113          	addi	sp,sp,-48
300004a4:	02112623          	sw	ra,44(sp)
300004a8:	02812423          	sw	s0,40(sp)
300004ac:	03010413          	addi	s0,sp,48
300004b0:	fca42e23          	sw	a0,-36(s0)
300004b4:	fcb42c23          	sw	a1,-40(s0)
300004b8:	fcc42a23          	sw	a2,-44(s0)
300004bc:	fdc42783          	lw	a5,-36(s0)
300004c0:	fef42423          	sw	a5,-24(s0)
300004c4:	fe042623          	sw	zero,-20(s0)
300004c8:	0280006f          	j	300004f0 <memset+0x50>
300004cc:	fec42783          	lw	a5,-20(s0)
300004d0:	fe842703          	lw	a4,-24(s0)
300004d4:	00f707b3          	add	a5,a4,a5
300004d8:	fd842703          	lw	a4,-40(s0)
300004dc:	0ff77713          	zext.b	a4,a4
300004e0:	00e78023          	sb	a4,0(a5)
300004e4:	fec42783          	lw	a5,-20(s0)
300004e8:	00178793          	addi	a5,a5,1
300004ec:	fef42623          	sw	a5,-20(s0)
300004f0:	fec42783          	lw	a5,-20(s0)
300004f4:	fd442703          	lw	a4,-44(s0)
300004f8:	fce7eae3          	bltu	a5,a4,300004cc <memset+0x2c>
300004fc:	fdc42783          	lw	a5,-36(s0)
30000500:	00078513          	mv	a0,a5
30000504:	02c12083          	lw	ra,44(sp)
30000508:	02812403          	lw	s0,40(sp)
3000050c:	03010113          	addi	sp,sp,48
30000510:	00008067          	ret

30000514 <memmove>:
30000514:	fd010113          	addi	sp,sp,-48
30000518:	02112623          	sw	ra,44(sp)
3000051c:	02812423          	sw	s0,40(sp)
30000520:	03010413          	addi	s0,sp,48
30000524:	fca42e23          	sw	a0,-36(s0)
30000528:	fcb42c23          	sw	a1,-40(s0)
3000052c:	fcc42a23          	sw	a2,-44(s0)
30000530:	fd842783          	lw	a5,-40(s0)
30000534:	fef42623          	sw	a5,-20(s0)
30000538:	fdc42783          	lw	a5,-36(s0)
3000053c:	fef42423          	sw	a5,-24(s0)
30000540:	fec42703          	lw	a4,-20(s0)
30000544:	fe842783          	lw	a5,-24(s0)
30000548:	08f77c63          	bgeu	a4,a5,300005e0 <memmove+0xcc>
3000054c:	fec42703          	lw	a4,-20(s0)
30000550:	fd442783          	lw	a5,-44(s0)
30000554:	00f707b3          	add	a5,a4,a5
30000558:	fe842703          	lw	a4,-24(s0)
3000055c:	08f77263          	bgeu	a4,a5,300005e0 <memmove+0xcc>
30000560:	fec42703          	lw	a4,-20(s0)
30000564:	fd442783          	lw	a5,-44(s0)
30000568:	00f707b3          	add	a5,a4,a5
3000056c:	fef42623          	sw	a5,-20(s0)
30000570:	fe842703          	lw	a4,-24(s0)
30000574:	fd442783          	lw	a5,-44(s0)
30000578:	00f707b3          	add	a5,a4,a5
3000057c:	fef42423          	sw	a5,-24(s0)
30000580:	02c0006f          	j	300005ac <memmove+0x98>
30000584:	fec42783          	lw	a5,-20(s0)
30000588:	fff78793          	addi	a5,a5,-1
3000058c:	fef42623          	sw	a5,-20(s0)
30000590:	fe842783          	lw	a5,-24(s0)
30000594:	fff78793          	addi	a5,a5,-1
30000598:	fef42423          	sw	a5,-24(s0)
3000059c:	fec42783          	lw	a5,-20(s0)
300005a0:	0007c703          	lbu	a4,0(a5)
300005a4:	fe842783          	lw	a5,-24(s0)
300005a8:	00e78023          	sb	a4,0(a5)
300005ac:	fd442783          	lw	a5,-44(s0)
300005b0:	fff78713          	addi	a4,a5,-1
300005b4:	fce42a23          	sw	a4,-44(s0)
300005b8:	fc0796e3          	bnez	a5,30000584 <memmove+0x70>
300005bc:	0340006f          	j	300005f0 <memmove+0xdc>
300005c0:	fec42703          	lw	a4,-20(s0)
300005c4:	00170793          	addi	a5,a4,1
300005c8:	fef42623          	sw	a5,-20(s0)
300005cc:	fe842783          	lw	a5,-24(s0)
300005d0:	00178693          	addi	a3,a5,1
300005d4:	fed42423          	sw	a3,-24(s0)
300005d8:	00074703          	lbu	a4,0(a4)
300005dc:	00e78023          	sb	a4,0(a5)
300005e0:	fd442783          	lw	a5,-44(s0)
300005e4:	fff78713          	addi	a4,a5,-1
300005e8:	fce42a23          	sw	a4,-44(s0)
300005ec:	fc079ae3          	bnez	a5,300005c0 <memmove+0xac>
300005f0:	fdc42783          	lw	a5,-36(s0)
300005f4:	00078513          	mv	a0,a5
300005f8:	02c12083          	lw	ra,44(sp)
300005fc:	02812403          	lw	s0,40(sp)
30000600:	03010113          	addi	sp,sp,48
30000604:	00008067          	ret

30000608 <memcpy>:
30000608:	fe010113          	addi	sp,sp,-32
3000060c:	00112e23          	sw	ra,28(sp)
30000610:	00812c23          	sw	s0,24(sp)
30000614:	02010413          	addi	s0,sp,32
30000618:	fea42623          	sw	a0,-20(s0)
3000061c:	feb42423          	sw	a1,-24(s0)
30000620:	fec42223          	sw	a2,-28(s0)
30000624:	fe442603          	lw	a2,-28(s0)
30000628:	fe842583          	lw	a1,-24(s0)
3000062c:	fec42503          	lw	a0,-20(s0)
30000630:	ee5ff0ef          	jal	30000514 <memmove>
30000634:	00050793          	mv	a5,a0
30000638:	00078513          	mv	a0,a5
3000063c:	01c12083          	lw	ra,28(sp)
30000640:	01812403          	lw	s0,24(sp)
30000644:	02010113          	addi	sp,sp,32
30000648:	00008067          	ret

3000064c <memcmp>:
3000064c:	fd010113          	addi	sp,sp,-48
30000650:	02112623          	sw	ra,44(sp)
30000654:	02812423          	sw	s0,40(sp)
30000658:	03010413          	addi	s0,sp,48
3000065c:	fca42e23          	sw	a0,-36(s0)
30000660:	fcb42c23          	sw	a1,-40(s0)
30000664:	fcc42a23          	sw	a2,-44(s0)
30000668:	fdc42783          	lw	a5,-36(s0)
3000066c:	fef42623          	sw	a5,-20(s0)
30000670:	fd842783          	lw	a5,-40(s0)
30000674:	fef42423          	sw	a5,-24(s0)
30000678:	04c0006f          	j	300006c4 <memcmp+0x78>
3000067c:	fec42783          	lw	a5,-20(s0)
30000680:	0007c703          	lbu	a4,0(a5)
30000684:	fe842783          	lw	a5,-24(s0)
30000688:	0007c783          	lbu	a5,0(a5)
3000068c:	02f70063          	beq	a4,a5,300006ac <memcmp+0x60>
30000690:	fec42783          	lw	a5,-20(s0)
30000694:	0007c783          	lbu	a5,0(a5)
30000698:	00078713          	mv	a4,a5
3000069c:	fe842783          	lw	a5,-24(s0)
300006a0:	0007c783          	lbu	a5,0(a5)
300006a4:	40f707b3          	sub	a5,a4,a5
300006a8:	0300006f          	j	300006d8 <memcmp+0x8c>
300006ac:	fec42783          	lw	a5,-20(s0)
300006b0:	00178793          	addi	a5,a5,1
300006b4:	fef42623          	sw	a5,-20(s0)
300006b8:	fe842783          	lw	a5,-24(s0)
300006bc:	00178793          	addi	a5,a5,1
300006c0:	fef42423          	sw	a5,-24(s0)
300006c4:	fd442783          	lw	a5,-44(s0)
300006c8:	fff78713          	addi	a4,a5,-1
300006cc:	fce42a23          	sw	a4,-44(s0)
300006d0:	fa0796e3          	bnez	a5,3000067c <memcmp+0x30>
300006d4:	00000793          	li	a5,0
300006d8:	00078513          	mv	a0,a5
300006dc:	02c12083          	lw	ra,44(sp)
300006e0:	02812403          	lw	s0,40(sp)
300006e4:	03010113          	addi	sp,sp,48
300006e8:	00008067          	ret

300006ec <__putch>:
300006ec:	fe010113          	addi	sp,sp,-32
300006f0:	00112e23          	sw	ra,28(sp)
300006f4:	00812c23          	sw	s0,24(sp)
300006f8:	02010413          	addi	s0,sp,32
300006fc:	00050793          	mv	a5,a0
30000700:	feb42423          	sw	a1,-24(s0)
30000704:	fec42223          	sw	a2,-28(s0)
30000708:	fef407a3          	sb	a5,-17(s0)
3000070c:	0640006f          	j	30000770 <__putch+0x84>
30000710:	fe442783          	lw	a5,-28(s0)
30000714:	0107a783          	lw	a5,16(a5)
30000718:	00079a63          	bnez	a5,3000072c <__putch+0x40>
3000071c:	fef44783          	lbu	a5,-17(s0)
30000720:	00078513          	mv	a0,a5
30000724:	a55ff0ef          	jal	30000178 <putch>
30000728:	0340006f          	j	3000075c <__putch+0x70>
3000072c:	fe442783          	lw	a5,-28(s0)
30000730:	0107a703          	lw	a4,16(a5)
30000734:	fe442783          	lw	a5,-28(s0)
30000738:	0147a783          	lw	a5,20(a5)
3000073c:	02f70063          	beq	a4,a5,3000075c <__putch+0x70>
30000740:	fe442783          	lw	a5,-28(s0)
30000744:	0107a783          	lw	a5,16(a5)
30000748:	00178693          	addi	a3,a5,1
3000074c:	fe442703          	lw	a4,-28(s0)
30000750:	00d72823          	sw	a3,16(a4)
30000754:	fef44703          	lbu	a4,-17(s0)
30000758:	00e78023          	sb	a4,0(a5)
3000075c:	fe442783          	lw	a5,-28(s0)
30000760:	0187a783          	lw	a5,24(a5)
30000764:	00178713          	addi	a4,a5,1
30000768:	fe442783          	lw	a5,-28(s0)
3000076c:	00e7ac23          	sw	a4,24(a5)
30000770:	fe842783          	lw	a5,-24(s0)
30000774:	fff78713          	addi	a4,a5,-1
30000778:	fee42423          	sw	a4,-24(s0)
3000077c:	f8079ae3          	bnez	a5,30000710 <__putch+0x24>
30000780:	00000013          	nop
30000784:	00000013          	nop
30000788:	01c12083          	lw	ra,28(sp)
3000078c:	01812403          	lw	s0,24(sp)
30000790:	02010113          	addi	sp,sp,32
30000794:	00008067          	ret

30000798 <__putstr>:
30000798:	fe010113          	addi	sp,sp,-32
3000079c:	00112e23          	sw	ra,28(sp)
300007a0:	00812c23          	sw	s0,24(sp)
300007a4:	02010413          	addi	s0,sp,32
300007a8:	fea42623          	sw	a0,-20(s0)
300007ac:	feb42423          	sw	a1,-24(s0)
300007b0:	fec42223          	sw	a2,-28(s0)
300007b4:	0240006f          	j	300007d8 <__putstr+0x40>
300007b8:	fec42783          	lw	a5,-20(s0)
300007bc:	00178713          	addi	a4,a5,1
300007c0:	fee42623          	sw	a4,-20(s0)
300007c4:	0007c783          	lbu	a5,0(a5)
300007c8:	fe442603          	lw	a2,-28(s0)
300007cc:	00100593          	li	a1,1
300007d0:	00078513          	mv	a0,a5
300007d4:	f19ff0ef          	jal	300006ec <__putch>
300007d8:	fe842783          	lw	a5,-24(s0)
300007dc:	fff78713          	addi	a4,a5,-1
300007e0:	fee42423          	sw	a4,-24(s0)
300007e4:	fc079ae3          	bnez	a5,300007b8 <__putstr+0x20>
300007e8:	00000013          	nop
300007ec:	00000013          	nop
300007f0:	01c12083          	lw	ra,28(sp)
300007f4:	01812403          	lw	s0,24(sp)
300007f8:	02010113          	addi	sp,sp,32
300007fc:	00008067          	ret

30000800 <format_oct32>:
30000800:	fd010113          	addi	sp,sp,-48
30000804:	02112623          	sw	ra,44(sp)
30000808:	02812423          	sw	s0,40(sp)
3000080c:	03010413          	addi	s0,sp,48
30000810:	fca42e23          	sw	a0,-36(s0)
30000814:	fcb42c23          	sw	a1,-40(s0)
30000818:	fdc42783          	lw	a5,-36(s0)
3000081c:	fef42623          	sw	a5,-20(s0)
30000820:	fec42783          	lw	a5,-20(s0)
30000824:	fff78793          	addi	a5,a5,-1
30000828:	fef42623          	sw	a5,-20(s0)
3000082c:	fec42783          	lw	a5,-20(s0)
30000830:	00078023          	sb	zero,0(a5)
30000834:	fd842783          	lw	a5,-40(s0)
30000838:	0077f793          	andi	a5,a5,7
3000083c:	fec42703          	lw	a4,-20(s0)
30000840:	fff70713          	addi	a4,a4,-1
30000844:	fee42623          	sw	a4,-20(s0)
30000848:	30008737          	lui	a4,0x30008
3000084c:	6c870713          	addi	a4,a4,1736 # 300086c8 <main+0x70>
30000850:	00f707b3          	add	a5,a4,a5
30000854:	0007c703          	lbu	a4,0(a5)
30000858:	fec42783          	lw	a5,-20(s0)
3000085c:	00e78023          	sb	a4,0(a5)
30000860:	fd842783          	lw	a5,-40(s0)
30000864:	0037d793          	srli	a5,a5,0x3
30000868:	fcf42c23          	sw	a5,-40(s0)
3000086c:	fd842783          	lw	a5,-40(s0)
30000870:	fc0792e3          	bnez	a5,30000834 <format_oct32+0x34>
30000874:	fdc42703          	lw	a4,-36(s0)
30000878:	fec42783          	lw	a5,-20(s0)
3000087c:	40f707b3          	sub	a5,a4,a5
30000880:	fff78793          	addi	a5,a5,-1
30000884:	00078513          	mv	a0,a5
30000888:	02c12083          	lw	ra,44(sp)
3000088c:	02812403          	lw	s0,40(sp)
30000890:	03010113          	addi	sp,sp,48
30000894:	00008067          	ret

30000898 <format_dec32>:
30000898:	fd010113          	addi	sp,sp,-48
3000089c:	02112623          	sw	ra,44(sp)
300008a0:	02812423          	sw	s0,40(sp)
300008a4:	03010413          	addi	s0,sp,48
300008a8:	fca42e23          	sw	a0,-36(s0)
300008ac:	fcb42c23          	sw	a1,-40(s0)
300008b0:	fdc42783          	lw	a5,-36(s0)
300008b4:	fef42623          	sw	a5,-20(s0)
300008b8:	fec42783          	lw	a5,-20(s0)
300008bc:	fff78793          	addi	a5,a5,-1
300008c0:	fef42623          	sw	a5,-20(s0)
300008c4:	fec42783          	lw	a5,-20(s0)
300008c8:	00078023          	sb	zero,0(a5)
300008cc:	fd842683          	lw	a3,-40(s0)
300008d0:	ccccd7b7          	lui	a5,0xccccd
300008d4:	ccd78793          	addi	a5,a5,-819 # cccccccd <_etext+0x9ccb2fa5>
300008d8:	02f6b7b3          	mulhu	a5,a3,a5
300008dc:	0037d713          	srli	a4,a5,0x3
300008e0:	00070793          	mv	a5,a4
300008e4:	00279793          	slli	a5,a5,0x2
300008e8:	00e787b3          	add	a5,a5,a4
300008ec:	00179793          	slli	a5,a5,0x1
300008f0:	40f68733          	sub	a4,a3,a5
300008f4:	fec42783          	lw	a5,-20(s0)
300008f8:	fff78793          	addi	a5,a5,-1
300008fc:	fef42623          	sw	a5,-20(s0)
30000900:	300087b7          	lui	a5,0x30008
30000904:	6c878793          	addi	a5,a5,1736 # 300086c8 <main+0x70>
30000908:	00e787b3          	add	a5,a5,a4
3000090c:	0007c703          	lbu	a4,0(a5)
30000910:	fec42783          	lw	a5,-20(s0)
30000914:	00e78023          	sb	a4,0(a5)
30000918:	fd842703          	lw	a4,-40(s0)
3000091c:	ccccd7b7          	lui	a5,0xccccd
30000920:	ccd78793          	addi	a5,a5,-819 # cccccccd <_etext+0x9ccb2fa5>
30000924:	02f737b3          	mulhu	a5,a4,a5
30000928:	0037d793          	srli	a5,a5,0x3
3000092c:	fcf42c23          	sw	a5,-40(s0)
30000930:	fd842783          	lw	a5,-40(s0)
30000934:	f8079ce3          	bnez	a5,300008cc <format_dec32+0x34>
30000938:	fdc42703          	lw	a4,-36(s0)
3000093c:	fec42783          	lw	a5,-20(s0)
30000940:	40f707b3          	sub	a5,a4,a5
30000944:	fff78793          	addi	a5,a5,-1
30000948:	00078513          	mv	a0,a5
3000094c:	02c12083          	lw	ra,44(sp)
30000950:	02812403          	lw	s0,40(sp)
30000954:	03010113          	addi	sp,sp,48
30000958:	00008067          	ret

3000095c <format_hex32>:
3000095c:	fd010113          	addi	sp,sp,-48
30000960:	02112623          	sw	ra,44(sp)
30000964:	02812423          	sw	s0,40(sp)
30000968:	03010413          	addi	s0,sp,48
3000096c:	fca42e23          	sw	a0,-36(s0)
30000970:	fcb42c23          	sw	a1,-40(s0)
30000974:	fdc42783          	lw	a5,-36(s0)
30000978:	fef42623          	sw	a5,-20(s0)
3000097c:	fec42783          	lw	a5,-20(s0)
30000980:	fff78793          	addi	a5,a5,-1
30000984:	fef42623          	sw	a5,-20(s0)
30000988:	fec42783          	lw	a5,-20(s0)
3000098c:	00078023          	sb	zero,0(a5)
30000990:	fd842783          	lw	a5,-40(s0)
30000994:	00f7f793          	andi	a5,a5,15
30000998:	fec42703          	lw	a4,-20(s0)
3000099c:	fff70713          	addi	a4,a4,-1
300009a0:	fee42623          	sw	a4,-20(s0)
300009a4:	30008737          	lui	a4,0x30008
300009a8:	6c870713          	addi	a4,a4,1736 # 300086c8 <main+0x70>
300009ac:	00f707b3          	add	a5,a4,a5
300009b0:	0007c703          	lbu	a4,0(a5)
300009b4:	fec42783          	lw	a5,-20(s0)
300009b8:	00e78023          	sb	a4,0(a5)
300009bc:	fd842783          	lw	a5,-40(s0)
300009c0:	0047d793          	srli	a5,a5,0x4
300009c4:	fcf42c23          	sw	a5,-40(s0)
300009c8:	fd842783          	lw	a5,-40(s0)
300009cc:	fc0792e3          	bnez	a5,30000990 <format_hex32+0x34>
300009d0:	fdc42703          	lw	a4,-36(s0)
300009d4:	fec42783          	lw	a5,-20(s0)
300009d8:	40f707b3          	sub	a5,a4,a5
300009dc:	fff78793          	addi	a5,a5,-1
300009e0:	00078513          	mv	a0,a5
300009e4:	02c12083          	lw	ra,44(sp)
300009e8:	02812403          	lw	s0,40(sp)
300009ec:	03010113          	addi	sp,sp,48
300009f0:	00008067          	ret

300009f4 <format_int32>:
300009f4:	fe010113          	addi	sp,sp,-32
300009f8:	00112e23          	sw	ra,28(sp)
300009fc:	00812c23          	sw	s0,24(sp)
30000a00:	02010413          	addi	s0,sp,32
30000a04:	fea42623          	sw	a0,-20(s0)
30000a08:	feb42023          	sw	a1,-32(s0)
30000a0c:	fec42223          	sw	a2,-28(s0)
30000a10:	fed42423          	sw	a3,-24(s0)
30000a14:	fe842703          	lw	a4,-24(s0)
30000a18:	01000793          	li	a5,16
30000a1c:	04f70e63          	beq	a4,a5,30000a78 <format_int32+0x84>
30000a20:	fe842703          	lw	a4,-24(s0)
30000a24:	01000793          	li	a5,16
30000a28:	06e7c463          	blt	a5,a4,30000a90 <format_int32+0x9c>
30000a2c:	fe842703          	lw	a4,-24(s0)
30000a30:	00800793          	li	a5,8
30000a34:	00f70a63          	beq	a4,a5,30000a48 <format_int32+0x54>
30000a38:	fe842703          	lw	a4,-24(s0)
30000a3c:	00a00793          	li	a5,10
30000a40:	02f70063          	beq	a4,a5,30000a60 <format_int32+0x6c>
30000a44:	04c0006f          	j	30000a90 <format_int32+0x9c>
30000a48:	fe042783          	lw	a5,-32(s0)
30000a4c:	00078593          	mv	a1,a5
30000a50:	fec42503          	lw	a0,-20(s0)
30000a54:	dadff0ef          	jal	30000800 <format_oct32>
30000a58:	00050793          	mv	a5,a0
30000a5c:	0380006f          	j	30000a94 <format_int32+0xa0>
30000a60:	fe042783          	lw	a5,-32(s0)
30000a64:	00078593          	mv	a1,a5
30000a68:	fec42503          	lw	a0,-20(s0)
30000a6c:	e2dff0ef          	jal	30000898 <format_dec32>
30000a70:	00050793          	mv	a5,a0
30000a74:	0200006f          	j	30000a94 <format_int32+0xa0>
30000a78:	fe042783          	lw	a5,-32(s0)
30000a7c:	00078593          	mv	a1,a5
30000a80:	fec42503          	lw	a0,-20(s0)
30000a84:	ed9ff0ef          	jal	3000095c <format_hex32>
30000a88:	00050793          	mv	a5,a0
30000a8c:	0080006f          	j	30000a94 <format_int32+0xa0>
30000a90:	00000793          	li	a5,0
30000a94:	00078513          	mv	a0,a5
30000a98:	01c12083          	lw	ra,28(sp)
30000a9c:	01812403          	lw	s0,24(sp)
30000aa0:	02010113          	addi	sp,sp,32
30000aa4:	00008067          	ret

30000aa8 <vsnprintf_internal>:
30000aa8:	f1010113          	addi	sp,sp,-240
30000aac:	0e112623          	sw	ra,236(sp)
30000ab0:	0e812423          	sw	s0,232(sp)
30000ab4:	0f212223          	sw	s2,228(sp)
30000ab8:	0f312023          	sw	s3,224(sp)
30000abc:	0f010413          	addi	s0,sp,240
30000ac0:	f0a42e23          	sw	a0,-228(s0)
30000ac4:	f0b42c23          	sw	a1,-232(s0)
30000ac8:	f0c42a23          	sw	a2,-236(s0)
30000acc:	f0d42823          	sw	a3,-240(s0)
30000ad0:	f6042823          	sw	zero,-144(s0)
30000ad4:	f6042a23          	sw	zero,-140(s0)
30000ad8:	f6042c23          	sw	zero,-136(s0)
30000adc:	f6042e23          	sw	zero,-132(s0)
30000ae0:	f8042023          	sw	zero,-128(s0)
30000ae4:	f8042223          	sw	zero,-124(s0)
30000ae8:	f8042423          	sw	zero,-120(s0)
30000aec:	f1c42783          	lw	a5,-228(s0)
30000af0:	f8f42023          	sw	a5,-128(s0)
30000af4:	f1c42783          	lw	a5,-228(s0)
30000af8:	00078e63          	beqz	a5,30000b14 <vsnprintf_internal+0x6c>
30000afc:	f1842783          	lw	a5,-232(s0)
30000b00:	00078a63          	beqz	a5,30000b14 <vsnprintf_internal+0x6c>
30000b04:	f1c42703          	lw	a4,-228(s0)
30000b08:	f1842783          	lw	a5,-232(s0)
30000b0c:	00f707b3          	add	a5,a4,a5
30000b10:	0080006f          	j	30000b18 <vsnprintf_internal+0x70>
30000b14:	00000793          	li	a5,0
30000b18:	f8f42223          	sw	a5,-124(s0)
30000b1c:	f8042423          	sw	zero,-120(s0)
30000b20:	f1442783          	lw	a5,-236(s0)
30000b24:	fef42623          	sw	a5,-20(s0)
30000b28:	7ec0006f          	j	30001314 <vsnprintf_internal+0x86c>
30000b2c:	fec42783          	lw	a5,-20(s0)
30000b30:	00178713          	addi	a4,a5,1
30000b34:	fee42623          	sw	a4,-20(s0)
30000b38:	0007c783          	lbu	a5,0(a5)
30000b3c:	fef405a3          	sb	a5,-21(s0)
30000b40:	feb44703          	lbu	a4,-21(s0)
30000b44:	02500793          	li	a5,37
30000b48:	02f70063          	beq	a4,a5,30000b68 <vsnprintf_internal+0xc0>
30000b4c:	f7040713          	addi	a4,s0,-144
30000b50:	feb44783          	lbu	a5,-21(s0)
30000b54:	00070613          	mv	a2,a4
30000b58:	00100593          	li	a1,1
30000b5c:	00078513          	mv	a0,a5
30000b60:	b8dff0ef          	jal	300006ec <__putch>
30000b64:	7b00006f          	j	30001314 <vsnprintf_internal+0x86c>
30000b68:	f2c40793          	addi	a5,s0,-212
30000b6c:	04078793          	addi	a5,a5,64
30000b70:	faf42a23          	sw	a5,-76(s0)
30000b74:	fe042223          	sw	zero,-28(s0)
30000b78:	00000793          	li	a5,0
30000b7c:	00000813          	li	a6,0
30000b80:	fcf42c23          	sw	a5,-40(s0)
30000b84:	fd042e23          	sw	a6,-36(s0)
30000b88:	fc042a23          	sw	zero,-44(s0)
30000b8c:	f6042823          	sw	zero,-144(s0)
30000b90:	02000793          	li	a5,32
30000b94:	f6f40a23          	sb	a5,-140(s0)
30000b98:	f6042c23          	sw	zero,-136(s0)
30000b9c:	fc042823          	sw	zero,-48(s0)
30000ba0:	fc042623          	sw	zero,-52(s0)
30000ba4:	fc042423          	sw	zero,-56(s0)
30000ba8:	fc042223          	sw	zero,-60(s0)
30000bac:	fc042023          	sw	zero,-64(s0)
30000bb0:	fa042e23          	sw	zero,-68(s0)
30000bb4:	fa042823          	sw	zero,-80(s0)
30000bb8:	fec42783          	lw	a5,-20(s0)
30000bbc:	00178713          	addi	a4,a5,1
30000bc0:	fee42623          	sw	a4,-20(s0)
30000bc4:	0007c783          	lbu	a5,0(a5)
30000bc8:	fef405a3          	sb	a5,-21(s0)
30000bcc:	feb44783          	lbu	a5,-21(s0)
30000bd0:	fe078793          	addi	a5,a5,-32
30000bd4:	05800713          	li	a4,88
30000bd8:	72f76e63          	bltu	a4,a5,30001314 <vsnprintf_internal+0x86c>
30000bdc:	00279713          	slli	a4,a5,0x2
30000be0:	300087b7          	lui	a5,0x30008
30000be4:	6e878793          	addi	a5,a5,1768 # 300086e8 <main+0x90>
30000be8:	00f707b3          	add	a5,a4,a5
30000bec:	0007a783          	lw	a5,0(a5)
30000bf0:	00078067          	jr	a5
30000bf4:	00100793          	li	a5,1
30000bf8:	f6f42823          	sw	a5,-144(s0)
30000bfc:	02000793          	li	a5,32
30000c00:	f6f40a23          	sb	a5,-140(s0)
30000c04:	fb5ff06f          	j	30000bb8 <vsnprintf_internal+0x110>
30000c08:	f7042783          	lw	a5,-144(s0)
30000c0c:	6e079263          	bnez	a5,300012f0 <vsnprintf_internal+0x848>
30000c10:	03000793          	li	a5,48
30000c14:	f6f40a23          	sb	a5,-140(s0)
30000c18:	6d80006f          	j	300012f0 <vsnprintf_internal+0x848>
30000c1c:	f7842783          	lw	a5,-136(s0)
30000c20:	00078863          	beqz	a5,30000c30 <vsnprintf_internal+0x188>
30000c24:	f7c44703          	lbu	a4,-132(s0)
30000c28:	02b00793          	li	a5,43
30000c2c:	6cf70663          	beq	a4,a5,300012f8 <vsnprintf_internal+0x850>
30000c30:	00100793          	li	a5,1
30000c34:	f6f42c23          	sw	a5,-136(s0)
30000c38:	02000793          	li	a5,32
30000c3c:	f6f40e23          	sb	a5,-132(s0)
30000c40:	6b80006f          	j	300012f8 <vsnprintf_internal+0x850>
30000c44:	00100793          	li	a5,1
30000c48:	f6f42c23          	sw	a5,-136(s0)
30000c4c:	02b00793          	li	a5,43
30000c50:	f6f40e23          	sb	a5,-132(s0)
30000c54:	f65ff06f          	j	30000bb8 <vsnprintf_internal+0x110>
30000c58:	feb44783          	lbu	a5,-21(s0)
30000c5c:	fd078793          	addi	a5,a5,-48
30000c60:	fcf42823          	sw	a5,-48(s0)
30000c64:	02c0006f          	j	30000c90 <vsnprintf_internal+0x1e8>
30000c68:	fd042703          	lw	a4,-48(s0)
30000c6c:	00070793          	mv	a5,a4
30000c70:	00279793          	slli	a5,a5,0x2
30000c74:	00e787b3          	add	a5,a5,a4
30000c78:	00179793          	slli	a5,a5,0x1
30000c7c:	00078713          	mv	a4,a5
30000c80:	feb44783          	lbu	a5,-21(s0)
30000c84:	00f707b3          	add	a5,a4,a5
30000c88:	fd078793          	addi	a5,a5,-48
30000c8c:	fcf42823          	sw	a5,-48(s0)
30000c90:	fec42783          	lw	a5,-20(s0)
30000c94:	00178713          	addi	a4,a5,1
30000c98:	fee42623          	sw	a4,-20(s0)
30000c9c:	0007c783          	lbu	a5,0(a5)
30000ca0:	fef405a3          	sb	a5,-21(s0)
30000ca4:	feb44703          	lbu	a4,-21(s0)
30000ca8:	02f00793          	li	a5,47
30000cac:	00e7f863          	bgeu	a5,a4,30000cbc <vsnprintf_internal+0x214>
30000cb0:	feb44703          	lbu	a4,-21(s0)
30000cb4:	03900793          	li	a5,57
30000cb8:	fae7f8e3          	bgeu	a5,a4,30000c68 <vsnprintf_internal+0x1c0>
30000cbc:	feb44703          	lbu	a4,-21(s0)
30000cc0:	02d00793          	li	a5,45
30000cc4:	62f71e63          	bne	a4,a5,30001300 <vsnprintf_internal+0x858>
30000cc8:	fd042783          	lw	a5,-48(s0)
30000ccc:	40f007b3          	neg	a5,a5
30000cd0:	fcf42823          	sw	a5,-48(s0)
30000cd4:	ee5ff06f          	j	30000bb8 <vsnprintf_internal+0x110>
30000cd8:	fcc42703          	lw	a4,-52(s0)
30000cdc:	00070793          	mv	a5,a4
30000ce0:	00279793          	slli	a5,a5,0x2
30000ce4:	00e787b3          	add	a5,a5,a4
30000ce8:	00179793          	slli	a5,a5,0x1
30000cec:	00078713          	mv	a4,a5
30000cf0:	feb44783          	lbu	a5,-21(s0)
30000cf4:	00f707b3          	add	a5,a4,a5
30000cf8:	fd078793          	addi	a5,a5,-48
30000cfc:	fcf42623          	sw	a5,-52(s0)
30000d00:	fec42783          	lw	a5,-20(s0)
30000d04:	00178713          	addi	a4,a5,1
30000d08:	fee42623          	sw	a4,-20(s0)
30000d0c:	0007c783          	lbu	a5,0(a5)
30000d10:	fef405a3          	sb	a5,-21(s0)
30000d14:	feb44703          	lbu	a4,-21(s0)
30000d18:	02f00793          	li	a5,47
30000d1c:	00e7f863          	bgeu	a5,a4,30000d2c <vsnprintf_internal+0x284>
30000d20:	feb44703          	lbu	a4,-21(s0)
30000d24:	03900793          	li	a5,57
30000d28:	fae7f8e3          	bgeu	a5,a4,30000cd8 <vsnprintf_internal+0x230>
30000d2c:	02000793          	li	a5,32
30000d30:	f6f40a23          	sb	a5,-140(s0)
30000d34:	e99ff06f          	j	30000bcc <vsnprintf_internal+0x124>
30000d38:	fec42783          	lw	a5,-20(s0)
30000d3c:	00178713          	addi	a4,a5,1
30000d40:	fee42623          	sw	a4,-20(s0)
30000d44:	0007c783          	lbu	a5,0(a5)
30000d48:	fef405a3          	sb	a5,-21(s0)
30000d4c:	feb44703          	lbu	a4,-21(s0)
30000d50:	06800793          	li	a5,104
30000d54:	00f71863          	bne	a4,a5,30000d64 <vsnprintf_internal+0x2bc>
30000d58:	00100793          	li	a5,1
30000d5c:	fcf42423          	sw	a5,-56(s0)
30000d60:	e59ff06f          	j	30000bb8 <vsnprintf_internal+0x110>
30000d64:	00200793          	li	a5,2
30000d68:	fcf42423          	sw	a5,-56(s0)
30000d6c:	e61ff06f          	j	30000bcc <vsnprintf_internal+0x124>
30000d70:	fec42783          	lw	a5,-20(s0)
30000d74:	00178713          	addi	a4,a5,1
30000d78:	fee42623          	sw	a4,-20(s0)
30000d7c:	0007c783          	lbu	a5,0(a5)
30000d80:	fef405a3          	sb	a5,-21(s0)
30000d84:	feb44703          	lbu	a4,-21(s0)
30000d88:	06c00793          	li	a5,108
30000d8c:	00f71863          	bne	a4,a5,30000d9c <vsnprintf_internal+0x2f4>
30000d90:	00400793          	li	a5,4
30000d94:	fcf42423          	sw	a5,-56(s0)
30000d98:	e21ff06f          	j	30000bb8 <vsnprintf_internal+0x110>
30000d9c:	00300793          	li	a5,3
30000da0:	fcf42423          	sw	a5,-56(s0)
30000da4:	e29ff06f          	j	30000bcc <vsnprintf_internal+0x124>
30000da8:	00100793          	li	a5,1
30000dac:	fcf42223          	sw	a5,-60(s0)
30000db0:	00a00793          	li	a5,10
30000db4:	fcf42023          	sw	a5,-64(s0)
30000db8:	01c0006f          	j	30000dd4 <vsnprintf_internal+0x32c>
30000dbc:	01000793          	li	a5,16
30000dc0:	fcf42023          	sw	a5,-64(s0)
30000dc4:	0100006f          	j	30000dd4 <vsnprintf_internal+0x32c>
30000dc8:	00800793          	li	a5,8
30000dcc:	fcf42023          	sw	a5,-64(s0)
30000dd0:	00000013          	nop
30000dd4:	fc842703          	lw	a4,-56(s0)
30000dd8:	00400793          	li	a5,4
30000ddc:	20e7ea63          	bltu	a5,a4,30000ff0 <vsnprintf_internal+0x548>
30000de0:	fc842783          	lw	a5,-56(s0)
30000de4:	00279713          	slli	a4,a5,0x2
30000de8:	300097b7          	lui	a5,0x30009
30000dec:	84c78793          	addi	a5,a5,-1972 # 3000884c <main+0x1f4>
30000df0:	00f707b3          	add	a5,a4,a5
30000df4:	0007a783          	lw	a5,0(a5)
30000df8:	00078067          	jr	a5
30000dfc:	f1042783          	lw	a5,-240(s0)
30000e00:	00478713          	addi	a4,a5,4
30000e04:	f0e42823          	sw	a4,-240(s0)
30000e08:	0007a783          	lw	a5,0(a5)
30000e0c:	faf400a3          	sb	a5,-95(s0)
30000e10:	fc042a23          	sw	zero,-44(s0)
30000e14:	fc442783          	lw	a5,-60(s0)
30000e18:	02078a63          	beqz	a5,30000e4c <vsnprintf_internal+0x3a4>
30000e1c:	fa140783          	lb	a5,-95(s0)
30000e20:	0207d663          	bgez	a5,30000e4c <vsnprintf_internal+0x3a4>
30000e24:	02d00793          	li	a5,45
30000e28:	f6f40e23          	sb	a5,-132(s0)
30000e2c:	00100793          	li	a5,1
30000e30:	f6f42c23          	sw	a5,-136(s0)
30000e34:	fa144783          	lbu	a5,-95(s0)
30000e38:	fff7c793          	not	a5,a5
30000e3c:	0ff7f793          	zext.b	a5,a5
30000e40:	00178793          	addi	a5,a5,1
30000e44:	fef42223          	sw	a5,-28(s0)
30000e48:	1a80006f          	j	30000ff0 <vsnprintf_internal+0x548>
30000e4c:	fa144783          	lbu	a5,-95(s0)
30000e50:	fef42223          	sw	a5,-28(s0)
30000e54:	19c0006f          	j	30000ff0 <vsnprintf_internal+0x548>
30000e58:	f1042783          	lw	a5,-240(s0)
30000e5c:	00478713          	addi	a4,a5,4
30000e60:	f0e42823          	sw	a4,-240(s0)
30000e64:	0007a783          	lw	a5,0(a5)
30000e68:	faf41123          	sh	a5,-94(s0)
30000e6c:	fc042a23          	sw	zero,-44(s0)
30000e70:	fc442783          	lw	a5,-60(s0)
30000e74:	02078c63          	beqz	a5,30000eac <vsnprintf_internal+0x404>
30000e78:	fa241783          	lh	a5,-94(s0)
30000e7c:	0207d863          	bgez	a5,30000eac <vsnprintf_internal+0x404>
30000e80:	02d00793          	li	a5,45
30000e84:	f6f40e23          	sb	a5,-132(s0)
30000e88:	00100793          	li	a5,1
30000e8c:	f6f42c23          	sw	a5,-136(s0)
30000e90:	fa245783          	lhu	a5,-94(s0)
30000e94:	fff7c793          	not	a5,a5
30000e98:	01079793          	slli	a5,a5,0x10
30000e9c:	0107d793          	srli	a5,a5,0x10
30000ea0:	00178793          	addi	a5,a5,1
30000ea4:	fef42223          	sw	a5,-28(s0)
30000ea8:	1480006f          	j	30000ff0 <vsnprintf_internal+0x548>
30000eac:	fa245783          	lhu	a5,-94(s0)
30000eb0:	fef42223          	sw	a5,-28(s0)
30000eb4:	13c0006f          	j	30000ff0 <vsnprintf_internal+0x548>
30000eb8:	f1042783          	lw	a5,-240(s0)
30000ebc:	00478713          	addi	a4,a5,4
30000ec0:	f0e42823          	sw	a4,-240(s0)
30000ec4:	0007a783          	lw	a5,0(a5)
30000ec8:	f8f42e23          	sw	a5,-100(s0)
30000ecc:	fc042a23          	sw	zero,-44(s0)
30000ed0:	fc442783          	lw	a5,-60(s0)
30000ed4:	02078663          	beqz	a5,30000f00 <vsnprintf_internal+0x458>
30000ed8:	f9c42783          	lw	a5,-100(s0)
30000edc:	0207d263          	bgez	a5,30000f00 <vsnprintf_internal+0x458>
30000ee0:	02d00793          	li	a5,45
30000ee4:	f6f40e23          	sb	a5,-132(s0)
30000ee8:	00100793          	li	a5,1
30000eec:	f6f42c23          	sw	a5,-136(s0)
30000ef0:	f9c42783          	lw	a5,-100(s0)
30000ef4:	40f007b3          	neg	a5,a5
30000ef8:	fef42223          	sw	a5,-28(s0)
30000efc:	0f40006f          	j	30000ff0 <vsnprintf_internal+0x548>
30000f00:	f9c42783          	lw	a5,-100(s0)
30000f04:	fef42223          	sw	a5,-28(s0)
30000f08:	0e80006f          	j	30000ff0 <vsnprintf_internal+0x548>
30000f0c:	f1042783          	lw	a5,-240(s0)
30000f10:	00478713          	addi	a4,a5,4
30000f14:	f0e42823          	sw	a4,-240(s0)
30000f18:	0007a783          	lw	a5,0(a5)
30000f1c:	faf42223          	sw	a5,-92(s0)
30000f20:	fc042a23          	sw	zero,-44(s0)
30000f24:	fc442783          	lw	a5,-60(s0)
30000f28:	02078663          	beqz	a5,30000f54 <vsnprintf_internal+0x4ac>
30000f2c:	fa442783          	lw	a5,-92(s0)
30000f30:	0207d263          	bgez	a5,30000f54 <vsnprintf_internal+0x4ac>
30000f34:	02d00793          	li	a5,45
30000f38:	f6f40e23          	sb	a5,-132(s0)
30000f3c:	00100793          	li	a5,1
30000f40:	f6f42c23          	sw	a5,-136(s0)
30000f44:	fa442783          	lw	a5,-92(s0)
30000f48:	40f007b3          	neg	a5,a5
30000f4c:	fef42223          	sw	a5,-28(s0)
30000f50:	0a00006f          	j	30000ff0 <vsnprintf_internal+0x548>
30000f54:	fa442783          	lw	a5,-92(s0)
30000f58:	fef42223          	sw	a5,-28(s0)
30000f5c:	0940006f          	j	30000ff0 <vsnprintf_internal+0x548>
30000f60:	f1042783          	lw	a5,-240(s0)
30000f64:	00778793          	addi	a5,a5,7
30000f68:	ff87f793          	andi	a5,a5,-8
30000f6c:	00878713          	addi	a4,a5,8
30000f70:	f0e42823          	sw	a4,-240(s0)
30000f74:	0007a703          	lw	a4,0(a5)
30000f78:	0047a783          	lw	a5,4(a5)
30000f7c:	fae42423          	sw	a4,-88(s0)
30000f80:	faf42623          	sw	a5,-84(s0)
30000f84:	00100793          	li	a5,1
30000f88:	fcf42a23          	sw	a5,-44(s0)
30000f8c:	fc442783          	lw	a5,-60(s0)
30000f90:	04078863          	beqz	a5,30000fe0 <vsnprintf_internal+0x538>
30000f94:	fac42783          	lw	a5,-84(s0)
30000f98:	0407d463          	bgez	a5,30000fe0 <vsnprintf_internal+0x538>
30000f9c:	02d00793          	li	a5,45
30000fa0:	f6f40e23          	sb	a5,-132(s0)
30000fa4:	00100793          	li	a5,1
30000fa8:	f6f42c23          	sw	a5,-136(s0)
30000fac:	fa842503          	lw	a0,-88(s0)
30000fb0:	fac42583          	lw	a1,-84(s0)
30000fb4:	00000613          	li	a2,0
30000fb8:	00000693          	li	a3,0
30000fbc:	40a60733          	sub	a4,a2,a0
30000fc0:	00070813          	mv	a6,a4
30000fc4:	01063833          	sltu	a6,a2,a6
30000fc8:	40b687b3          	sub	a5,a3,a1
30000fcc:	410786b3          	sub	a3,a5,a6
30000fd0:	00068793          	mv	a5,a3
30000fd4:	fce42c23          	sw	a4,-40(s0)
30000fd8:	fcf42e23          	sw	a5,-36(s0)
30000fdc:	0140006f          	j	30000ff0 <vsnprintf_internal+0x548>
30000fe0:	fa842703          	lw	a4,-88(s0)
30000fe4:	fac42783          	lw	a5,-84(s0)
30000fe8:	fce42c23          	sw	a4,-40(s0)
30000fec:	fcf42e23          	sw	a5,-36(s0)
30000ff0:	fd442783          	lw	a5,-44(s0)
30000ff4:	02078063          	beqz	a5,30001014 <vsnprintf_internal+0x56c>
30000ff8:	fc042683          	lw	a3,-64(s0)
30000ffc:	fd842583          	lw	a1,-40(s0)
30001000:	fdc42603          	lw	a2,-36(s0)
30001004:	fb442503          	lw	a0,-76(s0)
30001008:	9edff0ef          	jal	300009f4 <format_int32>
3000100c:	00050793          	mv	a5,a0
30001010:	0280006f          	j	30001038 <vsnprintf_internal+0x590>
30001014:	fe442783          	lw	a5,-28(s0)
30001018:	00078913          	mv	s2,a5
3000101c:	00000993          	li	s3,0
30001020:	fc042683          	lw	a3,-64(s0)
30001024:	00090593          	mv	a1,s2
30001028:	00098613          	mv	a2,s3
3000102c:	fb442503          	lw	a0,-76(s0)
30001030:	9c5ff0ef          	jal	300009f4 <format_int32>
30001034:	00050793          	mv	a5,a0
30001038:	f8f42c23          	sw	a5,-104(s0)
3000103c:	f9842783          	lw	a5,-104(s0)
30001040:	fff7c793          	not	a5,a5
30001044:	fb442703          	lw	a4,-76(s0)
30001048:	00f707b3          	add	a5,a4,a5
3000104c:	f8f42a23          	sw	a5,-108(s0)
30001050:	fc442783          	lw	a5,-60(s0)
30001054:	00078a63          	beqz	a5,30001068 <vsnprintf_internal+0x5c0>
30001058:	f7842783          	lw	a5,-136(s0)
3000105c:	00078663          	beqz	a5,30001068 <vsnprintf_internal+0x5c0>
30001060:	00100793          	li	a5,1
30001064:	0080006f          	j	3000106c <vsnprintf_internal+0x5c4>
30001068:	00000793          	li	a5,0
3000106c:	f8f42823          	sw	a5,-112(s0)
30001070:	fcc42703          	lw	a4,-52(s0)
30001074:	f9842783          	lw	a5,-104(s0)
30001078:	00e7da63          	bge	a5,a4,3000108c <vsnprintf_internal+0x5e4>
3000107c:	fcc42703          	lw	a4,-52(s0)
30001080:	f9842783          	lw	a5,-104(s0)
30001084:	40f707b3          	sub	a5,a4,a5
30001088:	0080006f          	j	30001090 <vsnprintf_internal+0x5e8>
3000108c:	00000793          	li	a5,0
30001090:	f8f42623          	sw	a5,-116(s0)
30001094:	f9042703          	lw	a4,-112(s0)
30001098:	f8c42783          	lw	a5,-116(s0)
3000109c:	00f707b3          	add	a5,a4,a5
300010a0:	f9842703          	lw	a4,-104(s0)
300010a4:	00f707b3          	add	a5,a4,a5
300010a8:	faf42e23          	sw	a5,-68(s0)
300010ac:	fd042703          	lw	a4,-48(s0)
300010b0:	fbc42783          	lw	a5,-68(s0)
300010b4:	00e7da63          	bge	a5,a4,300010c8 <vsnprintf_internal+0x620>
300010b8:	fd042703          	lw	a4,-48(s0)
300010bc:	fbc42783          	lw	a5,-68(s0)
300010c0:	40f707b3          	sub	a5,a4,a5
300010c4:	0080006f          	j	300010cc <vsnprintf_internal+0x624>
300010c8:	00000793          	li	a5,0
300010cc:	faf42823          	sw	a5,-80(s0)
300010d0:	f7042783          	lw	a5,-144(s0)
300010d4:	02079463          	bnez	a5,300010fc <vsnprintf_internal+0x654>
300010d8:	f7444703          	lbu	a4,-140(s0)
300010dc:	02000793          	li	a5,32
300010e0:	00f71e63          	bne	a4,a5,300010fc <vsnprintf_internal+0x654>
300010e4:	f7444783          	lbu	a5,-140(s0)
300010e8:	f7040713          	addi	a4,s0,-144
300010ec:	00070613          	mv	a2,a4
300010f0:	fb042583          	lw	a1,-80(s0)
300010f4:	00078513          	mv	a0,a5
300010f8:	df4ff0ef          	jal	300006ec <__putch>
300010fc:	f9042783          	lw	a5,-112(s0)
30001100:	00078e63          	beqz	a5,3000111c <vsnprintf_internal+0x674>
30001104:	f7c44783          	lbu	a5,-132(s0)
30001108:	f7040713          	addi	a4,s0,-144
3000110c:	00070613          	mv	a2,a4
30001110:	00100593          	li	a1,1
30001114:	00078513          	mv	a0,a5
30001118:	dd4ff0ef          	jal	300006ec <__putch>
3000111c:	f7042783          	lw	a5,-144(s0)
30001120:	02079463          	bnez	a5,30001148 <vsnprintf_internal+0x6a0>
30001124:	f7444703          	lbu	a4,-140(s0)
30001128:	03000793          	li	a5,48
3000112c:	00f71e63          	bne	a4,a5,30001148 <vsnprintf_internal+0x6a0>
30001130:	f7444783          	lbu	a5,-140(s0)
30001134:	f7040713          	addi	a4,s0,-144
30001138:	00070613          	mv	a2,a4
3000113c:	fb042583          	lw	a1,-80(s0)
30001140:	00078513          	mv	a0,a5
30001144:	da8ff0ef          	jal	300006ec <__putch>
30001148:	f7040793          	addi	a5,s0,-144
3000114c:	00078613          	mv	a2,a5
30001150:	f8c42583          	lw	a1,-116(s0)
30001154:	03000513          	li	a0,48
30001158:	d94ff0ef          	jal	300006ec <__putch>
3000115c:	f7040793          	addi	a5,s0,-144
30001160:	00078613          	mv	a2,a5
30001164:	f9842583          	lw	a1,-104(s0)
30001168:	f9442503          	lw	a0,-108(s0)
3000116c:	e2cff0ef          	jal	30000798 <__putstr>
30001170:	f7042783          	lw	a5,-144(s0)
30001174:	18078a63          	beqz	a5,30001308 <vsnprintf_internal+0x860>
30001178:	f7444783          	lbu	a5,-140(s0)
3000117c:	f7040713          	addi	a4,s0,-144
30001180:	00070613          	mv	a2,a4
30001184:	fb042583          	lw	a1,-80(s0)
30001188:	00078513          	mv	a0,a5
3000118c:	d60ff0ef          	jal	300006ec <__putch>
30001190:	1780006f          	j	30001308 <vsnprintf_internal+0x860>
30001194:	f1042783          	lw	a5,-240(s0)
30001198:	00478713          	addi	a4,a5,4
3000119c:	f0e42823          	sw	a4,-240(s0)
300011a0:	0007a783          	lw	a5,0(a5)
300011a4:	fef42223          	sw	a5,-28(s0)
300011a8:	fe442783          	lw	a5,-28(s0)
300011ac:	02079063          	bnez	a5,300011cc <vsnprintf_internal+0x724>
300011b0:	f7040793          	addi	a5,s0,-144
300011b4:	00078613          	mv	a2,a5
300011b8:	00500593          	li	a1,5
300011bc:	300087b7          	lui	a5,0x30008
300011c0:	6dc78513          	addi	a0,a5,1756 # 300086dc <main+0x84>
300011c4:	dd4ff0ef          	jal	30000798 <__putstr>
300011c8:	14c0006f          	j	30001314 <vsnprintf_internal+0x86c>
300011cc:	f7040793          	addi	a5,s0,-144
300011d0:	00078613          	mv	a2,a5
300011d4:	00200593          	li	a1,2
300011d8:	300087b7          	lui	a5,0x30008
300011dc:	6e478513          	addi	a0,a5,1764 # 300086e4 <main+0x8c>
300011e0:	db8ff0ef          	jal	30000798 <__putstr>
300011e4:	01000793          	li	a5,16
300011e8:	fcf42023          	sw	a5,-64(s0)
300011ec:	fc042a23          	sw	zero,-44(s0)
300011f0:	e01ff06f          	j	30000ff0 <vsnprintf_internal+0x548>
300011f4:	00100793          	li	a5,1
300011f8:	faf42e23          	sw	a5,-68(s0)
300011fc:	f1042783          	lw	a5,-240(s0)
30001200:	00478713          	addi	a4,a5,4
30001204:	f0e42823          	sw	a4,-240(s0)
30001208:	0007a783          	lw	a5,0(a5)
3000120c:	0ff7f793          	zext.b	a5,a5
30001210:	f6f407a3          	sb	a5,-145(s0)
30001214:	f6f40793          	addi	a5,s0,-145
30001218:	faf42c23          	sw	a5,-72(s0)
3000121c:	0380006f          	j	30001254 <vsnprintf_internal+0x7ac>
30001220:	f1042783          	lw	a5,-240(s0)
30001224:	00478713          	addi	a4,a5,4
30001228:	f0e42823          	sw	a4,-240(s0)
3000122c:	0007a783          	lw	a5,0(a5)
30001230:	faf42c23          	sw	a5,-72(s0)
30001234:	fcc42783          	lw	a5,-52(s0)
30001238:	00079a63          	bnez	a5,3000124c <vsnprintf_internal+0x7a4>
3000123c:	fb842503          	lw	a0,-72(s0)
30001240:	f75fe0ef          	jal	300001b4 <strlen>
30001244:	00050793          	mv	a5,a0
30001248:	0080006f          	j	30001250 <vsnprintf_internal+0x7a8>
3000124c:	fcc42783          	lw	a5,-52(s0)
30001250:	faf42e23          	sw	a5,-68(s0)
30001254:	fd042703          	lw	a4,-48(s0)
30001258:	fbc42783          	lw	a5,-68(s0)
3000125c:	00e7da63          	bge	a5,a4,30001270 <vsnprintf_internal+0x7c8>
30001260:	fd042703          	lw	a4,-48(s0)
30001264:	fbc42783          	lw	a5,-68(s0)
30001268:	40f707b3          	sub	a5,a4,a5
3000126c:	0080006f          	j	30001274 <vsnprintf_internal+0x7cc>
30001270:	00000793          	li	a5,0
30001274:	faf42823          	sw	a5,-80(s0)
30001278:	f7042783          	lw	a5,-144(s0)
3000127c:	00079e63          	bnez	a5,30001298 <vsnprintf_internal+0x7f0>
30001280:	f7444783          	lbu	a5,-140(s0)
30001284:	f7040713          	addi	a4,s0,-144
30001288:	00070613          	mv	a2,a4
3000128c:	fb042583          	lw	a1,-80(s0)
30001290:	00078513          	mv	a0,a5
30001294:	c58ff0ef          	jal	300006ec <__putch>
30001298:	f7040793          	addi	a5,s0,-144
3000129c:	00078613          	mv	a2,a5
300012a0:	fbc42583          	lw	a1,-68(s0)
300012a4:	fb842503          	lw	a0,-72(s0)
300012a8:	cf0ff0ef          	jal	30000798 <__putstr>
300012ac:	f7042783          	lw	a5,-144(s0)
300012b0:	06078063          	beqz	a5,30001310 <vsnprintf_internal+0x868>
300012b4:	f7444783          	lbu	a5,-140(s0)
300012b8:	f7040713          	addi	a4,s0,-144
300012bc:	00070613          	mv	a2,a4
300012c0:	fb042583          	lw	a1,-80(s0)
300012c4:	00078513          	mv	a0,a5
300012c8:	c24ff0ef          	jal	300006ec <__putch>
300012cc:	0440006f          	j	30001310 <vsnprintf_internal+0x868>
300012d0:	f7040793          	addi	a5,s0,-144
300012d4:	00078613          	mv	a2,a5
300012d8:	00100593          	li	a1,1
300012dc:	02500513          	li	a0,37
300012e0:	c0cff0ef          	jal	300006ec <__putch>
300012e4:	0300006f          	j	30001314 <vsnprintf_internal+0x86c>
300012e8:	00000013          	nop
300012ec:	8cdff06f          	j	30000bb8 <vsnprintf_internal+0x110>
300012f0:	00000013          	nop
300012f4:	8c5ff06f          	j	30000bb8 <vsnprintf_internal+0x110>
300012f8:	00000013          	nop
300012fc:	8bdff06f          	j	30000bb8 <vsnprintf_internal+0x110>
30001300:	00000013          	nop
30001304:	8c9ff06f          	j	30000bcc <vsnprintf_internal+0x124>
30001308:	00000013          	nop
3000130c:	0080006f          	j	30001314 <vsnprintf_internal+0x86c>
30001310:	00000013          	nop
30001314:	fec42783          	lw	a5,-20(s0)
30001318:	0007c783          	lbu	a5,0(a5)
3000131c:	800798e3          	bnez	a5,30000b2c <vsnprintf_internal+0x84>
30001320:	f8042783          	lw	a5,-128(s0)
30001324:	00078663          	beqz	a5,30001330 <vsnprintf_internal+0x888>
30001328:	f8042783          	lw	a5,-128(s0)
3000132c:	00078023          	sb	zero,0(a5)
30001330:	f8842783          	lw	a5,-120(s0)
30001334:	00078513          	mv	a0,a5
30001338:	0ec12083          	lw	ra,236(sp)
3000133c:	0e812403          	lw	s0,232(sp)
30001340:	0e412903          	lw	s2,228(sp)
30001344:	0e012983          	lw	s3,224(sp)
30001348:	0f010113          	addi	sp,sp,240
3000134c:	00008067          	ret

30001350 <printf>:
30001350:	fb010113          	addi	sp,sp,-80
30001354:	02112623          	sw	ra,44(sp)
30001358:	02812423          	sw	s0,40(sp)
3000135c:	03010413          	addi	s0,sp,48
30001360:	fca42e23          	sw	a0,-36(s0)
30001364:	00b42223          	sw	a1,4(s0)
30001368:	00c42423          	sw	a2,8(s0)
3000136c:	00d42623          	sw	a3,12(s0)
30001370:	00e42823          	sw	a4,16(s0)
30001374:	00f42a23          	sw	a5,20(s0)
30001378:	01042c23          	sw	a6,24(s0)
3000137c:	01142e23          	sw	a7,28(s0)
30001380:	02040793          	addi	a5,s0,32
30001384:	fcf42c23          	sw	a5,-40(s0)
30001388:	fd842783          	lw	a5,-40(s0)
3000138c:	fe478793          	addi	a5,a5,-28
30001390:	fef42423          	sw	a5,-24(s0)
30001394:	fe842783          	lw	a5,-24(s0)
30001398:	00078693          	mv	a3,a5
3000139c:	fdc42603          	lw	a2,-36(s0)
300013a0:	00000593          	li	a1,0
300013a4:	00000513          	li	a0,0
300013a8:	f00ff0ef          	jal	30000aa8 <vsnprintf_internal>
300013ac:	fea42623          	sw	a0,-20(s0)
300013b0:	fec42783          	lw	a5,-20(s0)
300013b4:	00078513          	mv	a0,a5
300013b8:	02c12083          	lw	ra,44(sp)
300013bc:	02812403          	lw	s0,40(sp)
300013c0:	05010113          	addi	sp,sp,80
300013c4:	00008067          	ret

300013c8 <vsprintf>:
300013c8:	fe010113          	addi	sp,sp,-32
300013cc:	00112e23          	sw	ra,28(sp)
300013d0:	00812c23          	sw	s0,24(sp)
300013d4:	02010413          	addi	s0,sp,32
300013d8:	fea42623          	sw	a0,-20(s0)
300013dc:	feb42423          	sw	a1,-24(s0)
300013e0:	fec42223          	sw	a2,-28(s0)
300013e4:	fe442683          	lw	a3,-28(s0)
300013e8:	fe842603          	lw	a2,-24(s0)
300013ec:	00000593          	li	a1,0
300013f0:	fec42503          	lw	a0,-20(s0)
300013f4:	eb4ff0ef          	jal	30000aa8 <vsnprintf_internal>
300013f8:	00050793          	mv	a5,a0
300013fc:	00078513          	mv	a0,a5
30001400:	01c12083          	lw	ra,28(sp)
30001404:	01812403          	lw	s0,24(sp)
30001408:	02010113          	addi	sp,sp,32
3000140c:	00008067          	ret

30001410 <sprintf>:
30001410:	fb010113          	addi	sp,sp,-80
30001414:	02112623          	sw	ra,44(sp)
30001418:	02812423          	sw	s0,40(sp)
3000141c:	03010413          	addi	s0,sp,48
30001420:	fca42e23          	sw	a0,-36(s0)
30001424:	fcb42c23          	sw	a1,-40(s0)
30001428:	00c42423          	sw	a2,8(s0)
3000142c:	00d42623          	sw	a3,12(s0)
30001430:	00e42823          	sw	a4,16(s0)
30001434:	00f42a23          	sw	a5,20(s0)
30001438:	01042c23          	sw	a6,24(s0)
3000143c:	01142e23          	sw	a7,28(s0)
30001440:	02040793          	addi	a5,s0,32
30001444:	fcf42a23          	sw	a5,-44(s0)
30001448:	fd442783          	lw	a5,-44(s0)
3000144c:	fe878793          	addi	a5,a5,-24
30001450:	fef42423          	sw	a5,-24(s0)
30001454:	fe842783          	lw	a5,-24(s0)
30001458:	00078693          	mv	a3,a5
3000145c:	fd842603          	lw	a2,-40(s0)
30001460:	00000593          	li	a1,0
30001464:	fdc42503          	lw	a0,-36(s0)
30001468:	e40ff0ef          	jal	30000aa8 <vsnprintf_internal>
3000146c:	fea42623          	sw	a0,-20(s0)
30001470:	fec42783          	lw	a5,-20(s0)
30001474:	00078513          	mv	a0,a5
30001478:	02c12083          	lw	ra,44(sp)
3000147c:	02812403          	lw	s0,40(sp)
30001480:	05010113          	addi	sp,sp,80
30001484:	00008067          	ret

30001488 <snprintf>:
30001488:	fb010113          	addi	sp,sp,-80
3000148c:	02112623          	sw	ra,44(sp)
30001490:	02812423          	sw	s0,40(sp)
30001494:	03010413          	addi	s0,sp,48
30001498:	fca42e23          	sw	a0,-36(s0)
3000149c:	fcb42c23          	sw	a1,-40(s0)
300014a0:	fcc42a23          	sw	a2,-44(s0)
300014a4:	00d42623          	sw	a3,12(s0)
300014a8:	00e42823          	sw	a4,16(s0)
300014ac:	00f42a23          	sw	a5,20(s0)
300014b0:	01042c23          	sw	a6,24(s0)
300014b4:	01142e23          	sw	a7,28(s0)
300014b8:	02040793          	addi	a5,s0,32
300014bc:	fcf42823          	sw	a5,-48(s0)
300014c0:	fd042783          	lw	a5,-48(s0)
300014c4:	fec78793          	addi	a5,a5,-20
300014c8:	fef42423          	sw	a5,-24(s0)
300014cc:	fe842783          	lw	a5,-24(s0)
300014d0:	00078693          	mv	a3,a5
300014d4:	fd442603          	lw	a2,-44(s0)
300014d8:	fd842583          	lw	a1,-40(s0)
300014dc:	fdc42503          	lw	a0,-36(s0)
300014e0:	dc8ff0ef          	jal	30000aa8 <vsnprintf_internal>
300014e4:	fea42623          	sw	a0,-20(s0)
300014e8:	fec42783          	lw	a5,-20(s0)
300014ec:	00078513          	mv	a0,a5
300014f0:	02c12083          	lw	ra,44(sp)
300014f4:	02812403          	lw	s0,40(sp)
300014f8:	05010113          	addi	sp,sp,80
300014fc:	00008067          	ret

30001500 <vsnprintf>:
30001500:	fe010113          	addi	sp,sp,-32
30001504:	00112e23          	sw	ra,28(sp)
30001508:	00812c23          	sw	s0,24(sp)
3000150c:	02010413          	addi	s0,sp,32
30001510:	fea42623          	sw	a0,-20(s0)
30001514:	feb42423          	sw	a1,-24(s0)
30001518:	fec42223          	sw	a2,-28(s0)
3000151c:	fed42023          	sw	a3,-32(s0)
30001520:	fe042683          	lw	a3,-32(s0)
30001524:	fe442603          	lw	a2,-28(s0)
30001528:	fe842583          	lw	a1,-24(s0)
3000152c:	fec42503          	lw	a0,-20(s0)
30001530:	d78ff0ef          	jal	30000aa8 <vsnprintf_internal>
30001534:	00050793          	mv	a5,a0
30001538:	00078513          	mv	a0,a5
3000153c:	01c12083          	lw	ra,28(sp)
30001540:	01812403          	lw	s0,24(sp)
30001544:	02010113          	addi	sp,sp,32
30001548:	00008067          	ret

3000154c <flashio>:
3000154c:	fd010113          	addi	sp,sp,-48
30001550:	02112623          	sw	ra,44(sp)
30001554:	02812423          	sw	s0,40(sp)
30001558:	02912223          	sw	s1,36(sp)
3000155c:	03010413          	addi	s0,sp,48
30001560:	fca42e23          	sw	a0,-36(s0)
30001564:	fcb42c23          	sw	a1,-40(s0)
30001568:	00060693          	mv	a3,a2
3000156c:	fcd40ba3          	sb	a3,-41(s0)
30001570:	00010693          	mv	a3,sp
30001574:	00068493          	mv	s1,a3
30001578:	300006b7          	lui	a3,0x30000
3000157c:	17868613          	addi	a2,a3,376 # 30000178 <putch>
30001580:	300006b7          	lui	a3,0x30000
30001584:	0e068693          	addi	a3,a3,224 # 300000e0 <flashio_worker_begin>
30001588:	40d606b3          	sub	a3,a2,a3
3000158c:	4026d693          	srai	a3,a3,0x2
30001590:	fff68693          	addi	a3,a3,-1
30001594:	fed42223          	sw	a3,-28(s0)
30001598:	300006b7          	lui	a3,0x30000
3000159c:	17868613          	addi	a2,a3,376 # 30000178 <putch>
300015a0:	300006b7          	lui	a3,0x30000
300015a4:	0e068693          	addi	a3,a3,224 # 300000e0 <flashio_worker_begin>
300015a8:	40d606b3          	sub	a3,a2,a3
300015ac:	4026d693          	srai	a3,a3,0x2
300015b0:	00068e13          	mv	t3,a3
300015b4:	00000e93          	li	t4,0
300015b8:	01be5693          	srli	a3,t3,0x1b
300015bc:	005e9893          	slli	a7,t4,0x5
300015c0:	0116e8b3          	or	a7,a3,a7
300015c4:	005e1813          	slli	a6,t3,0x5
300015c8:	300006b7          	lui	a3,0x30000
300015cc:	17868613          	addi	a2,a3,376 # 30000178 <putch>
300015d0:	300006b7          	lui	a3,0x30000
300015d4:	0e068693          	addi	a3,a3,224 # 300000e0 <flashio_worker_begin>
300015d8:	40d606b3          	sub	a3,a2,a3
300015dc:	4026d693          	srai	a3,a3,0x2
300015e0:	00068313          	mv	t1,a3
300015e4:	00000393          	li	t2,0
300015e8:	01b35693          	srli	a3,t1,0x1b
300015ec:	00539793          	slli	a5,t2,0x5
300015f0:	00f6e7b3          	or	a5,a3,a5
300015f4:	00531713          	slli	a4,t1,0x5
300015f8:	300007b7          	lui	a5,0x30000
300015fc:	17878713          	addi	a4,a5,376 # 30000178 <putch>
30001600:	300007b7          	lui	a5,0x30000
30001604:	0e078793          	addi	a5,a5,224 # 300000e0 <flashio_worker_begin>
30001608:	40f707b3          	sub	a5,a4,a5
3000160c:	00378793          	addi	a5,a5,3
30001610:	ffc7f793          	andi	a5,a5,-4
30001614:	00f78793          	addi	a5,a5,15
30001618:	0047d793          	srli	a5,a5,0x4
3000161c:	00479793          	slli	a5,a5,0x4
30001620:	40f10133          	sub	sp,sp,a5
30001624:	00010793          	mv	a5,sp
30001628:	00378793          	addi	a5,a5,3
3000162c:	0027d793          	srli	a5,a5,0x2
30001630:	00279793          	slli	a5,a5,0x2
30001634:	fef42023          	sw	a5,-32(s0)
30001638:	300007b7          	lui	a5,0x30000
3000163c:	0e078793          	addi	a5,a5,224 # 300000e0 <flashio_worker_begin>
30001640:	fef42623          	sw	a5,-20(s0)
30001644:	fe042783          	lw	a5,-32(s0)
30001648:	fef42423          	sw	a5,-24(s0)
3000164c:	0240006f          	j	30001670 <flashio+0x124>
30001650:	fec42703          	lw	a4,-20(s0)
30001654:	00470793          	addi	a5,a4,4
30001658:	fef42623          	sw	a5,-20(s0)
3000165c:	fe842783          	lw	a5,-24(s0)
30001660:	00478693          	addi	a3,a5,4
30001664:	fed42423          	sw	a3,-24(s0)
30001668:	00072703          	lw	a4,0(a4)
3000166c:	00e7a023          	sw	a4,0(a5)
30001670:	fec42703          	lw	a4,-20(s0)
30001674:	300007b7          	lui	a5,0x30000
30001678:	17878793          	addi	a5,a5,376 # 30000178 <putch>
3000167c:	fcf71ae3          	bne	a4,a5,30001650 <flashio+0x104>
30001680:	fe042783          	lw	a5,-32(s0)
30001684:	fd842703          	lw	a4,-40(s0)
30001688:	fd744683          	lbu	a3,-41(s0)
3000168c:	00068613          	mv	a2,a3
30001690:	00070593          	mv	a1,a4
30001694:	fdc42503          	lw	a0,-36(s0)
30001698:	000780e7          	jalr	a5
3000169c:	00048113          	mv	sp,s1
300016a0:	00000013          	nop
300016a4:	fd040113          	addi	sp,s0,-48
300016a8:	02c12083          	lw	ra,44(sp)
300016ac:	02812403          	lw	s0,40(sp)
300016b0:	02412483          	lw	s1,36(sp)
300016b4:	03010113          	addi	sp,sp,48
300016b8:	00008067          	ret

300016bc <set_flash_qspi_flag>:
300016bc:	fe010113          	addi	sp,sp,-32
300016c0:	00112e23          	sw	ra,28(sp)
300016c4:	00812c23          	sw	s0,24(sp)
300016c8:	02010413          	addi	s0,sp,32
300016cc:	03500793          	li	a5,53
300016d0:	fef40223          	sb	a5,-28(s0)
300016d4:	fe0402a3          	sb	zero,-27(s0)
300016d8:	fe440793          	addi	a5,s0,-28
300016dc:	00000613          	li	a2,0
300016e0:	00200593          	li	a1,2
300016e4:	00078513          	mv	a0,a5
300016e8:	e65ff0ef          	jal	3000154c <flashio>
300016ec:	fe544783          	lbu	a5,-27(s0)
300016f0:	fef407a3          	sb	a5,-17(s0)
300016f4:	03100793          	li	a5,49
300016f8:	fef40223          	sb	a5,-28(s0)
300016fc:	fef44783          	lbu	a5,-17(s0)
30001700:	0027e793          	ori	a5,a5,2
30001704:	0ff7f793          	zext.b	a5,a5
30001708:	fef402a3          	sb	a5,-27(s0)
3000170c:	fe440793          	addi	a5,s0,-28
30001710:	05000613          	li	a2,80
30001714:	00200593          	li	a1,2
30001718:	00078513          	mv	a0,a5
3000171c:	e31ff0ef          	jal	3000154c <flashio>
30001720:	00000013          	nop
30001724:	01c12083          	lw	ra,28(sp)
30001728:	01812403          	lw	s0,24(sp)
3000172c:	02010113          	addi	sp,sp,32
30001730:	00008067          	ret

30001734 <set_flash_mode_spi>:
30001734:	ff010113          	addi	sp,sp,-16
30001738:	00112623          	sw	ra,12(sp)
3000173c:	00812423          	sw	s0,8(sp)
30001740:	01010413          	addi	s0,sp,16
30001744:	020007b7          	lui	a5,0x2000
30001748:	0007a683          	lw	a3,0(a5) # 2000000 <_ebss-0x2000000>
3000174c:	020007b7          	lui	a5,0x2000
30001750:	ff810737          	lui	a4,0xff810
30001754:	fff70713          	addi	a4,a4,-1 # ff80ffff <_etext+0xcf7f62d7>
30001758:	00e6f733          	and	a4,a3,a4
3000175c:	00e7a023          	sw	a4,0(a5) # 2000000 <_ebss-0x2000000>
30001760:	00000013          	nop
30001764:	00c12083          	lw	ra,12(sp)
30001768:	00812403          	lw	s0,8(sp)
3000176c:	01010113          	addi	sp,sp,16
30001770:	00008067          	ret

30001774 <set_flash_mode_dual>:
30001774:	ff010113          	addi	sp,sp,-16
30001778:	00112623          	sw	ra,12(sp)
3000177c:	00812423          	sw	s0,8(sp)
30001780:	01010413          	addi	s0,sp,16
30001784:	020007b7          	lui	a5,0x2000
30001788:	0007a703          	lw	a4,0(a5) # 2000000 <_ebss-0x2000000>
3000178c:	ff8107b7          	lui	a5,0xff810
30001790:	fff78793          	addi	a5,a5,-1 # ff80ffff <_etext+0xcf7f62d7>
30001794:	00f776b3          	and	a3,a4,a5
30001798:	020007b7          	lui	a5,0x2000
3000179c:	00400737          	lui	a4,0x400
300017a0:	00e6e733          	or	a4,a3,a4
300017a4:	00e7a023          	sw	a4,0(a5) # 2000000 <_ebss-0x2000000>
300017a8:	00000013          	nop
300017ac:	00c12083          	lw	ra,12(sp)
300017b0:	00812403          	lw	s0,8(sp)
300017b4:	01010113          	addi	sp,sp,16
300017b8:	00008067          	ret

300017bc <set_flash_mode_quad>:
300017bc:	ff010113          	addi	sp,sp,-16
300017c0:	00112623          	sw	ra,12(sp)
300017c4:	00812423          	sw	s0,8(sp)
300017c8:	01010413          	addi	s0,sp,16
300017cc:	020007b7          	lui	a5,0x2000
300017d0:	0007a703          	lw	a4,0(a5) # 2000000 <_ebss-0x2000000>
300017d4:	ff8107b7          	lui	a5,0xff810
300017d8:	fff78793          	addi	a5,a5,-1 # ff80ffff <_etext+0xcf7f62d7>
300017dc:	00f776b3          	and	a3,a4,a5
300017e0:	020007b7          	lui	a5,0x2000
300017e4:	00240737          	lui	a4,0x240
300017e8:	00e6e733          	or	a4,a3,a4
300017ec:	00e7a023          	sw	a4,0(a5) # 2000000 <_ebss-0x2000000>
300017f0:	00000013          	nop
300017f4:	00c12083          	lw	ra,12(sp)
300017f8:	00812403          	lw	s0,8(sp)
300017fc:	01010113          	addi	sp,sp,16
30001800:	00008067          	ret

30001804 <set_flash_mode_qddr>:
30001804:	ff010113          	addi	sp,sp,-16
30001808:	00112623          	sw	ra,12(sp)
3000180c:	00812423          	sw	s0,8(sp)
30001810:	01010413          	addi	s0,sp,16
30001814:	020007b7          	lui	a5,0x2000
30001818:	0007a703          	lw	a4,0(a5) # 2000000 <_ebss-0x2000000>
3000181c:	ff8107b7          	lui	a5,0xff810
30001820:	fff78793          	addi	a5,a5,-1 # ff80ffff <_etext+0xcf7f62d7>
30001824:	00f776b3          	and	a3,a4,a5
30001828:	020007b7          	lui	a5,0x2000
3000182c:	00670737          	lui	a4,0x670
30001830:	00e6e733          	or	a4,a3,a4
30001834:	00e7a023          	sw	a4,0(a5) # 2000000 <_ebss-0x2000000>
30001838:	00000013          	nop
3000183c:	00c12083          	lw	ra,12(sp)
30001840:	00812403          	lw	s0,8(sp)
30001844:	01010113          	addi	sp,sp,16
30001848:	00008067          	ret

3000184c <enable_flash_crm>:
3000184c:	ff010113          	addi	sp,sp,-16
30001850:	00112623          	sw	ra,12(sp)
30001854:	00812423          	sw	s0,8(sp)
30001858:	01010413          	addi	s0,sp,16
3000185c:	020007b7          	lui	a5,0x2000
30001860:	0007a683          	lw	a3,0(a5) # 2000000 <_ebss-0x2000000>
30001864:	020007b7          	lui	a5,0x2000
30001868:	00100737          	lui	a4,0x100
3000186c:	00e6e733          	or	a4,a3,a4
30001870:	00e7a023          	sw	a4,0(a5) # 2000000 <_ebss-0x2000000>
30001874:	00000013          	nop
30001878:	00c12083          	lw	ra,12(sp)
3000187c:	00812403          	lw	s0,8(sp)
30001880:	01010113          	addi	sp,sp,16
30001884:	00008067          	ret

30001888 <cmd_read_flash_id>:
30001888:	fd010113          	addi	sp,sp,-48
3000188c:	02112623          	sw	ra,44(sp)
30001890:	02812423          	sw	s0,40(sp)
30001894:	03010413          	addi	s0,sp,48
30001898:	09f00793          	li	a5,159
3000189c:	fcf42c23          	sw	a5,-40(s0)
300018a0:	fc042e23          	sw	zero,-36(s0)
300018a4:	fe042023          	sw	zero,-32(s0)
300018a8:	fe042223          	sw	zero,-28(s0)
300018ac:	fe040423          	sb	zero,-24(s0)
300018b0:	fd840793          	addi	a5,s0,-40
300018b4:	00000613          	li	a2,0
300018b8:	01100593          	li	a1,17
300018bc:	00078513          	mv	a0,a5
300018c0:	c8dff0ef          	jal	3000154c <flashio>
300018c4:	00100793          	li	a5,1
300018c8:	fef42623          	sw	a5,-20(s0)
300018cc:	0300006f          	j	300018fc <cmd_read_flash_id+0x74>
300018d0:	fec42783          	lw	a5,-20(s0)
300018d4:	ff078793          	addi	a5,a5,-16
300018d8:	008787b3          	add	a5,a5,s0
300018dc:	fe87c783          	lbu	a5,-24(a5)
300018e0:	00078593          	mv	a1,a5
300018e4:	300097b7          	lui	a5,0x30009
300018e8:	86078513          	addi	a0,a5,-1952 # 30008860 <main+0x208>
300018ec:	a65ff0ef          	jal	30001350 <printf>
300018f0:	fec42783          	lw	a5,-20(s0)
300018f4:	00178793          	addi	a5,a5,1
300018f8:	fef42623          	sw	a5,-20(s0)
300018fc:	fec42703          	lw	a4,-20(s0)
30001900:	01000793          	li	a5,16
30001904:	fce7d6e3          	bge	a5,a4,300018d0 <cmd_read_flash_id+0x48>
30001908:	300097b7          	lui	a5,0x30009
3000190c:	86478513          	addi	a0,a5,-1948 # 30008864 <main+0x20c>
30001910:	a41ff0ef          	jal	30001350 <printf>
30001914:	00000013          	nop
30001918:	02c12083          	lw	ra,44(sp)
3000191c:	02812403          	lw	s0,40(sp)
30001920:	03010113          	addi	sp,sp,48
30001924:	00008067          	ret

30001928 <cmd_read_flash_reg>:
30001928:	fd010113          	addi	sp,sp,-48
3000192c:	02112623          	sw	ra,44(sp)
30001930:	02812423          	sw	s0,40(sp)
30001934:	03010413          	addi	s0,sp,48
30001938:	00050793          	mv	a5,a0
3000193c:	fcf40fa3          	sb	a5,-33(s0)
30001940:	fdf44783          	lbu	a5,-33(s0)
30001944:	fef40623          	sb	a5,-20(s0)
30001948:	fe0406a3          	sb	zero,-19(s0)
3000194c:	fec40793          	addi	a5,s0,-20
30001950:	00000613          	li	a2,0
30001954:	00200593          	li	a1,2
30001958:	00078513          	mv	a0,a5
3000195c:	bf1ff0ef          	jal	3000154c <flashio>
30001960:	fed44783          	lbu	a5,-19(s0)
30001964:	00078513          	mv	a0,a5
30001968:	02c12083          	lw	ra,44(sp)
3000196c:	02812403          	lw	s0,40(sp)
30001970:	03010113          	addi	sp,sp,48
30001974:	00008067          	ret

30001978 <cmd_print_spi_state>:
30001978:	ff010113          	addi	sp,sp,-16
3000197c:	00112623          	sw	ra,12(sp)
30001980:	00812423          	sw	s0,8(sp)
30001984:	01010413          	addi	s0,sp,16
30001988:	020007b7          	lui	a5,0x2000
3000198c:	0007a783          	lw	a5,0(a5) # 2000000 <_ebss-0x2000000>
30001990:	0107d793          	srli	a5,a5,0x10
30001994:	00f7f793          	andi	a5,a5,15
30001998:	00078593          	mv	a1,a5
3000199c:	300097b7          	lui	a5,0x30009
300019a0:	86878513          	addi	a0,a5,-1944 # 30008868 <main+0x210>
300019a4:	9adff0ef          	jal	30001350 <printf>
300019a8:	300097b7          	lui	a5,0x30009
300019ac:	88078513          	addi	a0,a5,-1920 # 30008880 <main+0x228>
300019b0:	9a1ff0ef          	jal	30001350 <printf>
300019b4:	020007b7          	lui	a5,0x2000
300019b8:	0007a703          	lw	a4,0(a5) # 2000000 <_ebss-0x2000000>
300019bc:	004007b7          	lui	a5,0x400
300019c0:	00f777b3          	and	a5,a4,a5
300019c4:	00078a63          	beqz	a5,300019d8 <cmd_print_spi_state+0x60>
300019c8:	300097b7          	lui	a5,0x30009
300019cc:	88878513          	addi	a0,a5,-1912 # 30008888 <main+0x230>
300019d0:	981ff0ef          	jal	30001350 <printf>
300019d4:	0100006f          	j	300019e4 <cmd_print_spi_state+0x6c>
300019d8:	300097b7          	lui	a5,0x30009
300019dc:	88c78513          	addi	a0,a5,-1908 # 3000888c <main+0x234>
300019e0:	971ff0ef          	jal	30001350 <printf>
300019e4:	300097b7          	lui	a5,0x30009
300019e8:	89478513          	addi	a0,a5,-1900 # 30008894 <main+0x23c>
300019ec:	965ff0ef          	jal	30001350 <printf>
300019f0:	020007b7          	lui	a5,0x2000
300019f4:	0007a703          	lw	a4,0(a5) # 2000000 <_ebss-0x2000000>
300019f8:	002007b7          	lui	a5,0x200
300019fc:	00f777b3          	and	a5,a4,a5
30001a00:	00078a63          	beqz	a5,30001a14 <cmd_print_spi_state+0x9c>
30001a04:	300097b7          	lui	a5,0x30009
30001a08:	88878513          	addi	a0,a5,-1912 # 30008888 <main+0x230>
30001a0c:	945ff0ef          	jal	30001350 <printf>
30001a10:	0100006f          	j	30001a20 <cmd_print_spi_state+0xa8>
30001a14:	300097b7          	lui	a5,0x30009
30001a18:	88c78513          	addi	a0,a5,-1908 # 3000888c <main+0x234>
30001a1c:	935ff0ef          	jal	30001350 <printf>
30001a20:	300097b7          	lui	a5,0x30009
30001a24:	89c78513          	addi	a0,a5,-1892 # 3000889c <main+0x244>
30001a28:	929ff0ef          	jal	30001350 <printf>
30001a2c:	020007b7          	lui	a5,0x2000
30001a30:	0007a703          	lw	a4,0(a5) # 2000000 <_ebss-0x2000000>
30001a34:	001007b7          	lui	a5,0x100
30001a38:	00f777b3          	and	a5,a4,a5
30001a3c:	00078a63          	beqz	a5,30001a50 <cmd_print_spi_state+0xd8>
30001a40:	300097b7          	lui	a5,0x30009
30001a44:	88878513          	addi	a0,a5,-1912 # 30008888 <main+0x230>
30001a48:	909ff0ef          	jal	30001350 <printf>
30001a4c:	0100006f          	j	30001a5c <cmd_print_spi_state+0xe4>
30001a50:	300097b7          	lui	a5,0x30009
30001a54:	88c78513          	addi	a0,a5,-1908 # 3000888c <main+0x234>
30001a58:	8f9ff0ef          	jal	30001350 <printf>
30001a5c:	00000013          	nop
30001a60:	00c12083          	lw	ra,12(sp)
30001a64:	00812403          	lw	s0,8(sp)
30001a68:	01010113          	addi	sp,sp,16
30001a6c:	00008067          	ret

30001a70 <cmd_read_flash_regs>:
30001a70:	fe010113          	addi	sp,sp,-32
30001a74:	00112e23          	sw	ra,28(sp)
30001a78:	00812c23          	sw	s0,24(sp)
30001a7c:	02010413          	addi	s0,sp,32
30001a80:	00500513          	li	a0,5
30001a84:	ea5ff0ef          	jal	30001928 <cmd_read_flash_reg>
30001a88:	00050793          	mv	a5,a0
30001a8c:	fef407a3          	sb	a5,-17(s0)
30001a90:	03500513          	li	a0,53
30001a94:	e95ff0ef          	jal	30001928 <cmd_read_flash_reg>
30001a98:	00050793          	mv	a5,a0
30001a9c:	fef40723          	sb	a5,-18(s0)
30001aa0:	01500513          	li	a0,21
30001aa4:	e85ff0ef          	jal	30001928 <cmd_read_flash_reg>
30001aa8:	00050793          	mv	a5,a0
30001aac:	fef406a3          	sb	a5,-19(s0)
30001ab0:	fef44783          	lbu	a5,-17(s0)
30001ab4:	0017f793          	andi	a5,a5,1
30001ab8:	00078593          	mv	a1,a5
30001abc:	300097b7          	lui	a5,0x30009
30001ac0:	8a478513          	addi	a0,a5,-1884 # 300088a4 <main+0x24c>
30001ac4:	88dff0ef          	jal	30001350 <printf>
30001ac8:	fef44783          	lbu	a5,-17(s0)
30001acc:	0027f793          	andi	a5,a5,2
30001ad0:	00078593          	mv	a1,a5
30001ad4:	300097b7          	lui	a5,0x30009
30001ad8:	8b478513          	addi	a0,a5,-1868 # 300088b4 <main+0x25c>
30001adc:	875ff0ef          	jal	30001350 <printf>
30001ae0:	fef44783          	lbu	a5,-17(s0)
30001ae4:	0047f793          	andi	a5,a5,4
30001ae8:	00078593          	mv	a1,a5
30001aec:	300097b7          	lui	a5,0x30009
30001af0:	8c478513          	addi	a0,a5,-1852 # 300088c4 <main+0x26c>
30001af4:	85dff0ef          	jal	30001350 <printf>
30001af8:	fef44783          	lbu	a5,-17(s0)
30001afc:	0087f793          	andi	a5,a5,8
30001b00:	00078593          	mv	a1,a5
30001b04:	300097b7          	lui	a5,0x30009
30001b08:	8d478513          	addi	a0,a5,-1836 # 300088d4 <main+0x27c>
30001b0c:	845ff0ef          	jal	30001350 <printf>
30001b10:	fef44783          	lbu	a5,-17(s0)
30001b14:	0107f793          	andi	a5,a5,16
30001b18:	00078593          	mv	a1,a5
30001b1c:	300097b7          	lui	a5,0x30009
30001b20:	8e478513          	addi	a0,a5,-1820 # 300088e4 <main+0x28c>
30001b24:	82dff0ef          	jal	30001350 <printf>
30001b28:	fef44783          	lbu	a5,-17(s0)
30001b2c:	0207f793          	andi	a5,a5,32
30001b30:	00078593          	mv	a1,a5
30001b34:	300097b7          	lui	a5,0x30009
30001b38:	8f478513          	addi	a0,a5,-1804 # 300088f4 <main+0x29c>
30001b3c:	815ff0ef          	jal	30001350 <printf>
30001b40:	fef44783          	lbu	a5,-17(s0)
30001b44:	0407f793          	andi	a5,a5,64
30001b48:	00078593          	mv	a1,a5
30001b4c:	300097b7          	lui	a5,0x30009
30001b50:	90478513          	addi	a0,a5,-1788 # 30008904 <main+0x2ac>
30001b54:	ffcff0ef          	jal	30001350 <printf>
30001b58:	fef44783          	lbu	a5,-17(s0)
30001b5c:	0807f793          	andi	a5,a5,128
30001b60:	00078593          	mv	a1,a5
30001b64:	300097b7          	lui	a5,0x30009
30001b68:	91478513          	addi	a0,a5,-1772 # 30008914 <main+0x2bc>
30001b6c:	fe4ff0ef          	jal	30001350 <printf>
30001b70:	fee44783          	lbu	a5,-18(s0)
30001b74:	0017f793          	andi	a5,a5,1
30001b78:	00078593          	mv	a1,a5
30001b7c:	300097b7          	lui	a5,0x30009
30001b80:	92878513          	addi	a0,a5,-1752 # 30008928 <main+0x2d0>
30001b84:	fccff0ef          	jal	30001350 <printf>
30001b88:	fee44783          	lbu	a5,-18(s0)
30001b8c:	0027f793          	andi	a5,a5,2
30001b90:	00078593          	mv	a1,a5
30001b94:	300097b7          	lui	a5,0x30009
30001b98:	93878513          	addi	a0,a5,-1736 # 30008938 <main+0x2e0>
30001b9c:	fb4ff0ef          	jal	30001350 <printf>
30001ba0:	fee44783          	lbu	a5,-18(s0)
30001ba4:	0047f793          	andi	a5,a5,4
30001ba8:	00078593          	mv	a1,a5
30001bac:	300097b7          	lui	a5,0x30009
30001bb0:	94878513          	addi	a0,a5,-1720 # 30008948 <main+0x2f0>
30001bb4:	f9cff0ef          	jal	30001350 <printf>
30001bb8:	fee44783          	lbu	a5,-18(s0)
30001bbc:	0087f793          	andi	a5,a5,8
30001bc0:	00078593          	mv	a1,a5
30001bc4:	300097b7          	lui	a5,0x30009
30001bc8:	95878513          	addi	a0,a5,-1704 # 30008958 <main+0x300>
30001bcc:	f84ff0ef          	jal	30001350 <printf>
30001bd0:	fee44783          	lbu	a5,-18(s0)
30001bd4:	0107f793          	andi	a5,a5,16
30001bd8:	00078593          	mv	a1,a5
30001bdc:	300097b7          	lui	a5,0x30009
30001be0:	96878513          	addi	a0,a5,-1688 # 30008968 <main+0x310>
30001be4:	f6cff0ef          	jal	30001350 <printf>
30001be8:	fee44783          	lbu	a5,-18(s0)
30001bec:	0207f793          	andi	a5,a5,32
30001bf0:	00078593          	mv	a1,a5
30001bf4:	300097b7          	lui	a5,0x30009
30001bf8:	97878513          	addi	a0,a5,-1672 # 30008978 <main+0x320>
30001bfc:	f54ff0ef          	jal	30001350 <printf>
30001c00:	fee44783          	lbu	a5,-18(s0)
30001c04:	0407f793          	andi	a5,a5,64
30001c08:	00078593          	mv	a1,a5
30001c0c:	300097b7          	lui	a5,0x30009
30001c10:	98878513          	addi	a0,a5,-1656 # 30008988 <main+0x330>
30001c14:	f3cff0ef          	jal	30001350 <printf>
30001c18:	fee44783          	lbu	a5,-18(s0)
30001c1c:	0807f793          	andi	a5,a5,128
30001c20:	00078593          	mv	a1,a5
30001c24:	300097b7          	lui	a5,0x30009
30001c28:	99878513          	addi	a0,a5,-1640 # 30008998 <main+0x340>
30001c2c:	f24ff0ef          	jal	30001350 <printf>
30001c30:	fed44783          	lbu	a5,-19(s0)
30001c34:	0017f793          	andi	a5,a5,1
30001c38:	00078593          	mv	a1,a5
30001c3c:	300097b7          	lui	a5,0x30009
30001c40:	9ac78513          	addi	a0,a5,-1620 # 300089ac <main+0x354>
30001c44:	f0cff0ef          	jal	30001350 <printf>
30001c48:	fed44783          	lbu	a5,-19(s0)
30001c4c:	0027f793          	andi	a5,a5,2
30001c50:	00078593          	mv	a1,a5
30001c54:	300097b7          	lui	a5,0x30009
30001c58:	9bc78513          	addi	a0,a5,-1604 # 300089bc <main+0x364>
30001c5c:	ef4ff0ef          	jal	30001350 <printf>
30001c60:	fed44783          	lbu	a5,-19(s0)
30001c64:	0047f793          	andi	a5,a5,4
30001c68:	00078593          	mv	a1,a5
30001c6c:	300097b7          	lui	a5,0x30009
30001c70:	9cc78513          	addi	a0,a5,-1588 # 300089cc <main+0x374>
30001c74:	edcff0ef          	jal	30001350 <printf>
30001c78:	fed44783          	lbu	a5,-19(s0)
30001c7c:	0087f793          	andi	a5,a5,8
30001c80:	00078593          	mv	a1,a5
30001c84:	300097b7          	lui	a5,0x30009
30001c88:	9dc78513          	addi	a0,a5,-1572 # 300089dc <main+0x384>
30001c8c:	ec4ff0ef          	jal	30001350 <printf>
30001c90:	fed44783          	lbu	a5,-19(s0)
30001c94:	0107f793          	andi	a5,a5,16
30001c98:	00078593          	mv	a1,a5
30001c9c:	300097b7          	lui	a5,0x30009
30001ca0:	9ec78513          	addi	a0,a5,-1556 # 300089ec <main+0x394>
30001ca4:	eacff0ef          	jal	30001350 <printf>
30001ca8:	fed44783          	lbu	a5,-19(s0)
30001cac:	0207f793          	andi	a5,a5,32
30001cb0:	00078593          	mv	a1,a5
30001cb4:	300097b7          	lui	a5,0x30009
30001cb8:	9fc78513          	addi	a0,a5,-1540 # 300089fc <main+0x3a4>
30001cbc:	e94ff0ef          	jal	30001350 <printf>
30001cc0:	fed44783          	lbu	a5,-19(s0)
30001cc4:	0407f793          	andi	a5,a5,64
30001cc8:	00078593          	mv	a1,a5
30001ccc:	300097b7          	lui	a5,0x30009
30001cd0:	a0c78513          	addi	a0,a5,-1524 # 30008a0c <main+0x3b4>
30001cd4:	e7cff0ef          	jal	30001350 <printf>
30001cd8:	fed44783          	lbu	a5,-19(s0)
30001cdc:	0807f793          	andi	a5,a5,128
30001ce0:	00078593          	mv	a1,a5
30001ce4:	300097b7          	lui	a5,0x30009
30001ce8:	a1c78513          	addi	a0,a5,-1508 # 30008a1c <main+0x3c4>
30001cec:	e64ff0ef          	jal	30001350 <printf>
30001cf0:	00000013          	nop
30001cf4:	01c12083          	lw	ra,28(sp)
30001cf8:	01812403          	lw	s0,24(sp)
30001cfc:	02010113          	addi	sp,sp,32
30001d00:	00008067          	ret

30001d04 <ip_gpio_test>:
30001d04:	fe010113          	addi	sp,sp,-32
30001d08:	00112e23          	sw	ra,28(sp)
30001d0c:	00812c23          	sw	s0,24(sp)
30001d10:	02010413          	addi	s0,sp,32
30001d14:	300097b7          	lui	a5,0x30009
30001d18:	a3078513          	addi	a0,a5,-1488 # 30008a30 <main+0x3d8>
30001d1c:	e34ff0ef          	jal	30001350 <printf>
30001d20:	030007b7          	lui	a5,0x3000
30001d24:	00478793          	addi	a5,a5,4 # 3000004 <_ebss-0xfffffc>
30001d28:	0007a783          	lw	a5,0(a5)
30001d2c:	00078593          	mv	a1,a5
30001d30:	300097b7          	lui	a5,0x30009
30001d34:	a4078513          	addi	a0,a5,-1472 # 30008a40 <main+0x3e8>
30001d38:	e18ff0ef          	jal	30001350 <printf>
30001d3c:	030007b7          	lui	a5,0x3000
30001d40:	00478793          	addi	a5,a5,4 # 3000004 <_ebss-0xfffffc>
30001d44:	0007a023          	sw	zero,0(a5)
30001d48:	030007b7          	lui	a5,0x3000
30001d4c:	00478793          	addi	a5,a5,4 # 3000004 <_ebss-0xfffffc>
30001d50:	0007a783          	lw	a5,0(a5)
30001d54:	00078593          	mv	a1,a5
30001d58:	300097b7          	lui	a5,0x30009
30001d5c:	a4078513          	addi	a0,a5,-1472 # 30008a40 <main+0x3e8>
30001d60:	df0ff0ef          	jal	30001350 <printf>
30001d64:	030007b7          	lui	a5,0x3000
30001d68:	0007a783          	lw	a5,0(a5) # 3000000 <_ebss-0x1000000>
30001d6c:	00078593          	mv	a1,a5
30001d70:	300097b7          	lui	a5,0x30009
30001d74:	a5078513          	addi	a0,a5,-1456 # 30008a50 <main+0x3f8>
30001d78:	dd8ff0ef          	jal	30001350 <printf>
30001d7c:	030007b7          	lui	a5,0x3000
30001d80:	00010737          	lui	a4,0x10
30001d84:	fff70713          	addi	a4,a4,-1 # ffff <_ebss-0x3ff0001>
30001d88:	00e7a023          	sw	a4,0(a5) # 3000000 <_ebss-0x1000000>
30001d8c:	030007b7          	lui	a5,0x3000
30001d90:	0007a783          	lw	a5,0(a5) # 3000000 <_ebss-0x1000000>
30001d94:	00078593          	mv	a1,a5
30001d98:	300097b7          	lui	a5,0x30009
30001d9c:	a5078513          	addi	a0,a5,-1456 # 30008a50 <main+0x3f8>
30001da0:	db0ff0ef          	jal	30001350 <printf>
30001da4:	030007b7          	lui	a5,0x3000
30001da8:	0007a023          	sw	zero,0(a5) # 3000000 <_ebss-0x1000000>
30001dac:	030007b7          	lui	a5,0x3000
30001db0:	0007a783          	lw	a5,0(a5) # 3000000 <_ebss-0x1000000>
30001db4:	00078593          	mv	a1,a5
30001db8:	300097b7          	lui	a5,0x30009
30001dbc:	a5078513          	addi	a0,a5,-1456 # 30008a50 <main+0x3f8>
30001dc0:	d90ff0ef          	jal	30001350 <printf>
30001dc4:	300097b7          	lui	a5,0x30009
30001dc8:	a6078513          	addi	a0,a5,-1440 # 30008a60 <main+0x408>
30001dcc:	d84ff0ef          	jal	30001350 <printf>
30001dd0:	fe042623          	sw	zero,-20(s0)
30001dd4:	03c0006f          	j	30001e10 <ip_gpio_test+0x10c>
30001dd8:	12c00513          	li	a0,300
30001ddc:	22c000ef          	jal	30002008 <delay_ms>
30001de0:	030007b7          	lui	a5,0x3000
30001de4:	0007a783          	lw	a5,0(a5) # 3000000 <_ebss-0x1000000>
30001de8:	00079a63          	bnez	a5,30001dfc <ip_gpio_test+0xf8>
30001dec:	030007b7          	lui	a5,0x3000
30001df0:	00100713          	li	a4,1
30001df4:	00e7a023          	sw	a4,0(a5) # 3000000 <_ebss-0x1000000>
30001df8:	00c0006f          	j	30001e04 <ip_gpio_test+0x100>
30001dfc:	030007b7          	lui	a5,0x3000
30001e00:	0007a023          	sw	zero,0(a5) # 3000000 <_ebss-0x1000000>
30001e04:	fec42783          	lw	a5,-20(s0)
30001e08:	00178793          	addi	a5,a5,1
30001e0c:	fef42623          	sw	a5,-20(s0)
30001e10:	fec42703          	lw	a4,-20(s0)
30001e14:	03100793          	li	a5,49
30001e18:	fce7d0e3          	bge	a5,a4,30001dd8 <ip_gpio_test+0xd4>
30001e1c:	030007b7          	lui	a5,0x3000
30001e20:	0007a023          	sw	zero,0(a5) # 3000000 <_ebss-0x1000000>
30001e24:	300097b7          	lui	a5,0x30009
30001e28:	a7478513          	addi	a0,a5,-1420 # 30008a74 <main+0x41c>
30001e2c:	d24ff0ef          	jal	30001350 <printf>
30001e30:	030007b7          	lui	a5,0x3000
30001e34:	00478793          	addi	a5,a5,4 # 3000004 <_ebss-0xfffffc>
30001e38:	00200713          	li	a4,2
30001e3c:	00e7a023          	sw	a4,0(a5)
30001e40:	030007b7          	lui	a5,0x3000
30001e44:	00478793          	addi	a5,a5,4 # 3000004 <_ebss-0xfffffc>
30001e48:	0007a783          	lw	a5,0(a5)
30001e4c:	00078593          	mv	a1,a5
30001e50:	300097b7          	lui	a5,0x30009
30001e54:	a4078513          	addi	a0,a5,-1472 # 30008a40 <main+0x3e8>
30001e58:	cf8ff0ef          	jal	30001350 <printf>
30001e5c:	030007b7          	lui	a5,0x3000
30001e60:	0007a783          	lw	a5,0(a5) # 3000000 <_ebss-0x1000000>
30001e64:	00078593          	mv	a1,a5
30001e68:	300097b7          	lui	a5,0x30009
30001e6c:	a5078513          	addi	a0,a5,-1456 # 30008a50 <main+0x3f8>
30001e70:	ce0ff0ef          	jal	30001350 <printf>
30001e74:	fe042423          	sw	zero,-24(s0)
30001e78:	0780006f          	j	30001ef0 <ip_gpio_test+0x1ec>
30001e7c:	fe042223          	sw	zero,-28(s0)
30001e80:	030007b7          	lui	a5,0x3000
30001e84:	0007a783          	lw	a5,0(a5) # 3000000 <_ebss-0x1000000>
30001e88:	0027f793          	andi	a5,a5,2
30001e8c:	04079c63          	bnez	a5,30001ee4 <ip_gpio_test+0x1e0>
30001e90:	06400513          	li	a0,100
30001e94:	174000ef          	jal	30002008 <delay_ms>
30001e98:	030007b7          	lui	a5,0x3000
30001e9c:	0007a783          	lw	a5,0(a5) # 3000000 <_ebss-0x1000000>
30001ea0:	0027f793          	andi	a5,a5,2
30001ea4:	04079063          	bnez	a5,30001ee4 <ip_gpio_test+0x1e0>
30001ea8:	300097b7          	lui	a5,0x30009
30001eac:	a8478513          	addi	a0,a5,-1404 # 30008a84 <main+0x42c>
30001eb0:	ca0ff0ef          	jal	30001350 <printf>
30001eb4:	fe442783          	lw	a5,-28(s0)
30001eb8:	00079e63          	bnez	a5,30001ed4 <ip_gpio_test+0x1d0>
30001ebc:	00100793          	li	a5,1
30001ec0:	fef42223          	sw	a5,-28(s0)
30001ec4:	030007b7          	lui	a5,0x3000
30001ec8:	fe442703          	lw	a4,-28(s0)
30001ecc:	00e7a023          	sw	a4,0(a5) # 3000000 <_ebss-0x1000000>
30001ed0:	0140006f          	j	30001ee4 <ip_gpio_test+0x1e0>
30001ed4:	fe042223          	sw	zero,-28(s0)
30001ed8:	030007b7          	lui	a5,0x3000
30001edc:	fe442703          	lw	a4,-28(s0)
30001ee0:	00e7a023          	sw	a4,0(a5) # 3000000 <_ebss-0x1000000>
30001ee4:	fe842783          	lw	a5,-24(s0)
30001ee8:	00178793          	addi	a5,a5,1
30001eec:	fef42423          	sw	a5,-24(s0)
30001ef0:	fe842703          	lw	a4,-24(s0)
30001ef4:	03b00793          	li	a5,59
30001ef8:	f8e7d2e3          	bge	a5,a4,30001e7c <ip_gpio_test+0x178>
30001efc:	00000013          	nop
30001f00:	00000013          	nop
30001f04:	01c12083          	lw	ra,28(sp)
30001f08:	01812403          	lw	s0,24(sp)
30001f0c:	02010113          	addi	sp,sp,32
30001f10:	00008067          	ret

30001f14 <ip_hk_spi_test>:
30001f14:	ff010113          	addi	sp,sp,-16
30001f18:	00112623          	sw	ra,12(sp)
30001f1c:	00812423          	sw	s0,8(sp)
30001f20:	01010413          	addi	s0,sp,16
30001f24:	300097b7          	lui	a5,0x30009
30001f28:	a9078513          	addi	a0,a5,-1392 # 30008a90 <main+0x438>
30001f2c:	c24ff0ef          	jal	30001350 <printf>
30001f30:	030007b7          	lui	a5,0x3000
30001f34:	01878793          	addi	a5,a5,24 # 3000018 <_ebss-0xffffe8>
30001f38:	0007a783          	lw	a5,0(a5)
30001f3c:	00078593          	mv	a1,a5
30001f40:	300097b7          	lui	a5,0x30009
30001f44:	aac78513          	addi	a0,a5,-1364 # 30008aac <main+0x454>
30001f48:	c08ff0ef          	jal	30001350 <printf>
30001f4c:	030007b7          	lui	a5,0x3000
30001f50:	01c78793          	addi	a5,a5,28 # 300001c <_ebss-0xffffe4>
30001f54:	0007a783          	lw	a5,0(a5)
30001f58:	00078593          	mv	a1,a5
30001f5c:	300097b7          	lui	a5,0x30009
30001f60:	ac078513          	addi	a0,a5,-1344 # 30008ac0 <main+0x468>
30001f64:	becff0ef          	jal	30001350 <printf>
30001f68:	030007b7          	lui	a5,0x3000
30001f6c:	02078793          	addi	a5,a5,32 # 3000020 <_ebss-0xffffe0>
30001f70:	0007a783          	lw	a5,0(a5)
30001f74:	00078593          	mv	a1,a5
30001f78:	300097b7          	lui	a5,0x30009
30001f7c:	ad478513          	addi	a0,a5,-1324 # 30008ad4 <main+0x47c>
30001f80:	bd0ff0ef          	jal	30001350 <printf>
30001f84:	030007b7          	lui	a5,0x3000
30001f88:	02478793          	addi	a5,a5,36 # 3000024 <_ebss-0xffffdc>
30001f8c:	0007a783          	lw	a5,0(a5)
30001f90:	00078593          	mv	a1,a5
30001f94:	300097b7          	lui	a5,0x30009
30001f98:	ae878513          	addi	a0,a5,-1304 # 30008ae8 <main+0x490>
30001f9c:	bb4ff0ef          	jal	30001350 <printf>
30001fa0:	030007b7          	lui	a5,0x3000
30001fa4:	02878793          	addi	a5,a5,40 # 3000028 <_ebss-0xffffd8>
30001fa8:	0007a783          	lw	a5,0(a5)
30001fac:	00078593          	mv	a1,a5
30001fb0:	300097b7          	lui	a5,0x30009
30001fb4:	afc78513          	addi	a0,a5,-1284 # 30008afc <main+0x4a4>
30001fb8:	b98ff0ef          	jal	30001350 <printf>
30001fbc:	030007b7          	lui	a5,0x3000
30001fc0:	02c78793          	addi	a5,a5,44 # 300002c <_ebss-0xffffd4>
30001fc4:	0007a783          	lw	a5,0(a5)
30001fc8:	00078593          	mv	a1,a5
30001fcc:	300097b7          	lui	a5,0x30009
30001fd0:	b1078513          	addi	a0,a5,-1264 # 30008b10 <main+0x4b8>
30001fd4:	b7cff0ef          	jal	30001350 <printf>
30001fd8:	030007b7          	lui	a5,0x3000
30001fdc:	03078793          	addi	a5,a5,48 # 3000030 <_ebss-0xffffd0>
30001fe0:	0007a783          	lw	a5,0(a5)
30001fe4:	00078593          	mv	a1,a5
30001fe8:	300097b7          	lui	a5,0x30009
30001fec:	b2478513          	addi	a0,a5,-1244 # 30008b24 <main+0x4cc>
30001ff0:	b60ff0ef          	jal	30001350 <printf>
30001ff4:	00000013          	nop
30001ff8:	00c12083          	lw	ra,12(sp)
30001ffc:	00812403          	lw	s0,8(sp)
30002000:	01010113          	addi	sp,sp,16
30002004:	00008067          	ret

30002008 <delay_ms>:
30002008:	fd010113          	addi	sp,sp,-48
3000200c:	02112623          	sw	ra,44(sp)
30002010:	02812423          	sw	s0,40(sp)
30002014:	03010413          	addi	s0,sp,48
30002018:	fca42e23          	sw	a0,-36(s0)
3000201c:	030007b7          	lui	a5,0x3000
30002020:	05c78793          	addi	a5,a5,92 # 300005c <_ebss-0xffffa4>
30002024:	0007a023          	sw	zero,0(a5)
30002028:	030007b7          	lui	a5,0x3000
3000202c:	06478793          	addi	a5,a5,100 # 3000064 <_ebss-0xffff9c>
30002030:	00012737          	lui	a4,0x12
30002034:	93f70713          	addi	a4,a4,-1729 # 1193f <_ebss-0x3fee6c1>
30002038:	00e7a023          	sw	a4,0(a5)
3000203c:	00100793          	li	a5,1
30002040:	fef42623          	sw	a5,-20(s0)
30002044:	0400006f          	j	30002084 <delay_ms+0x7c>
30002048:	030007b7          	lui	a5,0x3000
3000204c:	05c78793          	addi	a5,a5,92 # 300005c <_ebss-0xffffa4>
30002050:	00100713          	li	a4,1
30002054:	00e7a023          	sw	a4,0(a5)
30002058:	00000013          	nop
3000205c:	030007b7          	lui	a5,0x3000
30002060:	06478793          	addi	a5,a5,100 # 3000064 <_ebss-0xffff9c>
30002064:	0007a783          	lw	a5,0(a5)
30002068:	fe078ae3          	beqz	a5,3000205c <delay_ms+0x54>
3000206c:	030007b7          	lui	a5,0x3000
30002070:	05c78793          	addi	a5,a5,92 # 300005c <_ebss-0xffffa4>
30002074:	0007a023          	sw	zero,0(a5)
30002078:	fec42783          	lw	a5,-20(s0)
3000207c:	00178793          	addi	a5,a5,1
30002080:	fef42623          	sw	a5,-20(s0)
30002084:	fec42783          	lw	a5,-20(s0)
30002088:	fdc42703          	lw	a4,-36(s0)
3000208c:	faf77ee3          	bgeu	a4,a5,30002048 <delay_ms+0x40>
30002090:	00000013          	nop
30002094:	00000013          	nop
30002098:	02c12083          	lw	ra,44(sp)
3000209c:	02812403          	lw	s0,40(sp)
300020a0:	03010113          	addi	sp,sp,48
300020a4:	00008067          	ret

300020a8 <ip_tim_test>:
300020a8:	fe010113          	addi	sp,sp,-32
300020ac:	00112e23          	sw	ra,28(sp)
300020b0:	00812c23          	sw	s0,24(sp)
300020b4:	02010413          	addi	s0,sp,32
300020b8:	300097b7          	lui	a5,0x30009
300020bc:	b3878513          	addi	a0,a5,-1224 # 30008b38 <main+0x4e0>
300020c0:	a90ff0ef          	jal	30001350 <printf>
300020c4:	030007b7          	lui	a5,0x3000
300020c8:	06078793          	addi	a5,a5,96 # 3000060 <_ebss-0xffffa0>
300020cc:	0007a783          	lw	a5,0(a5)
300020d0:	00078593          	mv	a1,a5
300020d4:	300097b7          	lui	a5,0x30009
300020d8:	b5478513          	addi	a0,a5,-1196 # 30008b54 <main+0x4fc>
300020dc:	a74ff0ef          	jal	30001350 <printf>
300020e0:	030007b7          	lui	a5,0x3000
300020e4:	05c78793          	addi	a5,a5,92 # 300005c <_ebss-0xffffa4>
300020e8:	0007a783          	lw	a5,0(a5)
300020ec:	00078593          	mv	a1,a5
300020f0:	300097b7          	lui	a5,0x30009
300020f4:	b6878513          	addi	a0,a5,-1176 # 30008b68 <main+0x510>
300020f8:	a58ff0ef          	jal	30001350 <printf>
300020fc:	030007b7          	lui	a5,0x3000
30002100:	06c78793          	addi	a5,a5,108 # 300006c <_ebss-0xffff94>
30002104:	0007a783          	lw	a5,0(a5)
30002108:	00078593          	mv	a1,a5
3000210c:	300097b7          	lui	a5,0x30009
30002110:	b7c78513          	addi	a0,a5,-1156 # 30008b7c <main+0x524>
30002114:	a3cff0ef          	jal	30001350 <printf>
30002118:	030007b7          	lui	a5,0x3000
3000211c:	06878793          	addi	a5,a5,104 # 3000068 <_ebss-0xffff98>
30002120:	0007a783          	lw	a5,0(a5)
30002124:	00078593          	mv	a1,a5
30002128:	300097b7          	lui	a5,0x30009
3000212c:	b9078513          	addi	a0,a5,-1136 # 30008b90 <main+0x538>
30002130:	a20ff0ef          	jal	30001350 <printf>
30002134:	030007b7          	lui	a5,0x3000
30002138:	06078793          	addi	a5,a5,96 # 3000060 <_ebss-0xffffa0>
3000213c:	fff00713          	li	a4,-1
30002140:	00e7a023          	sw	a4,0(a5)
30002144:	030007b7          	lui	a5,0x3000
30002148:	05c78793          	addi	a5,a5,92 # 300005c <_ebss-0xffffa4>
3000214c:	00100713          	li	a4,1
30002150:	00e7a023          	sw	a4,0(a5)
30002154:	030007b7          	lui	a5,0x3000
30002158:	06c78793          	addi	a5,a5,108 # 300006c <_ebss-0xffff94>
3000215c:	01000737          	lui	a4,0x1000
30002160:	fff70713          	addi	a4,a4,-1 # ffffff <_ebss-0x3000001>
30002164:	00e7a023          	sw	a4,0(a5)
30002168:	030007b7          	lui	a5,0x3000
3000216c:	06878793          	addi	a5,a5,104 # 3000068 <_ebss-0xffff98>
30002170:	10100713          	li	a4,257
30002174:	00e7a023          	sw	a4,0(a5)
30002178:	030007b7          	lui	a5,0x3000
3000217c:	06078793          	addi	a5,a5,96 # 3000060 <_ebss-0xffffa0>
30002180:	0007a783          	lw	a5,0(a5)
30002184:	00078593          	mv	a1,a5
30002188:	300097b7          	lui	a5,0x30009
3000218c:	b5478513          	addi	a0,a5,-1196 # 30008b54 <main+0x4fc>
30002190:	9c0ff0ef          	jal	30001350 <printf>
30002194:	030007b7          	lui	a5,0x3000
30002198:	05c78793          	addi	a5,a5,92 # 300005c <_ebss-0xffffa4>
3000219c:	0007a783          	lw	a5,0(a5)
300021a0:	00078593          	mv	a1,a5
300021a4:	300097b7          	lui	a5,0x30009
300021a8:	b6878513          	addi	a0,a5,-1176 # 30008b68 <main+0x510>
300021ac:	9a4ff0ef          	jal	30001350 <printf>
300021b0:	030007b7          	lui	a5,0x3000
300021b4:	06c78793          	addi	a5,a5,108 # 300006c <_ebss-0xffff94>
300021b8:	0007a783          	lw	a5,0(a5)
300021bc:	00078593          	mv	a1,a5
300021c0:	300097b7          	lui	a5,0x30009
300021c4:	b7c78513          	addi	a0,a5,-1156 # 30008b7c <main+0x524>
300021c8:	988ff0ef          	jal	30001350 <printf>
300021cc:	030007b7          	lui	a5,0x3000
300021d0:	06878793          	addi	a5,a5,104 # 3000068 <_ebss-0xffff98>
300021d4:	0007a783          	lw	a5,0(a5)
300021d8:	00078593          	mv	a1,a5
300021dc:	300097b7          	lui	a5,0x30009
300021e0:	b9078513          	addi	a0,a5,-1136 # 30008b90 <main+0x538>
300021e4:	96cff0ef          	jal	30001350 <printf>
300021e8:	fe042623          	sw	zero,-20(s0)
300021ec:	0480006f          	j	30002234 <ip_tim_test+0x18c>
300021f0:	030007b7          	lui	a5,0x3000
300021f4:	06478793          	addi	a5,a5,100 # 3000064 <_ebss-0xffff9c>
300021f8:	0007a783          	lw	a5,0(a5)
300021fc:	00078593          	mv	a1,a5
30002200:	300097b7          	lui	a5,0x30009
30002204:	ba478513          	addi	a0,a5,-1116 # 30008ba4 <main+0x54c>
30002208:	948ff0ef          	jal	30001350 <printf>
3000220c:	030007b7          	lui	a5,0x3000
30002210:	07078793          	addi	a5,a5,112 # 3000070 <_ebss-0xffff90>
30002214:	0007a783          	lw	a5,0(a5)
30002218:	00078593          	mv	a1,a5
3000221c:	300097b7          	lui	a5,0x30009
30002220:	bb478513          	addi	a0,a5,-1100 # 30008bb4 <main+0x55c>
30002224:	92cff0ef          	jal	30001350 <printf>
30002228:	fec42783          	lw	a5,-20(s0)
3000222c:	00178793          	addi	a5,a5,1
30002230:	fef42623          	sw	a5,-20(s0)
30002234:	fec42703          	lw	a4,-20(s0)
30002238:	00900793          	li	a5,9
3000223c:	fae7dae3          	bge	a5,a4,300021f0 <ip_tim_test+0x148>
30002240:	00000013          	nop
30002244:	00000013          	nop
30002248:	01c12083          	lw	ra,28(sp)
3000224c:	01812403          	lw	s0,24(sp)
30002250:	02010113          	addi	sp,sp,32
30002254:	00008067          	ret

30002258 <ip_archinfo_test>:
30002258:	ff010113          	addi	sp,sp,-16
3000225c:	00112623          	sw	ra,12(sp)
30002260:	00812423          	sw	s0,8(sp)
30002264:	01010413          	addi	s0,sp,16
30002268:	300097b7          	lui	a5,0x30009
3000226c:	bc478513          	addi	a0,a5,-1084 # 30008bc4 <main+0x56c>
30002270:	8e0ff0ef          	jal	30001350 <printf>
30002274:	030017b7          	lui	a5,0x3001
30002278:	0007a783          	lw	a5,0(a5) # 3001000 <_ebss-0xfff000>
3000227c:	00078593          	mv	a1,a5
30002280:	300097b7          	lui	a5,0x30009
30002284:	be078513          	addi	a0,a5,-1056 # 30008be0 <main+0x588>
30002288:	8c8ff0ef          	jal	30001350 <printf>
3000228c:	030017b7          	lui	a5,0x3001
30002290:	00478793          	addi	a5,a5,4 # 3001004 <_ebss-0xffeffc>
30002294:	0007a783          	lw	a5,0(a5)
30002298:	00078593          	mv	a1,a5
3000229c:	300097b7          	lui	a5,0x30009
300022a0:	bf478513          	addi	a0,a5,-1036 # 30008bf4 <main+0x59c>
300022a4:	8acff0ef          	jal	30001350 <printf>
300022a8:	030017b7          	lui	a5,0x3001
300022ac:	00878793          	addi	a5,a5,8 # 3001008 <_ebss-0xffeff8>
300022b0:	0007a783          	lw	a5,0(a5)
300022b4:	00078593          	mv	a1,a5
300022b8:	300097b7          	lui	a5,0x30009
300022bc:	c0878513          	addi	a0,a5,-1016 # 30008c08 <main+0x5b0>
300022c0:	890ff0ef          	jal	30001350 <printf>
300022c4:	00000013          	nop
300022c8:	00c12083          	lw	ra,12(sp)
300022cc:	00812403          	lw	s0,8(sp)
300022d0:	01010113          	addi	sp,sp,16
300022d4:	00008067          	ret

300022d8 <ip_rng_test>:
300022d8:	fe010113          	addi	sp,sp,-32
300022dc:	00112e23          	sw	ra,28(sp)
300022e0:	00812c23          	sw	s0,24(sp)
300022e4:	02010413          	addi	s0,sp,32
300022e8:	300097b7          	lui	a5,0x30009
300022ec:	c1c78513          	addi	a0,a5,-996 # 30008c1c <main+0x5c4>
300022f0:	860ff0ef          	jal	30001350 <printf>
300022f4:	030027b7          	lui	a5,0x3002
300022f8:	00100713          	li	a4,1
300022fc:	00e7a023          	sw	a4,0(a5) # 3002000 <_ebss-0xffe000>
30002300:	030027b7          	lui	a5,0x3002
30002304:	00478793          	addi	a5,a5,4 # 3002004 <_ebss-0xffdffc>
30002308:	00010737          	lui	a4,0x10
3000230c:	e1c70713          	addi	a4,a4,-484 # fe1c <_ebss-0x3ff01e4>
30002310:	00e7a023          	sw	a4,0(a5)
30002314:	030027b7          	lui	a5,0x3002
30002318:	00478793          	addi	a5,a5,4 # 3002004 <_ebss-0xffdffc>
3000231c:	0007a783          	lw	a5,0(a5)
30002320:	00078593          	mv	a1,a5
30002324:	300097b7          	lui	a5,0x30009
30002328:	c3078513          	addi	a0,a5,-976 # 30008c30 <main+0x5d8>
3000232c:	824ff0ef          	jal	30001350 <printf>
30002330:	fe042623          	sw	zero,-20(s0)
30002334:	02c0006f          	j	30002360 <ip_rng_test+0x88>
30002338:	030027b7          	lui	a5,0x3002
3000233c:	00878793          	addi	a5,a5,8 # 3002008 <_ebss-0xffdff8>
30002340:	0007a783          	lw	a5,0(a5)
30002344:	00078593          	mv	a1,a5
30002348:	300097b7          	lui	a5,0x30009
3000234c:	c4078513          	addi	a0,a5,-960 # 30008c40 <main+0x5e8>
30002350:	800ff0ef          	jal	30001350 <printf>
30002354:	fec42783          	lw	a5,-20(s0)
30002358:	00178793          	addi	a5,a5,1
3000235c:	fef42623          	sw	a5,-20(s0)
30002360:	fec42703          	lw	a4,-20(s0)
30002364:	00400793          	li	a5,4
30002368:	fce7d8e3          	bge	a5,a4,30002338 <ip_rng_test+0x60>
3000236c:	300097b7          	lui	a5,0x30009
30002370:	c5078513          	addi	a0,a5,-944 # 30008c50 <main+0x5f8>
30002374:	fddfe0ef          	jal	30001350 <printf>
30002378:	030027b7          	lui	a5,0x3002
3000237c:	00478793          	addi	a5,a5,4 # 3002004 <_ebss-0xffdffc>
30002380:	0007a023          	sw	zero,0(a5)
30002384:	fe042423          	sw	zero,-24(s0)
30002388:	02c0006f          	j	300023b4 <ip_rng_test+0xdc>
3000238c:	030027b7          	lui	a5,0x3002
30002390:	00878793          	addi	a5,a5,8 # 3002008 <_ebss-0xffdff8>
30002394:	0007a783          	lw	a5,0(a5)
30002398:	00078593          	mv	a1,a5
3000239c:	300097b7          	lui	a5,0x30009
300023a0:	c4078513          	addi	a0,a5,-960 # 30008c40 <main+0x5e8>
300023a4:	fadfe0ef          	jal	30001350 <printf>
300023a8:	fe842783          	lw	a5,-24(s0)
300023ac:	00178793          	addi	a5,a5,1
300023b0:	fef42423          	sw	a5,-24(s0)
300023b4:	fe842703          	lw	a4,-24(s0)
300023b8:	00400793          	li	a5,4
300023bc:	fce7d8e3          	bge	a5,a4,3000238c <ip_rng_test+0xb4>
300023c0:	00000013          	nop
300023c4:	00000013          	nop
300023c8:	01c12083          	lw	ra,28(sp)
300023cc:	01812403          	lw	s0,24(sp)
300023d0:	02010113          	addi	sp,sp,32
300023d4:	00008067          	ret

300023d8 <ip_hpuart_test>:
300023d8:	fe010113          	addi	sp,sp,-32
300023dc:	00112e23          	sw	ra,28(sp)
300023e0:	00812c23          	sw	s0,24(sp)
300023e4:	02010413          	addi	s0,sp,32
300023e8:	300097b7          	lui	a5,0x30009
300023ec:	c6878513          	addi	a0,a5,-920 # 30008c68 <main+0x610>
300023f0:	f61fe0ef          	jal	30001350 <printf>
300023f4:	030037b7          	lui	a5,0x3003
300023f8:	00478793          	addi	a5,a5,4 # 3003004 <_ebss-0xffcffc>
300023fc:	0007a783          	lw	a5,0(a5)
30002400:	00078593          	mv	a1,a5
30002404:	300097b7          	lui	a5,0x30009
30002408:	c8078513          	addi	a0,a5,-896 # 30008c80 <main+0x628>
3000240c:	f45fe0ef          	jal	30001350 <printf>
30002410:	030037b7          	lui	a5,0x3003
30002414:	0007a783          	lw	a5,0(a5) # 3003000 <_ebss-0xffd000>
30002418:	00078593          	mv	a1,a5
3000241c:	300097b7          	lui	a5,0x30009
30002420:	c9078513          	addi	a0,a5,-880 # 30008c90 <main+0x638>
30002424:	f2dfe0ef          	jal	30001350 <printf>
30002428:	030037b7          	lui	a5,0x3003
3000242c:	00478793          	addi	a5,a5,4 # 3003004 <_ebss-0xffcffc>
30002430:	1b200713          	li	a4,434
30002434:	00e7a023          	sw	a4,0(a5)
30002438:	030037b7          	lui	a5,0x3003
3000243c:	00c78793          	addi	a5,a5,12 # 300300c <_ebss-0xffcff4>
30002440:	00f00713          	li	a4,15
30002444:	00e7a023          	sw	a4,0(a5)
30002448:	030037b7          	lui	a5,0x3003
3000244c:	00c78793          	addi	a5,a5,12 # 300300c <_ebss-0xffcff4>
30002450:	00c00713          	li	a4,12
30002454:	00e7a023          	sw	a4,0(a5)
30002458:	030037b7          	lui	a5,0x3003
3000245c:	01f00713          	li	a4,31
30002460:	00e7a023          	sw	a4,0(a5) # 3003000 <_ebss-0xffd000>
30002464:	030037b7          	lui	a5,0x3003
30002468:	00478793          	addi	a5,a5,4 # 3003004 <_ebss-0xffcffc>
3000246c:	0007a783          	lw	a5,0(a5)
30002470:	00078593          	mv	a1,a5
30002474:	300097b7          	lui	a5,0x30009
30002478:	c8078513          	addi	a0,a5,-896 # 30008c80 <main+0x628>
3000247c:	ed5fe0ef          	jal	30001350 <printf>
30002480:	030037b7          	lui	a5,0x3003
30002484:	0007a783          	lw	a5,0(a5) # 3003000 <_ebss-0xffd000>
30002488:	00078593          	mv	a1,a5
3000248c:	300097b7          	lui	a5,0x30009
30002490:	c9078513          	addi	a0,a5,-880 # 30008c90 <main+0x638>
30002494:	ebdfe0ef          	jal	30001350 <printf>
30002498:	300097b7          	lui	a5,0x30009
3000249c:	ca078513          	addi	a0,a5,-864 # 30008ca0 <main+0x648>
300024a0:	eb1fe0ef          	jal	30001350 <printf>
300024a4:	04100793          	li	a5,65
300024a8:	fef42423          	sw	a5,-24(s0)
300024ac:	fe042623          	sw	zero,-20(s0)
300024b0:	0440006f          	j	300024f4 <ip_hpuart_test+0x11c>
300024b4:	00000013          	nop
300024b8:	030037b7          	lui	a5,0x3003
300024bc:	01078793          	addi	a5,a5,16 # 3003010 <_ebss-0xffcff0>
300024c0:	0007a783          	lw	a5,0(a5)
300024c4:	1007f713          	andi	a4,a5,256
300024c8:	10000793          	li	a5,256
300024cc:	fef706e3          	beq	a4,a5,300024b8 <ip_hpuart_test+0xe0>
300024d0:	fec42683          	lw	a3,-20(s0)
300024d4:	030037b7          	lui	a5,0x3003
300024d8:	00878793          	addi	a5,a5,8 # 3003008 <_ebss-0xffcff8>
300024dc:	fe842703          	lw	a4,-24(s0)
300024e0:	00e68733          	add	a4,a3,a4
300024e4:	00e7a023          	sw	a4,0(a5)
300024e8:	fec42783          	lw	a5,-20(s0)
300024ec:	00178793          	addi	a5,a5,1
300024f0:	fef42623          	sw	a5,-20(s0)
300024f4:	fec42703          	lw	a4,-20(s0)
300024f8:	01d00793          	li	a5,29
300024fc:	fae7dce3          	bge	a5,a4,300024b4 <ip_hpuart_test+0xdc>
30002500:	300097b7          	lui	a5,0x30009
30002504:	cb078513          	addi	a0,a5,-848 # 30008cb0 <main+0x658>
30002508:	e49fe0ef          	jal	30001350 <printf>
3000250c:	300097b7          	lui	a5,0x30009
30002510:	cc478513          	addi	a0,a5,-828 # 30008cc4 <main+0x66c>
30002514:	e3dfe0ef          	jal	30001350 <printf>
30002518:	300097b7          	lui	a5,0x30009
3000251c:	cd478513          	addi	a0,a5,-812 # 30008cd4 <main+0x67c>
30002520:	e31fe0ef          	jal	30001350 <printf>
30002524:	00000013          	nop
30002528:	01c12083          	lw	ra,28(sp)
3000252c:	01812403          	lw	s0,24(sp)
30002530:	02010113          	addi	sp,sp,32
30002534:	00008067          	ret

30002538 <ip_pwm_test>:
30002538:	fe010113          	addi	sp,sp,-32
3000253c:	00112e23          	sw	ra,28(sp)
30002540:	00812c23          	sw	s0,24(sp)
30002544:	02010413          	addi	s0,sp,32
30002548:	300097b7          	lui	a5,0x30009
3000254c:	ce078513          	addi	a0,a5,-800 # 30008ce0 <main+0x688>
30002550:	e01fe0ef          	jal	30001350 <printf>
30002554:	030047b7          	lui	a5,0x3004
30002558:	0007a023          	sw	zero,0(a5) # 3004000 <_ebss-0xffc000>
3000255c:	030047b7          	lui	a5,0x3004
30002560:	00478793          	addi	a5,a5,4 # 3004004 <_ebss-0xffbffc>
30002564:	04700713          	li	a4,71
30002568:	00e7a023          	sw	a4,0(a5)
3000256c:	030047b7          	lui	a5,0x3004
30002570:	00c78793          	addi	a5,a5,12 # 300400c <_ebss-0xffbff4>
30002574:	3e700713          	li	a4,999
30002578:	00e7a023          	sw	a4,0(a5)
3000257c:	030047b7          	lui	a5,0x3004
30002580:	0007a703          	lw	a4,0(a5) # 3004000 <_ebss-0xffc000>
30002584:	030047b7          	lui	a5,0x3004
30002588:	00478793          	addi	a5,a5,4 # 3004004 <_ebss-0xffbffc>
3000258c:	0007a603          	lw	a2,0(a5)
30002590:	030047b7          	lui	a5,0x3004
30002594:	00c78793          	addi	a5,a5,12 # 300400c <_ebss-0xffbff4>
30002598:	0007a783          	lw	a5,0(a5)
3000259c:	00078693          	mv	a3,a5
300025a0:	00070593          	mv	a1,a4
300025a4:	300097b7          	lui	a5,0x30009
300025a8:	cec78513          	addi	a0,a5,-788 # 30008cec <main+0x694>
300025ac:	da5fe0ef          	jal	30001350 <printf>
300025b0:	fe042623          	sw	zero,-20(s0)
300025b4:	0f00006f          	j	300026a4 <ip_pwm_test+0x16c>
300025b8:	fec42783          	lw	a5,-20(s0)
300025bc:	00178793          	addi	a5,a5,1
300025c0:	00078593          	mv	a1,a5
300025c4:	300097b7          	lui	a5,0x30009
300025c8:	d3078513          	addi	a0,a5,-720 # 30008d30 <main+0x6d8>
300025cc:	d85fe0ef          	jal	30001350 <printf>
300025d0:	00a00793          	li	a5,10
300025d4:	fef42423          	sw	a5,-24(s0)
300025d8:	0500006f          	j	30002628 <ip_pwm_test+0xf0>
300025dc:	030047b7          	lui	a5,0x3004
300025e0:	00400713          	li	a4,4
300025e4:	00e7a023          	sw	a4,0(a5) # 3004000 <_ebss-0xffc000>
300025e8:	030047b7          	lui	a5,0x3004
300025ec:	01078793          	addi	a5,a5,16 # 3004010 <_ebss-0xffbff0>
300025f0:	fe842703          	lw	a4,-24(s0)
300025f4:	00e7a023          	sw	a4,0(a5)
300025f8:	030047b7          	lui	a5,0x3004
300025fc:	00300713          	li	a4,3
30002600:	00e7a023          	sw	a4,0(a5) # 3004000 <_ebss-0xffc000>
30002604:	030047b7          	lui	a5,0x3004
30002608:	00478793          	addi	a5,a5,4 # 3004004 <_ebss-0xffbffc>
3000260c:	03100713          	li	a4,49
30002610:	00e7a023          	sw	a4,0(a5)
30002614:	00500513          	li	a0,5
30002618:	9f1ff0ef          	jal	30002008 <delay_ms>
3000261c:	fe842783          	lw	a5,-24(s0)
30002620:	00178793          	addi	a5,a5,1
30002624:	fef42423          	sw	a5,-24(s0)
30002628:	fe842703          	lw	a4,-24(s0)
3000262c:	3de00793          	li	a5,990
30002630:	fae7d6e3          	bge	a5,a4,300025dc <ip_pwm_test+0xa4>
30002634:	3de00793          	li	a5,990
30002638:	fef42223          	sw	a5,-28(s0)
3000263c:	0500006f          	j	3000268c <ip_pwm_test+0x154>
30002640:	030047b7          	lui	a5,0x3004
30002644:	00400713          	li	a4,4
30002648:	00e7a023          	sw	a4,0(a5) # 3004000 <_ebss-0xffc000>
3000264c:	030047b7          	lui	a5,0x3004
30002650:	01078793          	addi	a5,a5,16 # 3004010 <_ebss-0xffbff0>
30002654:	fe442703          	lw	a4,-28(s0)
30002658:	00e7a023          	sw	a4,0(a5)
3000265c:	030047b7          	lui	a5,0x3004
30002660:	00300713          	li	a4,3
30002664:	00e7a023          	sw	a4,0(a5) # 3004000 <_ebss-0xffc000>
30002668:	030047b7          	lui	a5,0x3004
3000266c:	00478793          	addi	a5,a5,4 # 3004004 <_ebss-0xffbffc>
30002670:	03100713          	li	a4,49
30002674:	00e7a023          	sw	a4,0(a5)
30002678:	00500513          	li	a0,5
3000267c:	98dff0ef          	jal	30002008 <delay_ms>
30002680:	fe442783          	lw	a5,-28(s0)
30002684:	fff78793          	addi	a5,a5,-1
30002688:	fef42223          	sw	a5,-28(s0)
3000268c:	fe442703          	lw	a4,-28(s0)
30002690:	00900793          	li	a5,9
30002694:	fae7c6e3          	blt	a5,a4,30002640 <ip_pwm_test+0x108>
30002698:	fec42783          	lw	a5,-20(s0)
3000269c:	00178793          	addi	a5,a5,1
300026a0:	fef42623          	sw	a5,-20(s0)
300026a4:	fec42703          	lw	a4,-20(s0)
300026a8:	02300793          	li	a5,35
300026ac:	f0e7d6e3          	bge	a5,a4,300025b8 <ip_pwm_test+0x80>
300026b0:	00000013          	nop
300026b4:	00000013          	nop
300026b8:	01c12083          	lw	ra,28(sp)
300026bc:	01812403          	lw	s0,24(sp)
300026c0:	02010113          	addi	sp,sp,32
300026c4:	00008067          	ret

300026c8 <ip_ps2_test>:
300026c8:	fe010113          	addi	sp,sp,-32
300026cc:	00112e23          	sw	ra,28(sp)
300026d0:	00812c23          	sw	s0,24(sp)
300026d4:	02010413          	addi	s0,sp,32
300026d8:	300097b7          	lui	a5,0x30009
300026dc:	d4078513          	addi	a0,a5,-704 # 30008d40 <main+0x6e8>
300026e0:	c71fe0ef          	jal	30001350 <printf>
300026e4:	030057b7          	lui	a5,0x3005
300026e8:	00300713          	li	a4,3
300026ec:	00e7a023          	sw	a4,0(a5) # 3005000 <_ebss-0xffb000>
300026f0:	fe042423          	sw	zero,-24(s0)
300026f4:	fe042623          	sw	zero,-20(s0)
300026f8:	0380006f          	j	30002730 <ip_ps2_test+0x68>
300026fc:	030057b7          	lui	a5,0x3005
30002700:	00478793          	addi	a5,a5,4 # 3005004 <_ebss-0xffaffc>
30002704:	0007a783          	lw	a5,0(a5)
30002708:	fef42223          	sw	a5,-28(s0)
3000270c:	fe442783          	lw	a5,-28(s0)
30002710:	02078063          	beqz	a5,30002730 <ip_ps2_test+0x68>
30002714:	fec42783          	lw	a5,-20(s0)
30002718:	00178793          	addi	a5,a5,1
3000271c:	fef42623          	sw	a5,-20(s0)
30002720:	fe442583          	lw	a1,-28(s0)
30002724:	300097b7          	lui	a5,0x30009
30002728:	d5478513          	addi	a0,a5,-684 # 30008d54 <main+0x6fc>
3000272c:	c25fe0ef          	jal	30001350 <printf>
30002730:	fec42703          	lw	a4,-20(s0)
30002734:	02300793          	li	a5,35
30002738:	fce7d2e3          	bge	a5,a4,300026fc <ip_ps2_test+0x34>
3000273c:	00000013          	nop
30002740:	00000013          	nop
30002744:	01c12083          	lw	ra,28(sp)
30002748:	01812403          	lw	s0,24(sp)
3000274c:	02010113          	addi	sp,sp,32
30002750:	00008067          	ret

30002754 <i2c_config>:
30002754:	ff010113          	addi	sp,sp,-16
30002758:	00112623          	sw	ra,12(sp)
3000275c:	00812423          	sw	s0,8(sp)
30002760:	01010413          	addi	s0,sp,16
30002764:	030067b7          	lui	a5,0x3006
30002768:	0007a023          	sw	zero,0(a5) # 3006000 <_ebss-0xffa000>
3000276c:	030067b7          	lui	a5,0x3006
30002770:	00478793          	addi	a5,a5,4 # 3006004 <_ebss-0xff9ffc>
30002774:	06300713          	li	a4,99
30002778:	00e7a023          	sw	a4,0(a5)
3000277c:	030067b7          	lui	a5,0x3006
30002780:	0007a703          	lw	a4,0(a5) # 3006000 <_ebss-0xffa000>
30002784:	030067b7          	lui	a5,0x3006
30002788:	00478793          	addi	a5,a5,4 # 3006004 <_ebss-0xff9ffc>
3000278c:	0007a783          	lw	a5,0(a5)
30002790:	00078613          	mv	a2,a5
30002794:	00070593          	mv	a1,a4
30002798:	300097b7          	lui	a5,0x30009
3000279c:	d6478513          	addi	a0,a5,-668 # 30008d64 <main+0x70c>
300027a0:	bb1fe0ef          	jal	30001350 <printf>
300027a4:	030067b7          	lui	a5,0x3006
300027a8:	08000713          	li	a4,128
300027ac:	00e7a023          	sw	a4,0(a5) # 3006000 <_ebss-0xffa000>
300027b0:	00000013          	nop
300027b4:	00c12083          	lw	ra,12(sp)
300027b8:	00812403          	lw	s0,8(sp)
300027bc:	01010113          	addi	sp,sp,16
300027c0:	00008067          	ret

300027c4 <i2c_get_ack>:
300027c4:	ff010113          	addi	sp,sp,-16
300027c8:	00112623          	sw	ra,12(sp)
300027cc:	00812423          	sw	s0,8(sp)
300027d0:	01010413          	addi	s0,sp,16
300027d4:	00000013          	nop
300027d8:	030067b7          	lui	a5,0x3006
300027dc:	01478793          	addi	a5,a5,20 # 3006014 <_ebss-0xff9fec>
300027e0:	0007a783          	lw	a5,0(a5)
300027e4:	0027f793          	andi	a5,a5,2
300027e8:	fe0788e3          	beqz	a5,300027d8 <i2c_get_ack+0x14>
300027ec:	00000013          	nop
300027f0:	030067b7          	lui	a5,0x3006
300027f4:	01478793          	addi	a5,a5,20 # 3006014 <_ebss-0xff9fec>
300027f8:	0007a783          	lw	a5,0(a5)
300027fc:	0027f793          	andi	a5,a5,2
30002800:	fe0798e3          	bnez	a5,300027f0 <i2c_get_ack+0x2c>
30002804:	030067b7          	lui	a5,0x3006
30002808:	01478793          	addi	a5,a5,20 # 3006014 <_ebss-0xff9fec>
3000280c:	0007a783          	lw	a5,0(a5)
30002810:	0807f793          	andi	a5,a5,128
30002814:	0017b793          	seqz	a5,a5
30002818:	0ff7f793          	zext.b	a5,a5
3000281c:	00078513          	mv	a0,a5
30002820:	00c12083          	lw	ra,12(sp)
30002824:	00812403          	lw	s0,8(sp)
30002828:	01010113          	addi	sp,sp,16
3000282c:	00008067          	ret

30002830 <i2c_busy>:
30002830:	ff010113          	addi	sp,sp,-16
30002834:	00112623          	sw	ra,12(sp)
30002838:	00812423          	sw	s0,8(sp)
3000283c:	01010413          	addi	s0,sp,16
30002840:	030067b7          	lui	a5,0x3006
30002844:	01478793          	addi	a5,a5,20 # 3006014 <_ebss-0xff9fec>
30002848:	0007a783          	lw	a5,0(a5)
3000284c:	0407f793          	andi	a5,a5,64
30002850:	fc078793          	addi	a5,a5,-64
30002854:	0017b793          	seqz	a5,a5
30002858:	0ff7f793          	zext.b	a5,a5
3000285c:	00078513          	mv	a0,a5
30002860:	00c12083          	lw	ra,12(sp)
30002864:	00812403          	lw	s0,8(sp)
30002868:	01010113          	addi	sp,sp,16
3000286c:	00008067          	ret

30002870 <i2c_wr_start>:
30002870:	fe010113          	addi	sp,sp,-32
30002874:	00112e23          	sw	ra,28(sp)
30002878:	00812c23          	sw	s0,24(sp)
3000287c:	02010413          	addi	s0,sp,32
30002880:	fea42623          	sw	a0,-20(s0)
30002884:	030067b7          	lui	a5,0x3006
30002888:	00878793          	addi	a5,a5,8 # 3006008 <_ebss-0xff9ff8>
3000288c:	fec42703          	lw	a4,-20(s0)
30002890:	00e7a023          	sw	a4,0(a5)
30002894:	030067b7          	lui	a5,0x3006
30002898:	01078793          	addi	a5,a5,16 # 3006010 <_ebss-0xff9ff0>
3000289c:	09000713          	li	a4,144
300028a0:	00e7a023          	sw	a4,0(a5)
300028a4:	f21ff0ef          	jal	300027c4 <i2c_get_ack>
300028a8:	00050793          	mv	a5,a0
300028ac:	00079863          	bnez	a5,300028bc <i2c_wr_start+0x4c>
300028b0:	300097b7          	lui	a5,0x30009
300028b4:	d7878513          	addi	a0,a5,-648 # 30008d78 <main+0x720>
300028b8:	a99fe0ef          	jal	30001350 <printf>
300028bc:	00000013          	nop
300028c0:	01c12083          	lw	ra,28(sp)
300028c4:	01812403          	lw	s0,24(sp)
300028c8:	02010113          	addi	sp,sp,32
300028cc:	00008067          	ret

300028d0 <i2c_rd_start>:
300028d0:	fe010113          	addi	sp,sp,-32
300028d4:	00112e23          	sw	ra,28(sp)
300028d8:	00812c23          	sw	s0,24(sp)
300028dc:	02010413          	addi	s0,sp,32
300028e0:	fea42623          	sw	a0,-20(s0)
300028e4:	030067b7          	lui	a5,0x3006
300028e8:	00878793          	addi	a5,a5,8 # 3006008 <_ebss-0xff9ff8>
300028ec:	fec42703          	lw	a4,-20(s0)
300028f0:	00e7a023          	sw	a4,0(a5)
300028f4:	030067b7          	lui	a5,0x3006
300028f8:	01078793          	addi	a5,a5,16 # 3006010 <_ebss-0xff9ff0>
300028fc:	09000713          	li	a4,144
30002900:	00e7a023          	sw	a4,0(a5)
30002904:	ec1ff0ef          	jal	300027c4 <i2c_get_ack>
30002908:	00050793          	mv	a5,a0
3000290c:	fc078ce3          	beqz	a5,300028e4 <i2c_rd_start+0x14>
30002910:	00000013          	nop
30002914:	00000013          	nop
30002918:	01c12083          	lw	ra,28(sp)
3000291c:	01812403          	lw	s0,24(sp)
30002920:	02010113          	addi	sp,sp,32
30002924:	00008067          	ret

30002928 <i2c_write>:
30002928:	fe010113          	addi	sp,sp,-32
3000292c:	00112e23          	sw	ra,28(sp)
30002930:	00812c23          	sw	s0,24(sp)
30002934:	02010413          	addi	s0,sp,32
30002938:	00050793          	mv	a5,a0
3000293c:	fef407a3          	sb	a5,-17(s0)
30002940:	030067b7          	lui	a5,0x3006
30002944:	00878793          	addi	a5,a5,8 # 3006008 <_ebss-0xff9ff8>
30002948:	fef44703          	lbu	a4,-17(s0)
3000294c:	00e7a023          	sw	a4,0(a5)
30002950:	030067b7          	lui	a5,0x3006
30002954:	01078793          	addi	a5,a5,16 # 3006010 <_ebss-0xff9ff0>
30002958:	01000713          	li	a4,16
3000295c:	00e7a023          	sw	a4,0(a5)
30002960:	e65ff0ef          	jal	300027c4 <i2c_get_ack>
30002964:	00050793          	mv	a5,a0
30002968:	00079863          	bnez	a5,30002978 <i2c_write+0x50>
3000296c:	300097b7          	lui	a5,0x30009
30002970:	d9078513          	addi	a0,a5,-624 # 30008d90 <main+0x738>
30002974:	9ddfe0ef          	jal	30001350 <printf>
30002978:	00000013          	nop
3000297c:	01c12083          	lw	ra,28(sp)
30002980:	01812403          	lw	s0,24(sp)
30002984:	02010113          	addi	sp,sp,32
30002988:	00008067          	ret

3000298c <i2c_read>:
3000298c:	fe010113          	addi	sp,sp,-32
30002990:	00112e23          	sw	ra,28(sp)
30002994:	00812c23          	sw	s0,24(sp)
30002998:	02010413          	addi	s0,sp,32
3000299c:	fea42623          	sw	a0,-20(s0)
300029a0:	030067b7          	lui	a5,0x3006
300029a4:	01078793          	addi	a5,a5,16 # 3006010 <_ebss-0xff9ff0>
300029a8:	fec42703          	lw	a4,-20(s0)
300029ac:	00e7a023          	sw	a4,0(a5)
300029b0:	e15ff0ef          	jal	300027c4 <i2c_get_ack>
300029b4:	00050793          	mv	a5,a0
300029b8:	00079863          	bnez	a5,300029c8 <i2c_read+0x3c>
300029bc:	300097b7          	lui	a5,0x30009
300029c0:	da878513          	addi	a0,a5,-600 # 30008da8 <main+0x750>
300029c4:	98dfe0ef          	jal	30001350 <printf>
300029c8:	030067b7          	lui	a5,0x3006
300029cc:	00c78793          	addi	a5,a5,12 # 300600c <_ebss-0xff9ff4>
300029d0:	0007a783          	lw	a5,0(a5)
300029d4:	00078513          	mv	a0,a5
300029d8:	01c12083          	lw	ra,28(sp)
300029dc:	01812403          	lw	s0,24(sp)
300029e0:	02010113          	addi	sp,sp,32
300029e4:	00008067          	ret

300029e8 <i2c_stop>:
300029e8:	ff010113          	addi	sp,sp,-16
300029ec:	00112623          	sw	ra,12(sp)
300029f0:	00812423          	sw	s0,8(sp)
300029f4:	01010413          	addi	s0,sp,16
300029f8:	030067b7          	lui	a5,0x3006
300029fc:	01078793          	addi	a5,a5,16 # 3006010 <_ebss-0xff9ff0>
30002a00:	04000713          	li	a4,64
30002a04:	00e7a023          	sw	a4,0(a5)
30002a08:	00000013          	nop
30002a0c:	e25ff0ef          	jal	30002830 <i2c_busy>
30002a10:	00050793          	mv	a5,a0
30002a14:	fe079ce3          	bnez	a5,30002a0c <i2c_stop+0x24>
30002a18:	00000013          	nop
30002a1c:	00000013          	nop
30002a20:	00c12083          	lw	ra,12(sp)
30002a24:	00812403          	lw	s0,8(sp)
30002a28:	01010113          	addi	sp,sp,16
30002a2c:	00008067          	ret

30002a30 <i2c_wr_nbyte>:
30002a30:	fd010113          	addi	sp,sp,-48
30002a34:	02112623          	sw	ra,44(sp)
30002a38:	02812423          	sw	s0,40(sp)
30002a3c:	03010413          	addi	s0,sp,48
30002a40:	00050793          	mv	a5,a0
30002a44:	fce42a23          	sw	a4,-44(s0)
30002a48:	fcf40fa3          	sb	a5,-33(s0)
30002a4c:	00058793          	mv	a5,a1
30002a50:	fcf41e23          	sh	a5,-36(s0)
30002a54:	00060793          	mv	a5,a2
30002a58:	fcf40f23          	sb	a5,-34(s0)
30002a5c:	00068793          	mv	a5,a3
30002a60:	fcf40da3          	sb	a5,-37(s0)
30002a64:	fdf44783          	lbu	a5,-33(s0)
30002a68:	00078513          	mv	a0,a5
30002a6c:	e65ff0ef          	jal	300028d0 <i2c_rd_start>
30002a70:	fde44783          	lbu	a5,-34(s0)
30002a74:	02079a63          	bnez	a5,30002aa8 <i2c_wr_nbyte+0x78>
30002a78:	fdc45783          	lhu	a5,-36(s0)
30002a7c:	0087d793          	srli	a5,a5,0x8
30002a80:	01079793          	slli	a5,a5,0x10
30002a84:	0107d793          	srli	a5,a5,0x10
30002a88:	0ff7f793          	zext.b	a5,a5
30002a8c:	00078513          	mv	a0,a5
30002a90:	e99ff0ef          	jal	30002928 <i2c_write>
30002a94:	fdc45783          	lhu	a5,-36(s0)
30002a98:	0ff7f793          	zext.b	a5,a5
30002a9c:	00078513          	mv	a0,a5
30002aa0:	e89ff0ef          	jal	30002928 <i2c_write>
30002aa4:	0140006f          	j	30002ab8 <i2c_wr_nbyte+0x88>
30002aa8:	fdc45783          	lhu	a5,-36(s0)
30002aac:	0ff7f793          	zext.b	a5,a5
30002ab0:	00078513          	mv	a0,a5
30002ab4:	e75ff0ef          	jal	30002928 <i2c_write>
30002ab8:	fe042623          	sw	zero,-20(s0)
30002abc:	02c0006f          	j	30002ae8 <i2c_wr_nbyte+0xb8>
30002ac0:	fd442783          	lw	a5,-44(s0)
30002ac4:	0007c783          	lbu	a5,0(a5)
30002ac8:	00078513          	mv	a0,a5
30002acc:	e5dff0ef          	jal	30002928 <i2c_write>
30002ad0:	fd442783          	lw	a5,-44(s0)
30002ad4:	00178793          	addi	a5,a5,1
30002ad8:	fcf42a23          	sw	a5,-44(s0)
30002adc:	fec42783          	lw	a5,-20(s0)
30002ae0:	00178793          	addi	a5,a5,1
30002ae4:	fef42623          	sw	a5,-20(s0)
30002ae8:	fdb44783          	lbu	a5,-37(s0)
30002aec:	fec42703          	lw	a4,-20(s0)
30002af0:	fcf748e3          	blt	a4,a5,30002ac0 <i2c_wr_nbyte+0x90>
30002af4:	ef5ff0ef          	jal	300029e8 <i2c_stop>
30002af8:	00000013          	nop
30002afc:	02c12083          	lw	ra,44(sp)
30002b00:	02812403          	lw	s0,40(sp)
30002b04:	03010113          	addi	sp,sp,48
30002b08:	00008067          	ret

30002b0c <i2c_rd_nbyte>:
30002b0c:	fd010113          	addi	sp,sp,-48
30002b10:	02112623          	sw	ra,44(sp)
30002b14:	02812423          	sw	s0,40(sp)
30002b18:	03010413          	addi	s0,sp,48
30002b1c:	00050793          	mv	a5,a0
30002b20:	fce42a23          	sw	a4,-44(s0)
30002b24:	fcf40fa3          	sb	a5,-33(s0)
30002b28:	00058793          	mv	a5,a1
30002b2c:	fcf41e23          	sh	a5,-36(s0)
30002b30:	00060793          	mv	a5,a2
30002b34:	fcf40f23          	sb	a5,-34(s0)
30002b38:	00068793          	mv	a5,a3
30002b3c:	fcf40da3          	sb	a5,-37(s0)
30002b40:	fdf44783          	lbu	a5,-33(s0)
30002b44:	00078513          	mv	a0,a5
30002b48:	d89ff0ef          	jal	300028d0 <i2c_rd_start>
30002b4c:	fde44783          	lbu	a5,-34(s0)
30002b50:	02079a63          	bnez	a5,30002b84 <i2c_rd_nbyte+0x78>
30002b54:	fdc45783          	lhu	a5,-36(s0)
30002b58:	0087d793          	srli	a5,a5,0x8
30002b5c:	01079793          	slli	a5,a5,0x10
30002b60:	0107d793          	srli	a5,a5,0x10
30002b64:	0ff7f793          	zext.b	a5,a5
30002b68:	00078513          	mv	a0,a5
30002b6c:	dbdff0ef          	jal	30002928 <i2c_write>
30002b70:	fdc45783          	lhu	a5,-36(s0)
30002b74:	0ff7f793          	zext.b	a5,a5
30002b78:	00078513          	mv	a0,a5
30002b7c:	dadff0ef          	jal	30002928 <i2c_write>
30002b80:	0140006f          	j	30002b94 <i2c_rd_nbyte+0x88>
30002b84:	fdc45783          	lhu	a5,-36(s0)
30002b88:	0ff7f793          	zext.b	a5,a5
30002b8c:	00078513          	mv	a0,a5
30002b90:	d99ff0ef          	jal	30002928 <i2c_write>
30002b94:	e55ff0ef          	jal	300029e8 <i2c_stop>
30002b98:	fdf44783          	lbu	a5,-33(s0)
30002b9c:	00178793          	addi	a5,a5,1
30002ba0:	00078513          	mv	a0,a5
30002ba4:	ccdff0ef          	jal	30002870 <i2c_wr_start>
30002ba8:	fe042623          	sw	zero,-20(s0)
30002bac:	0640006f          	j	30002c10 <i2c_rd_nbyte+0x104>
30002bb0:	fdb44783          	lbu	a5,-37(s0)
30002bb4:	fff78793          	addi	a5,a5,-1
30002bb8:	fec42703          	lw	a4,-20(s0)
30002bbc:	02f71463          	bne	a4,a5,30002be4 <i2c_rd_nbyte+0xd8>
30002bc0:	06000513          	li	a0,96
30002bc4:	dc9ff0ef          	jal	3000298c <i2c_read>
30002bc8:	00050693          	mv	a3,a0
30002bcc:	fec42783          	lw	a5,-20(s0)
30002bd0:	fd442703          	lw	a4,-44(s0)
30002bd4:	00f707b3          	add	a5,a4,a5
30002bd8:	0ff6f713          	zext.b	a4,a3
30002bdc:	00e78023          	sb	a4,0(a5)
30002be0:	0240006f          	j	30002c04 <i2c_rd_nbyte+0xf8>
30002be4:	02000513          	li	a0,32
30002be8:	da5ff0ef          	jal	3000298c <i2c_read>
30002bec:	00050693          	mv	a3,a0
30002bf0:	fec42783          	lw	a5,-20(s0)
30002bf4:	fd442703          	lw	a4,-44(s0)
30002bf8:	00f707b3          	add	a5,a4,a5
30002bfc:	0ff6f713          	zext.b	a4,a3
30002c00:	00e78023          	sb	a4,0(a5)
30002c04:	fec42783          	lw	a5,-20(s0)
30002c08:	00178793          	addi	a5,a5,1
30002c0c:	fef42623          	sw	a5,-20(s0)
30002c10:	fdb44783          	lbu	a5,-37(s0)
30002c14:	fec42703          	lw	a4,-20(s0)
30002c18:	f8f74ce3          	blt	a4,a5,30002bb0 <i2c_rd_nbyte+0xa4>
30002c1c:	00000013          	nop
30002c20:	00000013          	nop
30002c24:	02c12083          	lw	ra,44(sp)
30002c28:	02812403          	lw	s0,40(sp)
30002c2c:	03010113          	addi	sp,sp,48
30002c30:	00008067          	ret

30002c34 <PCF8563B_bin2bcd>:
30002c34:	fd010113          	addi	sp,sp,-48
30002c38:	02112623          	sw	ra,44(sp)
30002c3c:	02812423          	sw	s0,40(sp)
30002c40:	03010413          	addi	s0,sp,48
30002c44:	00050793          	mv	a5,a0
30002c48:	fcf40fa3          	sb	a5,-33(s0)
30002c4c:	fe0407a3          	sb	zero,-17(s0)
30002c50:	01c0006f          	j	30002c6c <PCF8563B_bin2bcd+0x38>
30002c54:	fef44783          	lbu	a5,-17(s0)
30002c58:	00178793          	addi	a5,a5,1
30002c5c:	fef407a3          	sb	a5,-17(s0)
30002c60:	fdf44783          	lbu	a5,-33(s0)
30002c64:	ff678793          	addi	a5,a5,-10
30002c68:	fcf40fa3          	sb	a5,-33(s0)
30002c6c:	fdf44703          	lbu	a4,-33(s0)
30002c70:	00900793          	li	a5,9
30002c74:	fee7e0e3          	bltu	a5,a4,30002c54 <PCF8563B_bin2bcd+0x20>
30002c78:	fef44783          	lbu	a5,-17(s0)
30002c7c:	00479793          	slli	a5,a5,0x4
30002c80:	0ff7f793          	zext.b	a5,a5
30002c84:	fdf44703          	lbu	a4,-33(s0)
30002c88:	00e7e7b3          	or	a5,a5,a4
30002c8c:	0ff7f793          	zext.b	a5,a5
30002c90:	00078513          	mv	a0,a5
30002c94:	02c12083          	lw	ra,44(sp)
30002c98:	02812403          	lw	s0,40(sp)
30002c9c:	03010113          	addi	sp,sp,48
30002ca0:	00008067          	ret

30002ca4 <PCF8563B_bcd2bin>:
30002ca4:	fd010113          	addi	sp,sp,-48
30002ca8:	02112623          	sw	ra,44(sp)
30002cac:	02812423          	sw	s0,40(sp)
30002cb0:	03010413          	addi	s0,sp,48
30002cb4:	00050793          	mv	a5,a0
30002cb8:	00058713          	mv	a4,a1
30002cbc:	fcf40fa3          	sb	a5,-33(s0)
30002cc0:	00070793          	mv	a5,a4
30002cc4:	fcf40f23          	sb	a5,-34(s0)
30002cc8:	fe0407a3          	sb	zero,-17(s0)
30002ccc:	fdf44703          	lbu	a4,-33(s0)
30002cd0:	fde44783          	lbu	a5,-34(s0)
30002cd4:	0f07f793          	andi	a5,a5,240
30002cd8:	00f777b3          	and	a5,a4,a5
30002cdc:	4047d793          	srai	a5,a5,0x4
30002ce0:	fef407a3          	sb	a5,-17(s0)
30002ce4:	fef44783          	lbu	a5,-17(s0)
30002ce8:	00078713          	mv	a4,a5
30002cec:	00070793          	mv	a5,a4
30002cf0:	00279793          	slli	a5,a5,0x2
30002cf4:	00e787b3          	add	a5,a5,a4
30002cf8:	00179793          	slli	a5,a5,0x1
30002cfc:	0ff7f713          	zext.b	a4,a5
30002d00:	fde44783          	lbu	a5,-34(s0)
30002d04:	00078693          	mv	a3,a5
30002d08:	fdf44783          	lbu	a5,-33(s0)
30002d0c:	00f6f7b3          	and	a5,a3,a5
30002d10:	0ff7f793          	zext.b	a5,a5
30002d14:	00f7f793          	andi	a5,a5,15
30002d18:	0ff7f793          	zext.b	a5,a5
30002d1c:	00f707b3          	add	a5,a4,a5
30002d20:	fef407a3          	sb	a5,-17(s0)
30002d24:	fef44783          	lbu	a5,-17(s0)
30002d28:	00078513          	mv	a0,a5
30002d2c:	02c12083          	lw	ra,44(sp)
30002d30:	02812403          	lw	s0,40(sp)
30002d34:	03010113          	addi	sp,sp,48
30002d38:	00008067          	ret

30002d3c <PCF8563B_wr_reg>:
30002d3c:	fd010113          	addi	sp,sp,-48
30002d40:	02112623          	sw	ra,44(sp)
30002d44:	02812423          	sw	s0,40(sp)
30002d48:	03010413          	addi	s0,sp,48
30002d4c:	fca42e23          	sw	a0,-36(s0)
30002d50:	fe042423          	sw	zero,-24(s0)
30002d54:	fe041623          	sh	zero,-20(s0)
30002d58:	fe040723          	sb	zero,-18(s0)
30002d5c:	fdc42783          	lw	a5,-36(s0)
30002d60:	0007c783          	lbu	a5,0(a5)
30002d64:	00078513          	mv	a0,a5
30002d68:	ecdff0ef          	jal	30002c34 <PCF8563B_bin2bcd>
30002d6c:	00050793          	mv	a5,a0
30002d70:	fef40423          	sb	a5,-24(s0)
30002d74:	fdc42783          	lw	a5,-36(s0)
30002d78:	0017c783          	lbu	a5,1(a5)
30002d7c:	00078513          	mv	a0,a5
30002d80:	eb5ff0ef          	jal	30002c34 <PCF8563B_bin2bcd>
30002d84:	00050793          	mv	a5,a0
30002d88:	fef404a3          	sb	a5,-23(s0)
30002d8c:	fdc42783          	lw	a5,-36(s0)
30002d90:	0027c783          	lbu	a5,2(a5)
30002d94:	00078513          	mv	a0,a5
30002d98:	e9dff0ef          	jal	30002c34 <PCF8563B_bin2bcd>
30002d9c:	00050793          	mv	a5,a0
30002da0:	fef40523          	sb	a5,-22(s0)
30002da4:	fdc42783          	lw	a5,-36(s0)
30002da8:	0047c783          	lbu	a5,4(a5)
30002dac:	00078513          	mv	a0,a5
30002db0:	e85ff0ef          	jal	30002c34 <PCF8563B_bin2bcd>
30002db4:	00050793          	mv	a5,a0
30002db8:	fef405a3          	sb	a5,-21(s0)
30002dbc:	fdc42783          	lw	a5,-36(s0)
30002dc0:	0037c783          	lbu	a5,3(a5)
30002dc4:	00078513          	mv	a0,a5
30002dc8:	e6dff0ef          	jal	30002c34 <PCF8563B_bin2bcd>
30002dcc:	00050793          	mv	a5,a0
30002dd0:	fef40623          	sb	a5,-20(s0)
30002dd4:	fdc42783          	lw	a5,-36(s0)
30002dd8:	0057c783          	lbu	a5,5(a5)
30002ddc:	00078513          	mv	a0,a5
30002de0:	e55ff0ef          	jal	30002c34 <PCF8563B_bin2bcd>
30002de4:	00050793          	mv	a5,a0
30002de8:	fef406a3          	sb	a5,-19(s0)
30002dec:	fdc42783          	lw	a5,-36(s0)
30002df0:	0067c783          	lbu	a5,6(a5)
30002df4:	00078513          	mv	a0,a5
30002df8:	e3dff0ef          	jal	30002c34 <PCF8563B_bin2bcd>
30002dfc:	00050793          	mv	a5,a0
30002e00:	fef40723          	sb	a5,-18(s0)
30002e04:	fe840793          	addi	a5,s0,-24
30002e08:	00078713          	mv	a4,a5
30002e0c:	00700693          	li	a3,7
30002e10:	00100613          	li	a2,1
30002e14:	00200593          	li	a1,2
30002e18:	0a200513          	li	a0,162
30002e1c:	c15ff0ef          	jal	30002a30 <i2c_wr_nbyte>
30002e20:	00000013          	nop
30002e24:	02c12083          	lw	ra,44(sp)
30002e28:	02812403          	lw	s0,40(sp)
30002e2c:	03010113          	addi	sp,sp,48
30002e30:	00008067          	ret

30002e34 <PCF8563B_rd_reg>:
30002e34:	fd010113          	addi	sp,sp,-48
30002e38:	02112623          	sw	ra,44(sp)
30002e3c:	02812423          	sw	s0,40(sp)
30002e40:	03212223          	sw	s2,36(sp)
30002e44:	03312023          	sw	s3,32(sp)
30002e48:	03010413          	addi	s0,sp,48
30002e4c:	fe042023          	sw	zero,-32(s0)
30002e50:	fe041223          	sh	zero,-28(s0)
30002e54:	fe040323          	sb	zero,-26(s0)
30002e58:	fc042c23          	sw	zero,-40(s0)
30002e5c:	fc041e23          	sh	zero,-36(s0)
30002e60:	fc040f23          	sb	zero,-34(s0)
30002e64:	fe040793          	addi	a5,s0,-32
30002e68:	00078713          	mv	a4,a5
30002e6c:	00700693          	li	a3,7
30002e70:	00100613          	li	a2,1
30002e74:	00200593          	li	a1,2
30002e78:	0a200513          	li	a0,162
30002e7c:	c91ff0ef          	jal	30002b0c <i2c_rd_nbyte>
30002e80:	fe044783          	lbu	a5,-32(s0)
30002e84:	07f00593          	li	a1,127
30002e88:	00078513          	mv	a0,a5
30002e8c:	e19ff0ef          	jal	30002ca4 <PCF8563B_bcd2bin>
30002e90:	00050793          	mv	a5,a0
30002e94:	fcf40c23          	sb	a5,-40(s0)
30002e98:	fe144783          	lbu	a5,-31(s0)
30002e9c:	07f00593          	li	a1,127
30002ea0:	00078513          	mv	a0,a5
30002ea4:	e01ff0ef          	jal	30002ca4 <PCF8563B_bcd2bin>
30002ea8:	00050793          	mv	a5,a0
30002eac:	fcf40ca3          	sb	a5,-39(s0)
30002eb0:	fe244783          	lbu	a5,-30(s0)
30002eb4:	03f00593          	li	a1,63
30002eb8:	00078513          	mv	a0,a5
30002ebc:	de9ff0ef          	jal	30002ca4 <PCF8563B_bcd2bin>
30002ec0:	00050793          	mv	a5,a0
30002ec4:	fcf40d23          	sb	a5,-38(s0)
30002ec8:	fe344783          	lbu	a5,-29(s0)
30002ecc:	03f00593          	li	a1,63
30002ed0:	00078513          	mv	a0,a5
30002ed4:	dd1ff0ef          	jal	30002ca4 <PCF8563B_bcd2bin>
30002ed8:	00050793          	mv	a5,a0
30002edc:	fcf40e23          	sb	a5,-36(s0)
30002ee0:	fe444783          	lbu	a5,-28(s0)
30002ee4:	00700593          	li	a1,7
30002ee8:	00078513          	mv	a0,a5
30002eec:	db9ff0ef          	jal	30002ca4 <PCF8563B_bcd2bin>
30002ef0:	00050793          	mv	a5,a0
30002ef4:	fcf40da3          	sb	a5,-37(s0)
30002ef8:	fe544783          	lbu	a5,-27(s0)
30002efc:	01f00593          	li	a1,31
30002f00:	00078513          	mv	a0,a5
30002f04:	da1ff0ef          	jal	30002ca4 <PCF8563B_bcd2bin>
30002f08:	00050793          	mv	a5,a0
30002f0c:	fcf40ea3          	sb	a5,-35(s0)
30002f10:	fe644783          	lbu	a5,-26(s0)
30002f14:	0ff00593          	li	a1,255
30002f18:	00078513          	mv	a0,a5
30002f1c:	d89ff0ef          	jal	30002ca4 <PCF8563B_bcd2bin>
30002f20:	00050793          	mv	a5,a0
30002f24:	fcf40f23          	sb	a5,-34(s0)
30002f28:	fd842783          	lw	a5,-40(s0)
30002f2c:	fef42423          	sw	a5,-24(s0)
30002f30:	fdc45783          	lhu	a5,-36(s0)
30002f34:	fef41623          	sh	a5,-20(s0)
30002f38:	fde44783          	lbu	a5,-34(s0)
30002f3c:	fef40723          	sb	a5,-18(s0)
30002f40:	00000793          	li	a5,0
30002f44:	fe844703          	lbu	a4,-24(s0)
30002f48:	0ff77713          	zext.b	a4,a4
30002f4c:	f007f793          	andi	a5,a5,-256
30002f50:	00e7e7b3          	or	a5,a5,a4
30002f54:	fe944703          	lbu	a4,-23(s0)
30002f58:	0ff77713          	zext.b	a4,a4
30002f5c:	00871713          	slli	a4,a4,0x8
30002f60:	ffff06b7          	lui	a3,0xffff0
30002f64:	0ff68693          	addi	a3,a3,255 # ffff00ff <_etext+0xcffd63d7>
30002f68:	00d7f7b3          	and	a5,a5,a3
30002f6c:	00e7e7b3          	or	a5,a5,a4
30002f70:	fea44703          	lbu	a4,-22(s0)
30002f74:	0ff77713          	zext.b	a4,a4
30002f78:	01071713          	slli	a4,a4,0x10
30002f7c:	ff0106b7          	lui	a3,0xff010
30002f80:	fff68693          	addi	a3,a3,-1 # ff00ffff <_etext+0xceff62d7>
30002f84:	00d7f7b3          	and	a5,a5,a3
30002f88:	00e7e7b3          	or	a5,a5,a4
30002f8c:	feb44703          	lbu	a4,-21(s0)
30002f90:	01871713          	slli	a4,a4,0x18
30002f94:	010006b7          	lui	a3,0x1000
30002f98:	fff68693          	addi	a3,a3,-1 # ffffff <_ebss-0x3000001>
30002f9c:	00d7f7b3          	and	a5,a5,a3
30002fa0:	00e7e7b3          	or	a5,a5,a4
30002fa4:	00000713          	li	a4,0
30002fa8:	fec44683          	lbu	a3,-20(s0)
30002fac:	0ff6f693          	zext.b	a3,a3
30002fb0:	f0077713          	andi	a4,a4,-256
30002fb4:	00d76733          	or	a4,a4,a3
30002fb8:	fed44683          	lbu	a3,-19(s0)
30002fbc:	0ff6f693          	zext.b	a3,a3
30002fc0:	00869693          	slli	a3,a3,0x8
30002fc4:	ffff0637          	lui	a2,0xffff0
30002fc8:	0ff60613          	addi	a2,a2,255 # ffff00ff <_etext+0xcffd63d7>
30002fcc:	00c77733          	and	a4,a4,a2
30002fd0:	00d76733          	or	a4,a4,a3
30002fd4:	fee44683          	lbu	a3,-18(s0)
30002fd8:	0ff6f693          	zext.b	a3,a3
30002fdc:	01069693          	slli	a3,a3,0x10
30002fe0:	ff010637          	lui	a2,0xff010
30002fe4:	fff60613          	addi	a2,a2,-1 # ff00ffff <_etext+0xceff62d7>
30002fe8:	00c77733          	and	a4,a4,a2
30002fec:	00d76733          	or	a4,a4,a3
30002ff0:	00078913          	mv	s2,a5
30002ff4:	00070993          	mv	s3,a4
30002ff8:	00090713          	mv	a4,s2
30002ffc:	00098793          	mv	a5,s3
30003000:	00070513          	mv	a0,a4
30003004:	00078593          	mv	a1,a5
30003008:	02c12083          	lw	ra,44(sp)
3000300c:	02812403          	lw	s0,40(sp)
30003010:	02412903          	lw	s2,36(sp)
30003014:	02012983          	lw	s3,32(sp)
30003018:	03010113          	addi	sp,sp,48
3000301c:	00008067          	ret

30003020 <ip_i2c_test>:
30003020:	fd010113          	addi	sp,sp,-48
30003024:	02112623          	sw	ra,44(sp)
30003028:	02812423          	sw	s0,40(sp)
3000302c:	03010413          	addi	s0,sp,48
30003030:	300097b7          	lui	a5,0x30009
30003034:	dc078513          	addi	a0,a5,-576 # 30008dc0 <main+0x768>
30003038:	b18fe0ef          	jal	30001350 <printf>
3000303c:	f18ff0ef          	jal	30002754 <i2c_config>
30003040:	300097b7          	lui	a5,0x30009
30003044:	dcc78513          	addi	a0,a5,-564 # 30008dcc <main+0x774>
30003048:	b08fe0ef          	jal	30001350 <printf>
3000304c:	300097b7          	lui	a5,0x30009
30003050:	de078513          	addi	a0,a5,-544 # 30008de0 <main+0x788>
30003054:	afcfe0ef          	jal	30001350 <printf>
30003058:	300097b7          	lui	a5,0x30009
3000305c:	dfc78513          	addi	a0,a5,-516 # 30008dfc <main+0x7a4>
30003060:	af0fe0ef          	jal	30001350 <printf>
30003064:	3001a7b7          	lui	a5,0x3001a
30003068:	d1878793          	addi	a5,a5,-744 # 30019d18 <img+0x10e0c>
3000306c:	0007a703          	lw	a4,0(a5)
30003070:	fee42023          	sw	a4,-32(s0)
30003074:	0047d703          	lhu	a4,4(a5)
30003078:	fee41223          	sh	a4,-28(s0)
3000307c:	0067c783          	lbu	a5,6(a5)
30003080:	fef40323          	sb	a5,-26(s0)
30003084:	fe040793          	addi	a5,s0,-32
30003088:	00078513          	mv	a0,a5
3000308c:	cb1ff0ef          	jal	30002d3c <PCF8563B_wr_reg>
30003090:	fc042c23          	sw	zero,-40(s0)
30003094:	fc041e23          	sh	zero,-36(s0)
30003098:	fc040f23          	sb	zero,-34(s0)
3000309c:	fe042623          	sw	zero,-20(s0)
300030a0:	0a40006f          	j	30003144 <ip_i2c_test+0x124>
300030a4:	d91ff0ef          	jal	30002e34 <PCF8563B_rd_reg>
300030a8:	00050713          	mv	a4,a0
300030ac:	00058793          	mv	a5,a1
300030b0:	fce40c23          	sb	a4,-40(s0)
300030b4:	00875693          	srli	a3,a4,0x8
300030b8:	fff6f693          	andi	a3,a3,-1
300030bc:	fcd40ca3          	sb	a3,-39(s0)
300030c0:	01075693          	srli	a3,a4,0x10
300030c4:	fff6f693          	andi	a3,a3,-1
300030c8:	fcd40d23          	sb	a3,-38(s0)
300030cc:	01875693          	srli	a3,a4,0x18
300030d0:	fcd40da3          	sb	a3,-37(s0)
300030d4:	fcf40e23          	sb	a5,-36(s0)
300030d8:	0087d693          	srli	a3,a5,0x8
300030dc:	fff6f693          	andi	a3,a3,-1
300030e0:	fcd40ea3          	sb	a3,-35(s0)
300030e4:	0107d793          	srli	a5,a5,0x10
300030e8:	fff7f793          	andi	a5,a5,-1
300030ec:	fcf40f23          	sb	a5,-34(s0)
300030f0:	fde44783          	lbu	a5,-34(s0)
300030f4:	00078593          	mv	a1,a5
300030f8:	fdd44783          	lbu	a5,-35(s0)
300030fc:	00078613          	mv	a2,a5
30003100:	fdc44783          	lbu	a5,-36(s0)
30003104:	00078693          	mv	a3,a5
30003108:	fdb44783          	lbu	a5,-37(s0)
3000310c:	00078713          	mv	a4,a5
30003110:	fda44783          	lbu	a5,-38(s0)
30003114:	00078513          	mv	a0,a5
30003118:	fd944783          	lbu	a5,-39(s0)
3000311c:	00078813          	mv	a6,a5
30003120:	fd844783          	lbu	a5,-40(s0)
30003124:	00078893          	mv	a7,a5
30003128:	00050793          	mv	a5,a0
3000312c:	30009537          	lui	a0,0x30009
30003130:	e0c50513          	addi	a0,a0,-500 # 30008e0c <main+0x7b4>
30003134:	a1cfe0ef          	jal	30001350 <printf>
30003138:	fec42783          	lw	a5,-20(s0)
3000313c:	00178793          	addi	a5,a5,1
30003140:	fef42623          	sw	a5,-20(s0)
30003144:	fec42703          	lw	a4,-20(s0)
30003148:	06300793          	li	a5,99
3000314c:	f4e7dce3          	bge	a5,a4,300030a4 <ip_i2c_test+0x84>
30003150:	3001a7b7          	lui	a5,0x3001a
30003154:	d2078793          	addi	a5,a5,-736 # 30019d20 <img+0x10e14>
30003158:	0007a703          	lw	a4,0(a5)
3000315c:	fce42823          	sw	a4,-48(s0)
30003160:	0047d703          	lhu	a4,4(a5)
30003164:	fce41a23          	sh	a4,-44(s0)
30003168:	0067c783          	lbu	a5,6(a5)
3000316c:	fcf40b23          	sb	a5,-42(s0)
30003170:	fd040793          	addi	a5,s0,-48
30003174:	00078513          	mv	a0,a5
30003178:	bc5ff0ef          	jal	30002d3c <PCF8563B_wr_reg>
3000317c:	fe042423          	sw	zero,-24(s0)
30003180:	0a40006f          	j	30003224 <ip_i2c_test+0x204>
30003184:	cb1ff0ef          	jal	30002e34 <PCF8563B_rd_reg>
30003188:	00050713          	mv	a4,a0
3000318c:	00058793          	mv	a5,a1
30003190:	fce40c23          	sb	a4,-40(s0)
30003194:	00875693          	srli	a3,a4,0x8
30003198:	fff6f693          	andi	a3,a3,-1
3000319c:	fcd40ca3          	sb	a3,-39(s0)
300031a0:	01075693          	srli	a3,a4,0x10
300031a4:	fff6f693          	andi	a3,a3,-1
300031a8:	fcd40d23          	sb	a3,-38(s0)
300031ac:	01875693          	srli	a3,a4,0x18
300031b0:	fcd40da3          	sb	a3,-37(s0)
300031b4:	fcf40e23          	sb	a5,-36(s0)
300031b8:	0087d693          	srli	a3,a5,0x8
300031bc:	fff6f693          	andi	a3,a3,-1
300031c0:	fcd40ea3          	sb	a3,-35(s0)
300031c4:	0107d793          	srli	a5,a5,0x10
300031c8:	fff7f793          	andi	a5,a5,-1
300031cc:	fcf40f23          	sb	a5,-34(s0)
300031d0:	fde44783          	lbu	a5,-34(s0)
300031d4:	00078593          	mv	a1,a5
300031d8:	fdd44783          	lbu	a5,-35(s0)
300031dc:	00078613          	mv	a2,a5
300031e0:	fdc44783          	lbu	a5,-36(s0)
300031e4:	00078693          	mv	a3,a5
300031e8:	fdb44783          	lbu	a5,-37(s0)
300031ec:	00078713          	mv	a4,a5
300031f0:	fda44783          	lbu	a5,-38(s0)
300031f4:	00078513          	mv	a0,a5
300031f8:	fd944783          	lbu	a5,-39(s0)
300031fc:	00078813          	mv	a6,a5
30003200:	fd844783          	lbu	a5,-40(s0)
30003204:	00078893          	mv	a7,a5
30003208:	00050793          	mv	a5,a0
3000320c:	30009537          	lui	a0,0x30009
30003210:	e0c50513          	addi	a0,a0,-500 # 30008e0c <main+0x7b4>
30003214:	93cfe0ef          	jal	30001350 <printf>
30003218:	fe842783          	lw	a5,-24(s0)
3000321c:	00178793          	addi	a5,a5,1
30003220:	fef42423          	sw	a5,-24(s0)
30003224:	fe842703          	lw	a4,-24(s0)
30003228:	06300793          	li	a5,99
3000322c:	f4e7dce3          	bge	a5,a4,30003184 <ip_i2c_test+0x164>
30003230:	300097b7          	lui	a5,0x30009
30003234:	e3078513          	addi	a0,a5,-464 # 30008e30 <main+0x7d8>
30003238:	918fe0ef          	jal	30001350 <printf>
3000323c:	300097b7          	lui	a5,0x30009
30003240:	e4478513          	addi	a0,a5,-444 # 30008e44 <main+0x7ec>
30003244:	90cfe0ef          	jal	30001350 <printf>
30003248:	00000013          	nop
3000324c:	02c12083          	lw	ra,44(sp)
30003250:	02812403          	lw	s0,40(sp)
30003254:	03010113          	addi	sp,sp,48
30003258:	00008067          	ret

3000325c <spi_init>:
3000325c:	ff010113          	addi	sp,sp,-16
30003260:	00112623          	sw	ra,12(sp)
30003264:	00812423          	sw	s0,8(sp)
30003268:	01010413          	addi	s0,sp,16
3000326c:	030007b7          	lui	a5,0x3000
30003270:	00478793          	addi	a5,a5,4 # 3000004 <_ebss-0xfffffc>
30003274:	00300713          	li	a4,3
30003278:	00e7a023          	sw	a4,0(a5)
3000327c:	030077b7          	lui	a5,0x3007
30003280:	01000713          	li	a4,16
30003284:	00e7a023          	sw	a4,0(a5) # 3007000 <_ebss-0xff9000>
30003288:	030077b7          	lui	a5,0x3007
3000328c:	0007a023          	sw	zero,0(a5) # 3007000 <_ebss-0xff9000>
30003290:	030077b7          	lui	a5,0x3007
30003294:	02478793          	addi	a5,a5,36 # 3007024 <_ebss-0xff8fdc>
30003298:	0007a023          	sw	zero,0(a5)
3000329c:	030077b7          	lui	a5,0x3007
300032a0:	01478793          	addi	a5,a5,20 # 3007014 <_ebss-0xff8fec>
300032a4:	0007a023          	sw	zero,0(a5)
300032a8:	030077b7          	lui	a5,0x3007
300032ac:	00478793          	addi	a5,a5,4 # 3007004 <_ebss-0xff8ffc>
300032b0:	00100713          	li	a4,1
300032b4:	00e7a023          	sw	a4,0(a5)
300032b8:	030007b7          	lui	a5,0x3000
300032bc:	00478793          	addi	a5,a5,4 # 3000004 <_ebss-0xfffffc>
300032c0:	0007a783          	lw	a5,0(a5)
300032c4:	00078593          	mv	a1,a5
300032c8:	300097b7          	lui	a5,0x30009
300032cc:	e5078513          	addi	a0,a5,-432 # 30008e50 <main+0x7f8>
300032d0:	880fe0ef          	jal	30001350 <printf>
300032d4:	030077b7          	lui	a5,0x3007
300032d8:	0007a783          	lw	a5,0(a5) # 3007000 <_ebss-0xff9000>
300032dc:	00078593          	mv	a1,a5
300032e0:	300097b7          	lui	a5,0x30009
300032e4:	e6078513          	addi	a0,a5,-416 # 30008e60 <main+0x808>
300032e8:	868fe0ef          	jal	30001350 <printf>
300032ec:	030077b7          	lui	a5,0x3007
300032f0:	02478793          	addi	a5,a5,36 # 3007024 <_ebss-0xff8fdc>
300032f4:	0007a783          	lw	a5,0(a5)
300032f8:	00078593          	mv	a1,a5
300032fc:	300097b7          	lui	a5,0x30009
30003300:	e7478513          	addi	a0,a5,-396 # 30008e74 <main+0x81c>
30003304:	84cfe0ef          	jal	30001350 <printf>
30003308:	030077b7          	lui	a5,0x3007
3000330c:	01478793          	addi	a5,a5,20 # 3007014 <_ebss-0xff8fec>
30003310:	0007a783          	lw	a5,0(a5)
30003314:	00078593          	mv	a1,a5
30003318:	300097b7          	lui	a5,0x30009
3000331c:	e8878513          	addi	a0,a5,-376 # 30008e88 <main+0x830>
30003320:	830fe0ef          	jal	30001350 <printf>
30003324:	030077b7          	lui	a5,0x3007
30003328:	00478793          	addi	a5,a5,4 # 3007004 <_ebss-0xff8ffc>
3000332c:	0007a783          	lw	a5,0(a5)
30003330:	00078593          	mv	a1,a5
30003334:	300097b7          	lui	a5,0x30009
30003338:	e9878513          	addi	a0,a5,-360 # 30008e98 <main+0x840>
3000333c:	814fe0ef          	jal	30001350 <printf>
30003340:	00000013          	nop
30003344:	00c12083          	lw	ra,12(sp)
30003348:	00812403          	lw	s0,8(sp)
3000334c:	01010113          	addi	sp,sp,16
30003350:	00008067          	ret

30003354 <spi_wr_dat>:
30003354:	fd010113          	addi	sp,sp,-48
30003358:	02112623          	sw	ra,44(sp)
3000335c:	02812423          	sw	s0,40(sp)
30003360:	03010413          	addi	s0,sp,48
30003364:	00050793          	mv	a5,a0
30003368:	fcf40fa3          	sb	a5,-33(s0)
3000336c:	fdf44783          	lbu	a5,-33(s0)
30003370:	01879793          	slli	a5,a5,0x18
30003374:	fef42623          	sw	a5,-20(s0)
30003378:	030077b7          	lui	a5,0x3007
3000337c:	01078793          	addi	a5,a5,16 # 3007010 <_ebss-0xff8ff0>
30003380:	00080737          	lui	a4,0x80
30003384:	00e7a023          	sw	a4,0(a5)
30003388:	030077b7          	lui	a5,0x3007
3000338c:	01878793          	addi	a5,a5,24 # 3007018 <_ebss-0xff8fe8>
30003390:	fec42703          	lw	a4,-20(s0)
30003394:	00e7a023          	sw	a4,0(a5)
30003398:	030077b7          	lui	a5,0x3007
3000339c:	10200713          	li	a4,258
300033a0:	00e7a023          	sw	a4,0(a5) # 3007000 <_ebss-0xff9000>
300033a4:	00000013          	nop
300033a8:	030077b7          	lui	a5,0x3007
300033ac:	0007a783          	lw	a5,0(a5) # 3007000 <_ebss-0xff9000>
300033b0:	01079713          	slli	a4,a5,0x10
300033b4:	01075713          	srli	a4,a4,0x10
300033b8:	00100793          	li	a5,1
300033bc:	fef716e3          	bne	a4,a5,300033a8 <spi_wr_dat+0x54>
300033c0:	00000013          	nop
300033c4:	00000013          	nop
300033c8:	02c12083          	lw	ra,44(sp)
300033cc:	02812403          	lw	s0,40(sp)
300033d0:	03010113          	addi	sp,sp,48
300033d4:	00008067          	ret

300033d8 <lcd_wr_cmd>:
300033d8:	fe010113          	addi	sp,sp,-32
300033dc:	00112e23          	sw	ra,28(sp)
300033e0:	00812c23          	sw	s0,24(sp)
300033e4:	02010413          	addi	s0,sp,32
300033e8:	00050793          	mv	a5,a0
300033ec:	fef407a3          	sb	a5,-17(s0)
300033f0:	030007b7          	lui	a5,0x3000
300033f4:	0007a023          	sw	zero,0(a5) # 3000000 <_ebss-0x1000000>
300033f8:	fef44783          	lbu	a5,-17(s0)
300033fc:	00078513          	mv	a0,a5
30003400:	f55ff0ef          	jal	30003354 <spi_wr_dat>
30003404:	00000013          	nop
30003408:	01c12083          	lw	ra,28(sp)
3000340c:	01812403          	lw	s0,24(sp)
30003410:	02010113          	addi	sp,sp,32
30003414:	00008067          	ret

30003418 <lcd_wr_data8>:
30003418:	fe010113          	addi	sp,sp,-32
3000341c:	00112e23          	sw	ra,28(sp)
30003420:	00812c23          	sw	s0,24(sp)
30003424:	02010413          	addi	s0,sp,32
30003428:	00050793          	mv	a5,a0
3000342c:	fef407a3          	sb	a5,-17(s0)
30003430:	030007b7          	lui	a5,0x3000
30003434:	00400713          	li	a4,4
30003438:	00e7a023          	sw	a4,0(a5) # 3000000 <_ebss-0x1000000>
3000343c:	fef44783          	lbu	a5,-17(s0)
30003440:	00078513          	mv	a0,a5
30003444:	f11ff0ef          	jal	30003354 <spi_wr_dat>
30003448:	00000013          	nop
3000344c:	01c12083          	lw	ra,28(sp)
30003450:	01812403          	lw	s0,24(sp)
30003454:	02010113          	addi	sp,sp,32
30003458:	00008067          	ret

3000345c <lcd_wr_data16>:
3000345c:	fd010113          	addi	sp,sp,-48
30003460:	02112623          	sw	ra,44(sp)
30003464:	02812423          	sw	s0,40(sp)
30003468:	03010413          	addi	s0,sp,48
3000346c:	00050793          	mv	a5,a0
30003470:	fcf41f23          	sh	a5,-34(s0)
30003474:	030007b7          	lui	a5,0x3000
30003478:	00400713          	li	a4,4
3000347c:	00e7a023          	sw	a4,0(a5) # 3000000 <_ebss-0x1000000>
30003480:	fde45783          	lhu	a5,-34(s0)
30003484:	01079793          	slli	a5,a5,0x10
30003488:	fef42623          	sw	a5,-20(s0)
3000348c:	030077b7          	lui	a5,0x3007
30003490:	01078793          	addi	a5,a5,16 # 3007010 <_ebss-0xff8ff0>
30003494:	00100737          	lui	a4,0x100
30003498:	00e7a023          	sw	a4,0(a5)
3000349c:	030077b7          	lui	a5,0x3007
300034a0:	01878793          	addi	a5,a5,24 # 3007018 <_ebss-0xff8fe8>
300034a4:	fec42703          	lw	a4,-20(s0)
300034a8:	00e7a023          	sw	a4,0(a5)
300034ac:	030077b7          	lui	a5,0x3007
300034b0:	10200713          	li	a4,258
300034b4:	00e7a023          	sw	a4,0(a5) # 3007000 <_ebss-0xff9000>
300034b8:	00000013          	nop
300034bc:	030077b7          	lui	a5,0x3007
300034c0:	0007a783          	lw	a5,0(a5) # 3007000 <_ebss-0xff9000>
300034c4:	01079713          	slli	a4,a5,0x10
300034c8:	01075713          	srli	a4,a4,0x10
300034cc:	00100793          	li	a5,1
300034d0:	fef716e3          	bne	a4,a5,300034bc <lcd_wr_data16+0x60>
300034d4:	00000013          	nop
300034d8:	00000013          	nop
300034dc:	02c12083          	lw	ra,44(sp)
300034e0:	02812403          	lw	s0,40(sp)
300034e4:	03010113          	addi	sp,sp,48
300034e8:	00008067          	ret

300034ec <lcd_wr_data32>:
300034ec:	fe010113          	addi	sp,sp,-32
300034f0:	00112e23          	sw	ra,28(sp)
300034f4:	00812c23          	sw	s0,24(sp)
300034f8:	02010413          	addi	s0,sp,32
300034fc:	fea42623          	sw	a0,-20(s0)
30003500:	030007b7          	lui	a5,0x3000
30003504:	00400713          	li	a4,4
30003508:	00e7a023          	sw	a4,0(a5) # 3000000 <_ebss-0x1000000>
3000350c:	030077b7          	lui	a5,0x3007
30003510:	01078793          	addi	a5,a5,16 # 3007010 <_ebss-0xff8ff0>
30003514:	00200737          	lui	a4,0x200
30003518:	00e7a023          	sw	a4,0(a5)
3000351c:	030077b7          	lui	a5,0x3007
30003520:	01878793          	addi	a5,a5,24 # 3007018 <_ebss-0xff8fe8>
30003524:	fec42703          	lw	a4,-20(s0)
30003528:	00e7a023          	sw	a4,0(a5)
3000352c:	030077b7          	lui	a5,0x3007
30003530:	10200713          	li	a4,258
30003534:	00e7a023          	sw	a4,0(a5) # 3007000 <_ebss-0xff9000>
30003538:	00000013          	nop
3000353c:	030077b7          	lui	a5,0x3007
30003540:	0007a783          	lw	a5,0(a5) # 3007000 <_ebss-0xff9000>
30003544:	01079713          	slli	a4,a5,0x10
30003548:	01075713          	srli	a4,a4,0x10
3000354c:	00100793          	li	a5,1
30003550:	fef716e3          	bne	a4,a5,3000353c <lcd_wr_data32+0x50>
30003554:	00000013          	nop
30003558:	00000013          	nop
3000355c:	01c12083          	lw	ra,28(sp)
30003560:	01812403          	lw	s0,24(sp)
30003564:	02010113          	addi	sp,sp,32
30003568:	00008067          	ret

3000356c <lcd_wr_data32x2>:
3000356c:	fe010113          	addi	sp,sp,-32
30003570:	00112e23          	sw	ra,28(sp)
30003574:	00812c23          	sw	s0,24(sp)
30003578:	02010413          	addi	s0,sp,32
3000357c:	fea42623          	sw	a0,-20(s0)
30003580:	feb42423          	sw	a1,-24(s0)
30003584:	030007b7          	lui	a5,0x3000
30003588:	00400713          	li	a4,4
3000358c:	00e7a023          	sw	a4,0(a5) # 3000000 <_ebss-0x1000000>
30003590:	030077b7          	lui	a5,0x3007
30003594:	01078793          	addi	a5,a5,16 # 3007010 <_ebss-0xff8ff0>
30003598:	00400737          	lui	a4,0x400
3000359c:	00e7a023          	sw	a4,0(a5)
300035a0:	030077b7          	lui	a5,0x3007
300035a4:	01878793          	addi	a5,a5,24 # 3007018 <_ebss-0xff8fe8>
300035a8:	fec42703          	lw	a4,-20(s0)
300035ac:	00e7a023          	sw	a4,0(a5)
300035b0:	030077b7          	lui	a5,0x3007
300035b4:	01878793          	addi	a5,a5,24 # 3007018 <_ebss-0xff8fe8>
300035b8:	fe842703          	lw	a4,-24(s0)
300035bc:	00e7a023          	sw	a4,0(a5)
300035c0:	030077b7          	lui	a5,0x3007
300035c4:	10200713          	li	a4,258
300035c8:	00e7a023          	sw	a4,0(a5) # 3007000 <_ebss-0xff9000>
300035cc:	00000013          	nop
300035d0:	030077b7          	lui	a5,0x3007
300035d4:	0007a783          	lw	a5,0(a5) # 3007000 <_ebss-0xff9000>
300035d8:	01079713          	slli	a4,a5,0x10
300035dc:	01075713          	srli	a4,a4,0x10
300035e0:	00100793          	li	a5,1
300035e4:	fef716e3          	bne	a4,a5,300035d0 <lcd_wr_data32x2+0x64>
300035e8:	00000013          	nop
300035ec:	00000013          	nop
300035f0:	01c12083          	lw	ra,28(sp)
300035f4:	01812403          	lw	s0,24(sp)
300035f8:	02010113          	addi	sp,sp,32
300035fc:	00008067          	ret

30003600 <lcd_wr_data32x8>:
30003600:	fd010113          	addi	sp,sp,-48
30003604:	02112623          	sw	ra,44(sp)
30003608:	02812423          	sw	s0,40(sp)
3000360c:	03010413          	addi	s0,sp,48
30003610:	fea42623          	sw	a0,-20(s0)
30003614:	feb42423          	sw	a1,-24(s0)
30003618:	fec42223          	sw	a2,-28(s0)
3000361c:	fed42023          	sw	a3,-32(s0)
30003620:	fce42e23          	sw	a4,-36(s0)
30003624:	fcf42c23          	sw	a5,-40(s0)
30003628:	fd042a23          	sw	a6,-44(s0)
3000362c:	fd142823          	sw	a7,-48(s0)
30003630:	030007b7          	lui	a5,0x3000
30003634:	00400713          	li	a4,4
30003638:	00e7a023          	sw	a4,0(a5) # 3000000 <_ebss-0x1000000>
3000363c:	030077b7          	lui	a5,0x3007
30003640:	01078793          	addi	a5,a5,16 # 3007010 <_ebss-0xff8ff0>
30003644:	01000737          	lui	a4,0x1000
30003648:	00e7a023          	sw	a4,0(a5)
3000364c:	030077b7          	lui	a5,0x3007
30003650:	01878793          	addi	a5,a5,24 # 3007018 <_ebss-0xff8fe8>
30003654:	fec42703          	lw	a4,-20(s0)
30003658:	00e7a023          	sw	a4,0(a5)
3000365c:	030077b7          	lui	a5,0x3007
30003660:	01878793          	addi	a5,a5,24 # 3007018 <_ebss-0xff8fe8>
30003664:	fe842703          	lw	a4,-24(s0)
30003668:	00e7a023          	sw	a4,0(a5)
3000366c:	030077b7          	lui	a5,0x3007
30003670:	01878793          	addi	a5,a5,24 # 3007018 <_ebss-0xff8fe8>
30003674:	fe442703          	lw	a4,-28(s0)
30003678:	00e7a023          	sw	a4,0(a5)
3000367c:	030077b7          	lui	a5,0x3007
30003680:	01878793          	addi	a5,a5,24 # 3007018 <_ebss-0xff8fe8>
30003684:	fe042703          	lw	a4,-32(s0)
30003688:	00e7a023          	sw	a4,0(a5)
3000368c:	030077b7          	lui	a5,0x3007
30003690:	01878793          	addi	a5,a5,24 # 3007018 <_ebss-0xff8fe8>
30003694:	fdc42703          	lw	a4,-36(s0)
30003698:	00e7a023          	sw	a4,0(a5)
3000369c:	030077b7          	lui	a5,0x3007
300036a0:	01878793          	addi	a5,a5,24 # 3007018 <_ebss-0xff8fe8>
300036a4:	fd842703          	lw	a4,-40(s0)
300036a8:	00e7a023          	sw	a4,0(a5)
300036ac:	030077b7          	lui	a5,0x3007
300036b0:	01878793          	addi	a5,a5,24 # 3007018 <_ebss-0xff8fe8>
300036b4:	fd442703          	lw	a4,-44(s0)
300036b8:	00e7a023          	sw	a4,0(a5)
300036bc:	030077b7          	lui	a5,0x3007
300036c0:	01878793          	addi	a5,a5,24 # 3007018 <_ebss-0xff8fe8>
300036c4:	fd042703          	lw	a4,-48(s0)
300036c8:	00e7a023          	sw	a4,0(a5)
300036cc:	030077b7          	lui	a5,0x3007
300036d0:	10200713          	li	a4,258
300036d4:	00e7a023          	sw	a4,0(a5) # 3007000 <_ebss-0xff9000>
300036d8:	00000013          	nop
300036dc:	030077b7          	lui	a5,0x3007
300036e0:	0007a783          	lw	a5,0(a5) # 3007000 <_ebss-0xff9000>
300036e4:	01079713          	slli	a4,a5,0x10
300036e8:	01075713          	srli	a4,a4,0x10
300036ec:	00100793          	li	a5,1
300036f0:	fef716e3          	bne	a4,a5,300036dc <lcd_wr_data32x8+0xdc>
300036f4:	00000013          	nop
300036f8:	00000013          	nop
300036fc:	02c12083          	lw	ra,44(sp)
30003700:	02812403          	lw	s0,40(sp)
30003704:	03010113          	addi	sp,sp,48
30003708:	00008067          	ret

3000370c <lcd_wr_data32x16>:
3000370c:	fd010113          	addi	sp,sp,-48
30003710:	02112623          	sw	ra,44(sp)
30003714:	02812423          	sw	s0,40(sp)
30003718:	03010413          	addi	s0,sp,48
3000371c:	fea42623          	sw	a0,-20(s0)
30003720:	feb42423          	sw	a1,-24(s0)
30003724:	fec42223          	sw	a2,-28(s0)
30003728:	fed42023          	sw	a3,-32(s0)
3000372c:	fce42e23          	sw	a4,-36(s0)
30003730:	fcf42c23          	sw	a5,-40(s0)
30003734:	fd042a23          	sw	a6,-44(s0)
30003738:	fd142823          	sw	a7,-48(s0)
3000373c:	030007b7          	lui	a5,0x3000
30003740:	00400713          	li	a4,4
30003744:	00e7a023          	sw	a4,0(a5) # 3000000 <_ebss-0x1000000>
30003748:	030077b7          	lui	a5,0x3007
3000374c:	01078793          	addi	a5,a5,16 # 3007010 <_ebss-0xff8ff0>
30003750:	02000737          	lui	a4,0x2000
30003754:	00e7a023          	sw	a4,0(a5)
30003758:	030077b7          	lui	a5,0x3007
3000375c:	01878793          	addi	a5,a5,24 # 3007018 <_ebss-0xff8fe8>
30003760:	fec42703          	lw	a4,-20(s0)
30003764:	00e7a023          	sw	a4,0(a5)
30003768:	030077b7          	lui	a5,0x3007
3000376c:	01878793          	addi	a5,a5,24 # 3007018 <_ebss-0xff8fe8>
30003770:	fe842703          	lw	a4,-24(s0)
30003774:	00e7a023          	sw	a4,0(a5)
30003778:	030077b7          	lui	a5,0x3007
3000377c:	01878793          	addi	a5,a5,24 # 3007018 <_ebss-0xff8fe8>
30003780:	fe442703          	lw	a4,-28(s0)
30003784:	00e7a023          	sw	a4,0(a5)
30003788:	030077b7          	lui	a5,0x3007
3000378c:	01878793          	addi	a5,a5,24 # 3007018 <_ebss-0xff8fe8>
30003790:	fe042703          	lw	a4,-32(s0)
30003794:	00e7a023          	sw	a4,0(a5)
30003798:	030077b7          	lui	a5,0x3007
3000379c:	01878793          	addi	a5,a5,24 # 3007018 <_ebss-0xff8fe8>
300037a0:	fdc42703          	lw	a4,-36(s0)
300037a4:	00e7a023          	sw	a4,0(a5)
300037a8:	030077b7          	lui	a5,0x3007
300037ac:	01878793          	addi	a5,a5,24 # 3007018 <_ebss-0xff8fe8>
300037b0:	fd842703          	lw	a4,-40(s0)
300037b4:	00e7a023          	sw	a4,0(a5)
300037b8:	030077b7          	lui	a5,0x3007
300037bc:	01878793          	addi	a5,a5,24 # 3007018 <_ebss-0xff8fe8>
300037c0:	fd442703          	lw	a4,-44(s0)
300037c4:	00e7a023          	sw	a4,0(a5)
300037c8:	030077b7          	lui	a5,0x3007
300037cc:	01878793          	addi	a5,a5,24 # 3007018 <_ebss-0xff8fe8>
300037d0:	fd042703          	lw	a4,-48(s0)
300037d4:	00e7a023          	sw	a4,0(a5)
300037d8:	030077b7          	lui	a5,0x3007
300037dc:	01878793          	addi	a5,a5,24 # 3007018 <_ebss-0xff8fe8>
300037e0:	00042703          	lw	a4,0(s0)
300037e4:	00e7a023          	sw	a4,0(a5)
300037e8:	030077b7          	lui	a5,0x3007
300037ec:	01878793          	addi	a5,a5,24 # 3007018 <_ebss-0xff8fe8>
300037f0:	00442703          	lw	a4,4(s0)
300037f4:	00e7a023          	sw	a4,0(a5)
300037f8:	030077b7          	lui	a5,0x3007
300037fc:	01878793          	addi	a5,a5,24 # 3007018 <_ebss-0xff8fe8>
30003800:	00842703          	lw	a4,8(s0)
30003804:	00e7a023          	sw	a4,0(a5)
30003808:	030077b7          	lui	a5,0x3007
3000380c:	01878793          	addi	a5,a5,24 # 3007018 <_ebss-0xff8fe8>
30003810:	00c42703          	lw	a4,12(s0)
30003814:	00e7a023          	sw	a4,0(a5)
30003818:	030077b7          	lui	a5,0x3007
3000381c:	01878793          	addi	a5,a5,24 # 3007018 <_ebss-0xff8fe8>
30003820:	01042703          	lw	a4,16(s0)
30003824:	00e7a023          	sw	a4,0(a5)
30003828:	030077b7          	lui	a5,0x3007
3000382c:	01878793          	addi	a5,a5,24 # 3007018 <_ebss-0xff8fe8>
30003830:	01442703          	lw	a4,20(s0)
30003834:	00e7a023          	sw	a4,0(a5)
30003838:	030077b7          	lui	a5,0x3007
3000383c:	01878793          	addi	a5,a5,24 # 3007018 <_ebss-0xff8fe8>
30003840:	01842703          	lw	a4,24(s0)
30003844:	00e7a023          	sw	a4,0(a5)
30003848:	030077b7          	lui	a5,0x3007
3000384c:	01878793          	addi	a5,a5,24 # 3007018 <_ebss-0xff8fe8>
30003850:	01c42703          	lw	a4,28(s0)
30003854:	00e7a023          	sw	a4,0(a5)
30003858:	030077b7          	lui	a5,0x3007
3000385c:	10200713          	li	a4,258
30003860:	00e7a023          	sw	a4,0(a5) # 3007000 <_ebss-0xff9000>
30003864:	00000013          	nop
30003868:	030077b7          	lui	a5,0x3007
3000386c:	0007a783          	lw	a5,0(a5) # 3007000 <_ebss-0xff9000>
30003870:	01079713          	slli	a4,a5,0x10
30003874:	01075713          	srli	a4,a4,0x10
30003878:	00100793          	li	a5,1
3000387c:	fef716e3          	bne	a4,a5,30003868 <lcd_wr_data32x16+0x15c>
30003880:	00000013          	nop
30003884:	00000013          	nop
30003888:	02c12083          	lw	ra,44(sp)
3000388c:	02812403          	lw	s0,40(sp)
30003890:	03010113          	addi	sp,sp,48
30003894:	00008067          	ret

30003898 <lcd_wr_data32x32>:
30003898:	fd010113          	addi	sp,sp,-48
3000389c:	02112623          	sw	ra,44(sp)
300038a0:	02812423          	sw	s0,40(sp)
300038a4:	03010413          	addi	s0,sp,48
300038a8:	fea42623          	sw	a0,-20(s0)
300038ac:	feb42423          	sw	a1,-24(s0)
300038b0:	fec42223          	sw	a2,-28(s0)
300038b4:	fed42023          	sw	a3,-32(s0)
300038b8:	fce42e23          	sw	a4,-36(s0)
300038bc:	fcf42c23          	sw	a5,-40(s0)
300038c0:	fd042a23          	sw	a6,-44(s0)
300038c4:	fd142823          	sw	a7,-48(s0)
300038c8:	030007b7          	lui	a5,0x3000
300038cc:	00400713          	li	a4,4
300038d0:	00e7a023          	sw	a4,0(a5) # 3000000 <_ebss-0x1000000>
300038d4:	030077b7          	lui	a5,0x3007
300038d8:	01078793          	addi	a5,a5,16 # 3007010 <_ebss-0xff8ff0>
300038dc:	04000737          	lui	a4,0x4000
300038e0:	00e7a023          	sw	a4,0(a5)
300038e4:	030077b7          	lui	a5,0x3007
300038e8:	01878793          	addi	a5,a5,24 # 3007018 <_ebss-0xff8fe8>
300038ec:	fec42703          	lw	a4,-20(s0)
300038f0:	00e7a023          	sw	a4,0(a5)
300038f4:	030077b7          	lui	a5,0x3007
300038f8:	01878793          	addi	a5,a5,24 # 3007018 <_ebss-0xff8fe8>
300038fc:	fe842703          	lw	a4,-24(s0)
30003900:	00e7a023          	sw	a4,0(a5)
30003904:	030077b7          	lui	a5,0x3007
30003908:	01878793          	addi	a5,a5,24 # 3007018 <_ebss-0xff8fe8>
3000390c:	fe442703          	lw	a4,-28(s0)
30003910:	00e7a023          	sw	a4,0(a5)
30003914:	030077b7          	lui	a5,0x3007
30003918:	01878793          	addi	a5,a5,24 # 3007018 <_ebss-0xff8fe8>
3000391c:	fe042703          	lw	a4,-32(s0)
30003920:	00e7a023          	sw	a4,0(a5)
30003924:	030077b7          	lui	a5,0x3007
30003928:	01878793          	addi	a5,a5,24 # 3007018 <_ebss-0xff8fe8>
3000392c:	fdc42703          	lw	a4,-36(s0)
30003930:	00e7a023          	sw	a4,0(a5)
30003934:	030077b7          	lui	a5,0x3007
30003938:	01878793          	addi	a5,a5,24 # 3007018 <_ebss-0xff8fe8>
3000393c:	fd842703          	lw	a4,-40(s0)
30003940:	00e7a023          	sw	a4,0(a5)
30003944:	030077b7          	lui	a5,0x3007
30003948:	01878793          	addi	a5,a5,24 # 3007018 <_ebss-0xff8fe8>
3000394c:	fd442703          	lw	a4,-44(s0)
30003950:	00e7a023          	sw	a4,0(a5)
30003954:	030077b7          	lui	a5,0x3007
30003958:	01878793          	addi	a5,a5,24 # 3007018 <_ebss-0xff8fe8>
3000395c:	fd042703          	lw	a4,-48(s0)
30003960:	00e7a023          	sw	a4,0(a5)
30003964:	030077b7          	lui	a5,0x3007
30003968:	01878793          	addi	a5,a5,24 # 3007018 <_ebss-0xff8fe8>
3000396c:	00042703          	lw	a4,0(s0)
30003970:	00e7a023          	sw	a4,0(a5)
30003974:	030077b7          	lui	a5,0x3007
30003978:	01878793          	addi	a5,a5,24 # 3007018 <_ebss-0xff8fe8>
3000397c:	00442703          	lw	a4,4(s0)
30003980:	00e7a023          	sw	a4,0(a5)
30003984:	030077b7          	lui	a5,0x3007
30003988:	01878793          	addi	a5,a5,24 # 3007018 <_ebss-0xff8fe8>
3000398c:	00842703          	lw	a4,8(s0)
30003990:	00e7a023          	sw	a4,0(a5)
30003994:	030077b7          	lui	a5,0x3007
30003998:	01878793          	addi	a5,a5,24 # 3007018 <_ebss-0xff8fe8>
3000399c:	00c42703          	lw	a4,12(s0)
300039a0:	00e7a023          	sw	a4,0(a5)
300039a4:	030077b7          	lui	a5,0x3007
300039a8:	01878793          	addi	a5,a5,24 # 3007018 <_ebss-0xff8fe8>
300039ac:	01042703          	lw	a4,16(s0)
300039b0:	00e7a023          	sw	a4,0(a5)
300039b4:	030077b7          	lui	a5,0x3007
300039b8:	01878793          	addi	a5,a5,24 # 3007018 <_ebss-0xff8fe8>
300039bc:	01442703          	lw	a4,20(s0)
300039c0:	00e7a023          	sw	a4,0(a5)
300039c4:	030077b7          	lui	a5,0x3007
300039c8:	01878793          	addi	a5,a5,24 # 3007018 <_ebss-0xff8fe8>
300039cc:	01842703          	lw	a4,24(s0)
300039d0:	00e7a023          	sw	a4,0(a5)
300039d4:	030077b7          	lui	a5,0x3007
300039d8:	01878793          	addi	a5,a5,24 # 3007018 <_ebss-0xff8fe8>
300039dc:	01c42703          	lw	a4,28(s0)
300039e0:	00e7a023          	sw	a4,0(a5)
300039e4:	030077b7          	lui	a5,0x3007
300039e8:	01878793          	addi	a5,a5,24 # 3007018 <_ebss-0xff8fe8>
300039ec:	02042703          	lw	a4,32(s0)
300039f0:	00e7a023          	sw	a4,0(a5)
300039f4:	030077b7          	lui	a5,0x3007
300039f8:	01878793          	addi	a5,a5,24 # 3007018 <_ebss-0xff8fe8>
300039fc:	02442703          	lw	a4,36(s0)
30003a00:	00e7a023          	sw	a4,0(a5)
30003a04:	030077b7          	lui	a5,0x3007
30003a08:	01878793          	addi	a5,a5,24 # 3007018 <_ebss-0xff8fe8>
30003a0c:	02842703          	lw	a4,40(s0)
30003a10:	00e7a023          	sw	a4,0(a5)
30003a14:	030077b7          	lui	a5,0x3007
30003a18:	01878793          	addi	a5,a5,24 # 3007018 <_ebss-0xff8fe8>
30003a1c:	02c42703          	lw	a4,44(s0)
30003a20:	00e7a023          	sw	a4,0(a5)
30003a24:	030077b7          	lui	a5,0x3007
30003a28:	01878793          	addi	a5,a5,24 # 3007018 <_ebss-0xff8fe8>
30003a2c:	03042703          	lw	a4,48(s0)
30003a30:	00e7a023          	sw	a4,0(a5)
30003a34:	030077b7          	lui	a5,0x3007
30003a38:	01878793          	addi	a5,a5,24 # 3007018 <_ebss-0xff8fe8>
30003a3c:	03442703          	lw	a4,52(s0)
30003a40:	00e7a023          	sw	a4,0(a5)
30003a44:	030077b7          	lui	a5,0x3007
30003a48:	01878793          	addi	a5,a5,24 # 3007018 <_ebss-0xff8fe8>
30003a4c:	03842703          	lw	a4,56(s0)
30003a50:	00e7a023          	sw	a4,0(a5)
30003a54:	030077b7          	lui	a5,0x3007
30003a58:	01878793          	addi	a5,a5,24 # 3007018 <_ebss-0xff8fe8>
30003a5c:	03c42703          	lw	a4,60(s0)
30003a60:	00e7a023          	sw	a4,0(a5)
30003a64:	030077b7          	lui	a5,0x3007
30003a68:	01878793          	addi	a5,a5,24 # 3007018 <_ebss-0xff8fe8>
30003a6c:	04042703          	lw	a4,64(s0)
30003a70:	00e7a023          	sw	a4,0(a5)
30003a74:	030077b7          	lui	a5,0x3007
30003a78:	01878793          	addi	a5,a5,24 # 3007018 <_ebss-0xff8fe8>
30003a7c:	04442703          	lw	a4,68(s0)
30003a80:	00e7a023          	sw	a4,0(a5)
30003a84:	030077b7          	lui	a5,0x3007
30003a88:	01878793          	addi	a5,a5,24 # 3007018 <_ebss-0xff8fe8>
30003a8c:	04842703          	lw	a4,72(s0)
30003a90:	00e7a023          	sw	a4,0(a5)
30003a94:	030077b7          	lui	a5,0x3007
30003a98:	01878793          	addi	a5,a5,24 # 3007018 <_ebss-0xff8fe8>
30003a9c:	04c42703          	lw	a4,76(s0)
30003aa0:	00e7a023          	sw	a4,0(a5)
30003aa4:	030077b7          	lui	a5,0x3007
30003aa8:	01878793          	addi	a5,a5,24 # 3007018 <_ebss-0xff8fe8>
30003aac:	05042703          	lw	a4,80(s0)
30003ab0:	00e7a023          	sw	a4,0(a5)
30003ab4:	030077b7          	lui	a5,0x3007
30003ab8:	01878793          	addi	a5,a5,24 # 3007018 <_ebss-0xff8fe8>
30003abc:	05442703          	lw	a4,84(s0)
30003ac0:	00e7a023          	sw	a4,0(a5)
30003ac4:	030077b7          	lui	a5,0x3007
30003ac8:	01878793          	addi	a5,a5,24 # 3007018 <_ebss-0xff8fe8>
30003acc:	05842703          	lw	a4,88(s0)
30003ad0:	00e7a023          	sw	a4,0(a5)
30003ad4:	030077b7          	lui	a5,0x3007
30003ad8:	01878793          	addi	a5,a5,24 # 3007018 <_ebss-0xff8fe8>
30003adc:	05c42703          	lw	a4,92(s0)
30003ae0:	00e7a023          	sw	a4,0(a5)
30003ae4:	030077b7          	lui	a5,0x3007
30003ae8:	10200713          	li	a4,258
30003aec:	00e7a023          	sw	a4,0(a5) # 3007000 <_ebss-0xff9000>
30003af0:	00000013          	nop
30003af4:	030077b7          	lui	a5,0x3007
30003af8:	0007a703          	lw	a4,0(a5) # 3007000 <_ebss-0xff9000>
30003afc:	00100793          	li	a5,1
30003b00:	fef71ae3          	bne	a4,a5,30003af4 <lcd_wr_data32x32+0x25c>
30003b04:	00000013          	nop
30003b08:	00000013          	nop
30003b0c:	02c12083          	lw	ra,44(sp)
30003b10:	02812403          	lw	s0,40(sp)
30003b14:	03010113          	addi	sp,sp,48
30003b18:	00008067          	ret

30003b1c <lcd_wr_data32xlen>:
30003b1c:	fd010113          	addi	sp,sp,-48
30003b20:	02112623          	sw	ra,44(sp)
30003b24:	02812423          	sw	s0,40(sp)
30003b28:	03010413          	addi	s0,sp,48
30003b2c:	fca42e23          	sw	a0,-36(s0)
30003b30:	fcb42c23          	sw	a1,-40(s0)
30003b34:	030007b7          	lui	a5,0x3000
30003b38:	00400713          	li	a4,4
30003b3c:	00e7a023          	sw	a4,0(a5) # 3000000 <_ebss-0x1000000>
30003b40:	fd842783          	lw	a5,-40(s0)
30003b44:	00579713          	slli	a4,a5,0x5
30003b48:	030077b7          	lui	a5,0x3007
30003b4c:	01078793          	addi	a5,a5,16 # 3007010 <_ebss-0xff8ff0>
30003b50:	01071713          	slli	a4,a4,0x10
30003b54:	00e7a023          	sw	a4,0(a5)
30003b58:	fe042623          	sw	zero,-20(s0)
30003b5c:	0200006f          	j	30003b7c <lcd_wr_data32xlen+0x60>
30003b60:	030077b7          	lui	a5,0x3007
30003b64:	01878793          	addi	a5,a5,24 # 3007018 <_ebss-0xff8fe8>
30003b68:	fdc42703          	lw	a4,-36(s0)
30003b6c:	00e7a023          	sw	a4,0(a5)
30003b70:	fec42783          	lw	a5,-20(s0)
30003b74:	00178793          	addi	a5,a5,1
30003b78:	fef42623          	sw	a5,-20(s0)
30003b7c:	fec42783          	lw	a5,-20(s0)
30003b80:	fd842703          	lw	a4,-40(s0)
30003b84:	fce7eee3          	bltu	a5,a4,30003b60 <lcd_wr_data32xlen+0x44>
30003b88:	030077b7          	lui	a5,0x3007
30003b8c:	10200713          	li	a4,258
30003b90:	00e7a023          	sw	a4,0(a5) # 3007000 <_ebss-0xff9000>
30003b94:	00000013          	nop
30003b98:	030077b7          	lui	a5,0x3007
30003b9c:	0007a783          	lw	a5,0(a5) # 3007000 <_ebss-0xff9000>
30003ba0:	01079713          	slli	a4,a5,0x10
30003ba4:	01075713          	srli	a4,a4,0x10
30003ba8:	00100793          	li	a5,1
30003bac:	fef716e3          	bne	a4,a5,30003b98 <lcd_wr_data32xlen+0x7c>
30003bb0:	00000013          	nop
30003bb4:	00000013          	nop
30003bb8:	02c12083          	lw	ra,44(sp)
30003bbc:	02812403          	lw	s0,40(sp)
30003bc0:	03010113          	addi	sp,sp,48
30003bc4:	00008067          	ret

30003bc8 <lcd_init>:
30003bc8:	ff010113          	addi	sp,sp,-16
30003bcc:	00112623          	sw	ra,12(sp)
30003bd0:	00812423          	sw	s0,8(sp)
30003bd4:	01010413          	addi	s0,sp,16
30003bd8:	07800513          	li	a0,120
30003bdc:	c2cfe0ef          	jal	30002008 <delay_ms>
30003be0:	01100513          	li	a0,17
30003be4:	ff4ff0ef          	jal	300033d8 <lcd_wr_cmd>
30003be8:	07800513          	li	a0,120
30003bec:	c1cfe0ef          	jal	30002008 <delay_ms>
30003bf0:	0b100513          	li	a0,177
30003bf4:	fe4ff0ef          	jal	300033d8 <lcd_wr_cmd>
30003bf8:	00100513          	li	a0,1
30003bfc:	81dff0ef          	jal	30003418 <lcd_wr_data8>
30003c00:	02c00513          	li	a0,44
30003c04:	815ff0ef          	jal	30003418 <lcd_wr_data8>
30003c08:	02d00513          	li	a0,45
30003c0c:	80dff0ef          	jal	30003418 <lcd_wr_data8>
30003c10:	0b200513          	li	a0,178
30003c14:	fc4ff0ef          	jal	300033d8 <lcd_wr_cmd>
30003c18:	00100513          	li	a0,1
30003c1c:	ffcff0ef          	jal	30003418 <lcd_wr_data8>
30003c20:	02c00513          	li	a0,44
30003c24:	ff4ff0ef          	jal	30003418 <lcd_wr_data8>
30003c28:	02d00513          	li	a0,45
30003c2c:	fecff0ef          	jal	30003418 <lcd_wr_data8>
30003c30:	0b300513          	li	a0,179
30003c34:	fa4ff0ef          	jal	300033d8 <lcd_wr_cmd>
30003c38:	00100513          	li	a0,1
30003c3c:	fdcff0ef          	jal	30003418 <lcd_wr_data8>
30003c40:	02c00513          	li	a0,44
30003c44:	fd4ff0ef          	jal	30003418 <lcd_wr_data8>
30003c48:	02d00513          	li	a0,45
30003c4c:	fccff0ef          	jal	30003418 <lcd_wr_data8>
30003c50:	00100513          	li	a0,1
30003c54:	fc4ff0ef          	jal	30003418 <lcd_wr_data8>
30003c58:	02c00513          	li	a0,44
30003c5c:	fbcff0ef          	jal	30003418 <lcd_wr_data8>
30003c60:	02d00513          	li	a0,45
30003c64:	fb4ff0ef          	jal	30003418 <lcd_wr_data8>
30003c68:	0b400513          	li	a0,180
30003c6c:	f6cff0ef          	jal	300033d8 <lcd_wr_cmd>
30003c70:	00700513          	li	a0,7
30003c74:	fa4ff0ef          	jal	30003418 <lcd_wr_data8>
30003c78:	300097b7          	lui	a5,0x30009
30003c7c:	eac78513          	addi	a0,a5,-340 # 30008eac <main+0x854>
30003c80:	ed0fd0ef          	jal	30001350 <printf>
30003c84:	0c000513          	li	a0,192
30003c88:	f50ff0ef          	jal	300033d8 <lcd_wr_cmd>
30003c8c:	0a200513          	li	a0,162
30003c90:	f88ff0ef          	jal	30003418 <lcd_wr_data8>
30003c94:	00200513          	li	a0,2
30003c98:	f80ff0ef          	jal	30003418 <lcd_wr_data8>
30003c9c:	08400513          	li	a0,132
30003ca0:	f78ff0ef          	jal	30003418 <lcd_wr_data8>
30003ca4:	0c100513          	li	a0,193
30003ca8:	f30ff0ef          	jal	300033d8 <lcd_wr_cmd>
30003cac:	0c500513          	li	a0,197
30003cb0:	f68ff0ef          	jal	30003418 <lcd_wr_data8>
30003cb4:	0c200513          	li	a0,194
30003cb8:	f20ff0ef          	jal	300033d8 <lcd_wr_cmd>
30003cbc:	00a00513          	li	a0,10
30003cc0:	f58ff0ef          	jal	30003418 <lcd_wr_data8>
30003cc4:	00000513          	li	a0,0
30003cc8:	f50ff0ef          	jal	30003418 <lcd_wr_data8>
30003ccc:	0c300513          	li	a0,195
30003cd0:	f08ff0ef          	jal	300033d8 <lcd_wr_cmd>
30003cd4:	08a00513          	li	a0,138
30003cd8:	f40ff0ef          	jal	30003418 <lcd_wr_data8>
30003cdc:	02a00513          	li	a0,42
30003ce0:	f38ff0ef          	jal	30003418 <lcd_wr_data8>
30003ce4:	0c400513          	li	a0,196
30003ce8:	ef0ff0ef          	jal	300033d8 <lcd_wr_cmd>
30003cec:	08a00513          	li	a0,138
30003cf0:	f28ff0ef          	jal	30003418 <lcd_wr_data8>
30003cf4:	0ee00513          	li	a0,238
30003cf8:	f20ff0ef          	jal	30003418 <lcd_wr_data8>
30003cfc:	0c500513          	li	a0,197
30003d00:	ed8ff0ef          	jal	300033d8 <lcd_wr_cmd>
30003d04:	00e00513          	li	a0,14
30003d08:	f10ff0ef          	jal	30003418 <lcd_wr_data8>
30003d0c:	03600513          	li	a0,54
30003d10:	ec8ff0ef          	jal	300033d8 <lcd_wr_cmd>
30003d14:	300097b7          	lui	a5,0x30009
30003d18:	ec478513          	addi	a0,a5,-316 # 30008ec4 <main+0x86c>
30003d1c:	e34fd0ef          	jal	30001350 <printf>
30003d20:	0a800513          	li	a0,168
30003d24:	ef4ff0ef          	jal	30003418 <lcd_wr_data8>
30003d28:	0e000513          	li	a0,224
30003d2c:	eacff0ef          	jal	300033d8 <lcd_wr_cmd>
30003d30:	00f00513          	li	a0,15
30003d34:	ee4ff0ef          	jal	30003418 <lcd_wr_data8>
30003d38:	01a00513          	li	a0,26
30003d3c:	edcff0ef          	jal	30003418 <lcd_wr_data8>
30003d40:	00f00513          	li	a0,15
30003d44:	ed4ff0ef          	jal	30003418 <lcd_wr_data8>
30003d48:	01800513          	li	a0,24
30003d4c:	eccff0ef          	jal	30003418 <lcd_wr_data8>
30003d50:	02f00513          	li	a0,47
30003d54:	ec4ff0ef          	jal	30003418 <lcd_wr_data8>
30003d58:	02800513          	li	a0,40
30003d5c:	ebcff0ef          	jal	30003418 <lcd_wr_data8>
30003d60:	02000513          	li	a0,32
30003d64:	eb4ff0ef          	jal	30003418 <lcd_wr_data8>
30003d68:	02200513          	li	a0,34
30003d6c:	eacff0ef          	jal	30003418 <lcd_wr_data8>
30003d70:	01f00513          	li	a0,31
30003d74:	ea4ff0ef          	jal	30003418 <lcd_wr_data8>
30003d78:	01b00513          	li	a0,27
30003d7c:	e9cff0ef          	jal	30003418 <lcd_wr_data8>
30003d80:	02300513          	li	a0,35
30003d84:	e94ff0ef          	jal	30003418 <lcd_wr_data8>
30003d88:	03700513          	li	a0,55
30003d8c:	e8cff0ef          	jal	30003418 <lcd_wr_data8>
30003d90:	00000513          	li	a0,0
30003d94:	e84ff0ef          	jal	30003418 <lcd_wr_data8>
30003d98:	00700513          	li	a0,7
30003d9c:	e7cff0ef          	jal	30003418 <lcd_wr_data8>
30003da0:	00200513          	li	a0,2
30003da4:	e74ff0ef          	jal	30003418 <lcd_wr_data8>
30003da8:	01000513          	li	a0,16
30003dac:	e6cff0ef          	jal	30003418 <lcd_wr_data8>
30003db0:	0e100513          	li	a0,225
30003db4:	e24ff0ef          	jal	300033d8 <lcd_wr_cmd>
30003db8:	00f00513          	li	a0,15
30003dbc:	e5cff0ef          	jal	30003418 <lcd_wr_data8>
30003dc0:	01b00513          	li	a0,27
30003dc4:	e54ff0ef          	jal	30003418 <lcd_wr_data8>
30003dc8:	00f00513          	li	a0,15
30003dcc:	e4cff0ef          	jal	30003418 <lcd_wr_data8>
30003dd0:	01700513          	li	a0,23
30003dd4:	e44ff0ef          	jal	30003418 <lcd_wr_data8>
30003dd8:	03300513          	li	a0,51
30003ddc:	e3cff0ef          	jal	30003418 <lcd_wr_data8>
30003de0:	02c00513          	li	a0,44
30003de4:	e34ff0ef          	jal	30003418 <lcd_wr_data8>
30003de8:	02900513          	li	a0,41
30003dec:	e2cff0ef          	jal	30003418 <lcd_wr_data8>
30003df0:	02e00513          	li	a0,46
30003df4:	e24ff0ef          	jal	30003418 <lcd_wr_data8>
30003df8:	03000513          	li	a0,48
30003dfc:	e1cff0ef          	jal	30003418 <lcd_wr_data8>
30003e00:	03000513          	li	a0,48
30003e04:	e14ff0ef          	jal	30003418 <lcd_wr_data8>
30003e08:	03900513          	li	a0,57
30003e0c:	e0cff0ef          	jal	30003418 <lcd_wr_data8>
30003e10:	03f00513          	li	a0,63
30003e14:	e04ff0ef          	jal	30003418 <lcd_wr_data8>
30003e18:	00000513          	li	a0,0
30003e1c:	dfcff0ef          	jal	30003418 <lcd_wr_data8>
30003e20:	00700513          	li	a0,7
30003e24:	df4ff0ef          	jal	30003418 <lcd_wr_data8>
30003e28:	00300513          	li	a0,3
30003e2c:	decff0ef          	jal	30003418 <lcd_wr_data8>
30003e30:	01000513          	li	a0,16
30003e34:	de4ff0ef          	jal	30003418 <lcd_wr_data8>
30003e38:	300097b7          	lui	a5,0x30009
30003e3c:	ee078513          	addi	a0,a5,-288 # 30008ee0 <main+0x888>
30003e40:	d10fd0ef          	jal	30001350 <printf>
30003e44:	0f000513          	li	a0,240
30003e48:	d90ff0ef          	jal	300033d8 <lcd_wr_cmd>
30003e4c:	00100513          	li	a0,1
30003e50:	dc8ff0ef          	jal	30003418 <lcd_wr_data8>
30003e54:	0f600513          	li	a0,246
30003e58:	d80ff0ef          	jal	300033d8 <lcd_wr_cmd>
30003e5c:	00000513          	li	a0,0
30003e60:	db8ff0ef          	jal	30003418 <lcd_wr_data8>
30003e64:	03a00513          	li	a0,58
30003e68:	d70ff0ef          	jal	300033d8 <lcd_wr_cmd>
30003e6c:	00500513          	li	a0,5
30003e70:	da8ff0ef          	jal	30003418 <lcd_wr_data8>
30003e74:	02900513          	li	a0,41
30003e78:	d60ff0ef          	jal	300033d8 <lcd_wr_cmd>
30003e7c:	fff00713          	li	a4,-1
30003e80:	08000693          	li	a3,128
30003e84:	08000613          	li	a2,128
30003e88:	00000593          	li	a1,0
30003e8c:	00000513          	li	a0,0
30003e90:	0b4000ef          	jal	30003f44 <lcd_fill>
30003e94:	300097b7          	lui	a5,0x30009
30003e98:	efc78513          	addi	a0,a5,-260 # 30008efc <main+0x8a4>
30003e9c:	cb4fd0ef          	jal	30001350 <printf>
30003ea0:	00000013          	nop
30003ea4:	00c12083          	lw	ra,12(sp)
30003ea8:	00812403          	lw	s0,8(sp)
30003eac:	01010113          	addi	sp,sp,16
30003eb0:	00008067          	ret

30003eb4 <lcd_addr_set>:
30003eb4:	fe010113          	addi	sp,sp,-32
30003eb8:	00112e23          	sw	ra,28(sp)
30003ebc:	00812c23          	sw	s0,24(sp)
30003ec0:	02010413          	addi	s0,sp,32
30003ec4:	00050793          	mv	a5,a0
30003ec8:	00068713          	mv	a4,a3
30003ecc:	fef41723          	sh	a5,-18(s0)
30003ed0:	00058793          	mv	a5,a1
30003ed4:	fef41623          	sh	a5,-20(s0)
30003ed8:	00060793          	mv	a5,a2
30003edc:	fef41523          	sh	a5,-22(s0)
30003ee0:	00070793          	mv	a5,a4
30003ee4:	fef41423          	sh	a5,-24(s0)
30003ee8:	02a00513          	li	a0,42
30003eec:	cecff0ef          	jal	300033d8 <lcd_wr_cmd>
30003ef0:	fee45783          	lhu	a5,-18(s0)
30003ef4:	00078513          	mv	a0,a5
30003ef8:	d64ff0ef          	jal	3000345c <lcd_wr_data16>
30003efc:	fea45783          	lhu	a5,-22(s0)
30003f00:	00078513          	mv	a0,a5
30003f04:	d58ff0ef          	jal	3000345c <lcd_wr_data16>
30003f08:	02b00513          	li	a0,43
30003f0c:	cccff0ef          	jal	300033d8 <lcd_wr_cmd>
30003f10:	fec45783          	lhu	a5,-20(s0)
30003f14:	00078513          	mv	a0,a5
30003f18:	d44ff0ef          	jal	3000345c <lcd_wr_data16>
30003f1c:	fe845783          	lhu	a5,-24(s0)
30003f20:	00078513          	mv	a0,a5
30003f24:	d38ff0ef          	jal	3000345c <lcd_wr_data16>
30003f28:	02c00513          	li	a0,44
30003f2c:	cacff0ef          	jal	300033d8 <lcd_wr_cmd>
30003f30:	00000013          	nop
30003f34:	01c12083          	lw	ra,28(sp)
30003f38:	01812403          	lw	s0,24(sp)
30003f3c:	02010113          	addi	sp,sp,32
30003f40:	00008067          	ret

30003f44 <lcd_fill>:
30003f44:	f7010113          	addi	sp,sp,-144
30003f48:	08112623          	sw	ra,140(sp)
30003f4c:	08812423          	sw	s0,136(sp)
30003f50:	09010413          	addi	s0,sp,144
30003f54:	00050793          	mv	a5,a0
30003f58:	fce42a23          	sw	a4,-44(s0)
30003f5c:	fcf41f23          	sh	a5,-34(s0)
30003f60:	00058793          	mv	a5,a1
30003f64:	fcf41e23          	sh	a5,-36(s0)
30003f68:	00060793          	mv	a5,a2
30003f6c:	fcf41d23          	sh	a5,-38(s0)
30003f70:	00068793          	mv	a5,a3
30003f74:	fcf41c23          	sh	a5,-40(s0)
30003f78:	fda45783          	lhu	a5,-38(s0)
30003f7c:	fff78793          	addi	a5,a5,-1
30003f80:	01079613          	slli	a2,a5,0x10
30003f84:	01065613          	srli	a2,a2,0x10
30003f88:	fd845783          	lhu	a5,-40(s0)
30003f8c:	fff78793          	addi	a5,a5,-1
30003f90:	01079693          	slli	a3,a5,0x10
30003f94:	0106d693          	srli	a3,a3,0x10
30003f98:	fdc45703          	lhu	a4,-36(s0)
30003f9c:	fde45783          	lhu	a5,-34(s0)
30003fa0:	00070593          	mv	a1,a4
30003fa4:	00078513          	mv	a0,a5
30003fa8:	f0dff0ef          	jal	30003eb4 <lcd_addr_set>
30003fac:	fdc45783          	lhu	a5,-36(s0)
30003fb0:	fef41723          	sh	a5,-18(s0)
30003fb4:	1180006f          	j	300040cc <lcd_fill+0x188>
30003fb8:	fde45783          	lhu	a5,-34(s0)
30003fbc:	fef41623          	sh	a5,-20(s0)
30003fc0:	0f40006f          	j	300040b4 <lcd_fill+0x170>
30003fc4:	fd442783          	lw	a5,-44(s0)
30003fc8:	04f12e23          	sw	a5,92(sp)
30003fcc:	fd442783          	lw	a5,-44(s0)
30003fd0:	04f12c23          	sw	a5,88(sp)
30003fd4:	fd442783          	lw	a5,-44(s0)
30003fd8:	04f12a23          	sw	a5,84(sp)
30003fdc:	fd442783          	lw	a5,-44(s0)
30003fe0:	04f12823          	sw	a5,80(sp)
30003fe4:	fd442783          	lw	a5,-44(s0)
30003fe8:	04f12623          	sw	a5,76(sp)
30003fec:	fd442783          	lw	a5,-44(s0)
30003ff0:	04f12423          	sw	a5,72(sp)
30003ff4:	fd442783          	lw	a5,-44(s0)
30003ff8:	04f12223          	sw	a5,68(sp)
30003ffc:	fd442783          	lw	a5,-44(s0)
30004000:	04f12023          	sw	a5,64(sp)
30004004:	fd442783          	lw	a5,-44(s0)
30004008:	02f12e23          	sw	a5,60(sp)
3000400c:	fd442783          	lw	a5,-44(s0)
30004010:	02f12c23          	sw	a5,56(sp)
30004014:	fd442783          	lw	a5,-44(s0)
30004018:	02f12a23          	sw	a5,52(sp)
3000401c:	fd442783          	lw	a5,-44(s0)
30004020:	02f12823          	sw	a5,48(sp)
30004024:	fd442783          	lw	a5,-44(s0)
30004028:	02f12623          	sw	a5,44(sp)
3000402c:	fd442783          	lw	a5,-44(s0)
30004030:	02f12423          	sw	a5,40(sp)
30004034:	fd442783          	lw	a5,-44(s0)
30004038:	02f12223          	sw	a5,36(sp)
3000403c:	fd442783          	lw	a5,-44(s0)
30004040:	02f12023          	sw	a5,32(sp)
30004044:	fd442783          	lw	a5,-44(s0)
30004048:	00f12e23          	sw	a5,28(sp)
3000404c:	fd442783          	lw	a5,-44(s0)
30004050:	00f12c23          	sw	a5,24(sp)
30004054:	fd442783          	lw	a5,-44(s0)
30004058:	00f12a23          	sw	a5,20(sp)
3000405c:	fd442783          	lw	a5,-44(s0)
30004060:	00f12823          	sw	a5,16(sp)
30004064:	fd442783          	lw	a5,-44(s0)
30004068:	00f12623          	sw	a5,12(sp)
3000406c:	fd442783          	lw	a5,-44(s0)
30004070:	00f12423          	sw	a5,8(sp)
30004074:	fd442783          	lw	a5,-44(s0)
30004078:	00f12223          	sw	a5,4(sp)
3000407c:	fd442783          	lw	a5,-44(s0)
30004080:	00f12023          	sw	a5,0(sp)
30004084:	fd442883          	lw	a7,-44(s0)
30004088:	fd442803          	lw	a6,-44(s0)
3000408c:	fd442783          	lw	a5,-44(s0)
30004090:	fd442703          	lw	a4,-44(s0)
30004094:	fd442683          	lw	a3,-44(s0)
30004098:	fd442603          	lw	a2,-44(s0)
3000409c:	fd442583          	lw	a1,-44(s0)
300040a0:	fd442503          	lw	a0,-44(s0)
300040a4:	ff4ff0ef          	jal	30003898 <lcd_wr_data32x32>
300040a8:	fec45783          	lhu	a5,-20(s0)
300040ac:	04078793          	addi	a5,a5,64
300040b0:	fef41623          	sh	a5,-20(s0)
300040b4:	fec45703          	lhu	a4,-20(s0)
300040b8:	fda45783          	lhu	a5,-38(s0)
300040bc:	f0f764e3          	bltu	a4,a5,30003fc4 <lcd_fill+0x80>
300040c0:	fee45783          	lhu	a5,-18(s0)
300040c4:	00178793          	addi	a5,a5,1
300040c8:	fef41723          	sh	a5,-18(s0)
300040cc:	fee45703          	lhu	a4,-18(s0)
300040d0:	fd845783          	lhu	a5,-40(s0)
300040d4:	eef762e3          	bltu	a4,a5,30003fb8 <lcd_fill+0x74>
300040d8:	00000013          	nop
300040dc:	00000013          	nop
300040e0:	08c12083          	lw	ra,140(sp)
300040e4:	08812403          	lw	s0,136(sp)
300040e8:	09010113          	addi	sp,sp,144
300040ec:	00008067          	ret

300040f0 <lcd_fill_image>:
300040f0:	f2010113          	addi	sp,sp,-224
300040f4:	0c112e23          	sw	ra,220(sp)
300040f8:	0c812c23          	sw	s0,216(sp)
300040fc:	0c912a23          	sw	s1,212(sp)
30004100:	0d212823          	sw	s2,208(sp)
30004104:	0d312623          	sw	s3,204(sp)
30004108:	0d412423          	sw	s4,200(sp)
3000410c:	0d512223          	sw	s5,196(sp)
30004110:	0d612023          	sw	s6,192(sp)
30004114:	0b712e23          	sw	s7,188(sp)
30004118:	0b812c23          	sw	s8,184(sp)
3000411c:	0b912a23          	sw	s9,180(sp)
30004120:	0ba12823          	sw	s10,176(sp)
30004124:	0bb12623          	sw	s11,172(sp)
30004128:	0e010413          	addi	s0,sp,224
3000412c:	00050793          	mv	a5,a0
30004130:	fae42223          	sw	a4,-92(s0)
30004134:	faf41723          	sh	a5,-82(s0)
30004138:	00058793          	mv	a5,a1
3000413c:	faf41623          	sh	a5,-84(s0)
30004140:	00060793          	mv	a5,a2
30004144:	faf41523          	sh	a5,-86(s0)
30004148:	00068793          	mv	a5,a3
3000414c:	faf41423          	sh	a5,-88(s0)
30004150:	fae45783          	lhu	a5,-82(s0)
30004154:	00078713          	mv	a4,a5
30004158:	faa45783          	lhu	a5,-86(s0)
3000415c:	00f707b3          	add	a5,a4,a5
30004160:	01079793          	slli	a5,a5,0x10
30004164:	0107d793          	srli	a5,a5,0x10
30004168:	fff78793          	addi	a5,a5,-1
3000416c:	01079613          	slli	a2,a5,0x10
30004170:	01065613          	srli	a2,a2,0x10
30004174:	fac45783          	lhu	a5,-84(s0)
30004178:	00078713          	mv	a4,a5
3000417c:	fa845783          	lhu	a5,-88(s0)
30004180:	00f707b3          	add	a5,a4,a5
30004184:	01079793          	slli	a5,a5,0x10
30004188:	0107d793          	srli	a5,a5,0x10
3000418c:	fff78793          	addi	a5,a5,-1
30004190:	01079693          	slli	a3,a5,0x10
30004194:	0106d693          	srli	a3,a3,0x10
30004198:	fac45703          	lhu	a4,-84(s0)
3000419c:	fae45783          	lhu	a5,-82(s0)
300041a0:	00070593          	mv	a1,a4
300041a4:	00078513          	mv	a0,a5
300041a8:	d0dff0ef          	jal	30003eb4 <lcd_addr_set>
300041ac:	fa041f23          	sh	zero,-66(s0)
300041b0:	40c0006f          	j	300045bc <lcd_fill_image+0x4cc>
300041b4:	fbe45783          	lhu	a5,-66(s0)
300041b8:	00179793          	slli	a5,a5,0x1
300041bc:	fa442703          	lw	a4,-92(s0)
300041c0:	00f707b3          	add	a5,a4,a5
300041c4:	0007d783          	lhu	a5,0(a5)
300041c8:	00078d93          	mv	s11,a5
300041cc:	fbe45783          	lhu	a5,-66(s0)
300041d0:	00178793          	addi	a5,a5,1
300041d4:	00179793          	slli	a5,a5,0x1
300041d8:	fa442703          	lw	a4,-92(s0)
300041dc:	00f707b3          	add	a5,a4,a5
300041e0:	0007d783          	lhu	a5,0(a5)
300041e4:	faf42023          	sw	a5,-96(s0)
300041e8:	fbe45783          	lhu	a5,-66(s0)
300041ec:	00278793          	addi	a5,a5,2
300041f0:	00179793          	slli	a5,a5,0x1
300041f4:	fa442703          	lw	a4,-92(s0)
300041f8:	00f707b3          	add	a5,a4,a5
300041fc:	0007d783          	lhu	a5,0(a5)
30004200:	f8f42e23          	sw	a5,-100(s0)
30004204:	fbe45783          	lhu	a5,-66(s0)
30004208:	00378793          	addi	a5,a5,3
3000420c:	00179793          	slli	a5,a5,0x1
30004210:	fa442703          	lw	a4,-92(s0)
30004214:	00f707b3          	add	a5,a4,a5
30004218:	0007d783          	lhu	a5,0(a5)
3000421c:	f8f42c23          	sw	a5,-104(s0)
30004220:	fbe45783          	lhu	a5,-66(s0)
30004224:	00478793          	addi	a5,a5,4
30004228:	00179793          	slli	a5,a5,0x1
3000422c:	fa442703          	lw	a4,-92(s0)
30004230:	00f707b3          	add	a5,a4,a5
30004234:	0007d783          	lhu	a5,0(a5)
30004238:	f8f42a23          	sw	a5,-108(s0)
3000423c:	fbe45783          	lhu	a5,-66(s0)
30004240:	00578793          	addi	a5,a5,5
30004244:	00179793          	slli	a5,a5,0x1
30004248:	fa442703          	lw	a4,-92(s0)
3000424c:	00f707b3          	add	a5,a4,a5
30004250:	0007d783          	lhu	a5,0(a5)
30004254:	f8f42823          	sw	a5,-112(s0)
30004258:	fbe45783          	lhu	a5,-66(s0)
3000425c:	00678793          	addi	a5,a5,6
30004260:	00179793          	slli	a5,a5,0x1
30004264:	fa442703          	lw	a4,-92(s0)
30004268:	00f707b3          	add	a5,a4,a5
3000426c:	0007d783          	lhu	a5,0(a5)
30004270:	f8f42623          	sw	a5,-116(s0)
30004274:	fbe45783          	lhu	a5,-66(s0)
30004278:	00778793          	addi	a5,a5,7
3000427c:	00179793          	slli	a5,a5,0x1
30004280:	fa442703          	lw	a4,-92(s0)
30004284:	00f707b3          	add	a5,a4,a5
30004288:	0007d783          	lhu	a5,0(a5)
3000428c:	f8f42423          	sw	a5,-120(s0)
30004290:	fbe45783          	lhu	a5,-66(s0)
30004294:	00878793          	addi	a5,a5,8
30004298:	00179793          	slli	a5,a5,0x1
3000429c:	fa442703          	lw	a4,-92(s0)
300042a0:	00f707b3          	add	a5,a4,a5
300042a4:	0007d783          	lhu	a5,0(a5)
300042a8:	00078313          	mv	t1,a5
300042ac:	fbe45783          	lhu	a5,-66(s0)
300042b0:	00978793          	addi	a5,a5,9
300042b4:	00179793          	slli	a5,a5,0x1
300042b8:	fa442703          	lw	a4,-92(s0)
300042bc:	00f707b3          	add	a5,a4,a5
300042c0:	0007d783          	lhu	a5,0(a5)
300042c4:	00078e13          	mv	t3,a5
300042c8:	fbe45783          	lhu	a5,-66(s0)
300042cc:	00a78793          	addi	a5,a5,10
300042d0:	00179793          	slli	a5,a5,0x1
300042d4:	fa442703          	lw	a4,-92(s0)
300042d8:	00f707b3          	add	a5,a4,a5
300042dc:	0007d783          	lhu	a5,0(a5)
300042e0:	00078e93          	mv	t4,a5
300042e4:	fbe45783          	lhu	a5,-66(s0)
300042e8:	00b78793          	addi	a5,a5,11
300042ec:	00179793          	slli	a5,a5,0x1
300042f0:	fa442703          	lw	a4,-92(s0)
300042f4:	00f707b3          	add	a5,a4,a5
300042f8:	0007d783          	lhu	a5,0(a5)
300042fc:	00078f13          	mv	t5,a5
30004300:	fbe45783          	lhu	a5,-66(s0)
30004304:	00c78793          	addi	a5,a5,12
30004308:	00179793          	slli	a5,a5,0x1
3000430c:	fa442703          	lw	a4,-92(s0)
30004310:	00f707b3          	add	a5,a4,a5
30004314:	0007d783          	lhu	a5,0(a5)
30004318:	00078f93          	mv	t6,a5
3000431c:	fbe45783          	lhu	a5,-66(s0)
30004320:	00d78793          	addi	a5,a5,13
30004324:	00179793          	slli	a5,a5,0x1
30004328:	fa442703          	lw	a4,-92(s0)
3000432c:	00f707b3          	add	a5,a4,a5
30004330:	0007d783          	lhu	a5,0(a5)
30004334:	00078293          	mv	t0,a5
30004338:	fbe45783          	lhu	a5,-66(s0)
3000433c:	00e78793          	addi	a5,a5,14
30004340:	00179793          	slli	a5,a5,0x1
30004344:	fa442703          	lw	a4,-92(s0)
30004348:	00f707b3          	add	a5,a4,a5
3000434c:	0007d783          	lhu	a5,0(a5)
30004350:	00078393          	mv	t2,a5
30004354:	fbe45783          	lhu	a5,-66(s0)
30004358:	00f78793          	addi	a5,a5,15
3000435c:	00179793          	slli	a5,a5,0x1
30004360:	fa442703          	lw	a4,-92(s0)
30004364:	00f707b3          	add	a5,a4,a5
30004368:	0007d783          	lhu	a5,0(a5)
3000436c:	00078493          	mv	s1,a5
30004370:	fbe45783          	lhu	a5,-66(s0)
30004374:	01078793          	addi	a5,a5,16
30004378:	00179793          	slli	a5,a5,0x1
3000437c:	fa442703          	lw	a4,-92(s0)
30004380:	00f707b3          	add	a5,a4,a5
30004384:	0007d783          	lhu	a5,0(a5)
30004388:	00078913          	mv	s2,a5
3000438c:	fbe45783          	lhu	a5,-66(s0)
30004390:	01178793          	addi	a5,a5,17
30004394:	00179793          	slli	a5,a5,0x1
30004398:	fa442703          	lw	a4,-92(s0)
3000439c:	00f707b3          	add	a5,a4,a5
300043a0:	0007d783          	lhu	a5,0(a5)
300043a4:	00078993          	mv	s3,a5
300043a8:	fbe45783          	lhu	a5,-66(s0)
300043ac:	01278793          	addi	a5,a5,18
300043b0:	00179793          	slli	a5,a5,0x1
300043b4:	fa442703          	lw	a4,-92(s0)
300043b8:	00f707b3          	add	a5,a4,a5
300043bc:	0007d783          	lhu	a5,0(a5)
300043c0:	00078a13          	mv	s4,a5
300043c4:	fbe45783          	lhu	a5,-66(s0)
300043c8:	01378793          	addi	a5,a5,19
300043cc:	00179793          	slli	a5,a5,0x1
300043d0:	fa442703          	lw	a4,-92(s0)
300043d4:	00f707b3          	add	a5,a4,a5
300043d8:	0007d783          	lhu	a5,0(a5)
300043dc:	00078a93          	mv	s5,a5
300043e0:	fbe45783          	lhu	a5,-66(s0)
300043e4:	01478793          	addi	a5,a5,20
300043e8:	00179793          	slli	a5,a5,0x1
300043ec:	fa442703          	lw	a4,-92(s0)
300043f0:	00f707b3          	add	a5,a4,a5
300043f4:	0007d783          	lhu	a5,0(a5)
300043f8:	00078b13          	mv	s6,a5
300043fc:	fbe45783          	lhu	a5,-66(s0)
30004400:	01578793          	addi	a5,a5,21
30004404:	00179793          	slli	a5,a5,0x1
30004408:	fa442703          	lw	a4,-92(s0)
3000440c:	00f707b3          	add	a5,a4,a5
30004410:	0007d783          	lhu	a5,0(a5)
30004414:	00078b93          	mv	s7,a5
30004418:	fbe45783          	lhu	a5,-66(s0)
3000441c:	01678793          	addi	a5,a5,22
30004420:	00179793          	slli	a5,a5,0x1
30004424:	fa442703          	lw	a4,-92(s0)
30004428:	00f707b3          	add	a5,a4,a5
3000442c:	0007d783          	lhu	a5,0(a5)
30004430:	00078c13          	mv	s8,a5
30004434:	fbe45783          	lhu	a5,-66(s0)
30004438:	01778793          	addi	a5,a5,23
3000443c:	00179793          	slli	a5,a5,0x1
30004440:	fa442703          	lw	a4,-92(s0)
30004444:	00f707b3          	add	a5,a4,a5
30004448:	0007d783          	lhu	a5,0(a5)
3000444c:	00078c93          	mv	s9,a5
30004450:	fbe45783          	lhu	a5,-66(s0)
30004454:	01878793          	addi	a5,a5,24
30004458:	00179793          	slli	a5,a5,0x1
3000445c:	fa442703          	lw	a4,-92(s0)
30004460:	00f707b3          	add	a5,a4,a5
30004464:	0007d783          	lhu	a5,0(a5)
30004468:	00078d13          	mv	s10,a5
3000446c:	fbe45783          	lhu	a5,-66(s0)
30004470:	01978793          	addi	a5,a5,25
30004474:	00179793          	slli	a5,a5,0x1
30004478:	fa442703          	lw	a4,-92(s0)
3000447c:	00f707b3          	add	a5,a4,a5
30004480:	0007d783          	lhu	a5,0(a5)
30004484:	00078893          	mv	a7,a5
30004488:	fbe45783          	lhu	a5,-66(s0)
3000448c:	01a78793          	addi	a5,a5,26
30004490:	00179713          	slli	a4,a5,0x1
30004494:	fa442783          	lw	a5,-92(s0)
30004498:	00e787b3          	add	a5,a5,a4
3000449c:	0007d783          	lhu	a5,0(a5)
300044a0:	00078813          	mv	a6,a5
300044a4:	fbe45783          	lhu	a5,-66(s0)
300044a8:	01b78793          	addi	a5,a5,27
300044ac:	00179713          	slli	a4,a5,0x1
300044b0:	fa442783          	lw	a5,-92(s0)
300044b4:	00e787b3          	add	a5,a5,a4
300044b8:	0007d783          	lhu	a5,0(a5)
300044bc:	00078513          	mv	a0,a5
300044c0:	fbe45783          	lhu	a5,-66(s0)
300044c4:	01c78793          	addi	a5,a5,28
300044c8:	00179713          	slli	a4,a5,0x1
300044cc:	fa442783          	lw	a5,-92(s0)
300044d0:	00e787b3          	add	a5,a5,a4
300044d4:	0007d783          	lhu	a5,0(a5)
300044d8:	00078593          	mv	a1,a5
300044dc:	fbe45783          	lhu	a5,-66(s0)
300044e0:	01d78793          	addi	a5,a5,29
300044e4:	00179713          	slli	a4,a5,0x1
300044e8:	fa442783          	lw	a5,-92(s0)
300044ec:	00e787b3          	add	a5,a5,a4
300044f0:	0007d783          	lhu	a5,0(a5)
300044f4:	00078613          	mv	a2,a5
300044f8:	fbe45783          	lhu	a5,-66(s0)
300044fc:	01e78793          	addi	a5,a5,30
30004500:	00179713          	slli	a4,a5,0x1
30004504:	fa442783          	lw	a5,-92(s0)
30004508:	00e787b3          	add	a5,a5,a4
3000450c:	0007d783          	lhu	a5,0(a5)
30004510:	00078693          	mv	a3,a5
30004514:	fbe45783          	lhu	a5,-66(s0)
30004518:	01f78793          	addi	a5,a5,31
3000451c:	00179713          	slli	a4,a5,0x1
30004520:	fa442783          	lw	a5,-92(s0)
30004524:	00e787b3          	add	a5,a5,a4
30004528:	0007d783          	lhu	a5,0(a5)
3000452c:	04f12e23          	sw	a5,92(sp)
30004530:	04d12c23          	sw	a3,88(sp)
30004534:	04c12a23          	sw	a2,84(sp)
30004538:	04b12823          	sw	a1,80(sp)
3000453c:	04a12623          	sw	a0,76(sp)
30004540:	05012423          	sw	a6,72(sp)
30004544:	05112223          	sw	a7,68(sp)
30004548:	05a12023          	sw	s10,64(sp)
3000454c:	03912e23          	sw	s9,60(sp)
30004550:	03812c23          	sw	s8,56(sp)
30004554:	03712a23          	sw	s7,52(sp)
30004558:	03612823          	sw	s6,48(sp)
3000455c:	03512623          	sw	s5,44(sp)
30004560:	03412423          	sw	s4,40(sp)
30004564:	03312223          	sw	s3,36(sp)
30004568:	03212023          	sw	s2,32(sp)
3000456c:	00912e23          	sw	s1,28(sp)
30004570:	00712c23          	sw	t2,24(sp)
30004574:	00512a23          	sw	t0,20(sp)
30004578:	01f12823          	sw	t6,16(sp)
3000457c:	01e12623          	sw	t5,12(sp)
30004580:	01d12423          	sw	t4,8(sp)
30004584:	01c12223          	sw	t3,4(sp)
30004588:	00612023          	sw	t1,0(sp)
3000458c:	f8842883          	lw	a7,-120(s0)
30004590:	f8c42803          	lw	a6,-116(s0)
30004594:	f9042783          	lw	a5,-112(s0)
30004598:	f9442703          	lw	a4,-108(s0)
3000459c:	f9842683          	lw	a3,-104(s0)
300045a0:	f9c42603          	lw	a2,-100(s0)
300045a4:	fa042583          	lw	a1,-96(s0)
300045a8:	000d8513          	mv	a0,s11
300045ac:	aecff0ef          	jal	30003898 <lcd_wr_data32x32>
300045b0:	fbe45783          	lhu	a5,-66(s0)
300045b4:	00178793          	addi	a5,a5,1
300045b8:	faf41f23          	sh	a5,-66(s0)
300045bc:	fbe45703          	lhu	a4,-66(s0)
300045c0:	fa845683          	lhu	a3,-88(s0)
300045c4:	faa45783          	lhu	a5,-86(s0)
300045c8:	02f687b3          	mul	a5,a3,a5
300045cc:	00179793          	slli	a5,a5,0x1
300045d0:	bef742e3          	blt	a4,a5,300041b4 <lcd_fill_image+0xc4>
300045d4:	00000013          	nop
300045d8:	00000013          	nop
300045dc:	0dc12083          	lw	ra,220(sp)
300045e0:	0d812403          	lw	s0,216(sp)
300045e4:	0d412483          	lw	s1,212(sp)
300045e8:	0d012903          	lw	s2,208(sp)
300045ec:	0cc12983          	lw	s3,204(sp)
300045f0:	0c812a03          	lw	s4,200(sp)
300045f4:	0c412a83          	lw	s5,196(sp)
300045f8:	0c012b03          	lw	s6,192(sp)
300045fc:	0bc12b83          	lw	s7,188(sp)
30004600:	0b812c03          	lw	s8,184(sp)
30004604:	0b412c83          	lw	s9,180(sp)
30004608:	0b012d03          	lw	s10,176(sp)
3000460c:	0ac12d83          	lw	s11,172(sp)
30004610:	0e010113          	addi	sp,sp,224
30004614:	00008067          	ret

30004618 <myspi_wr_dat8>:
30004618:	fe010113          	addi	sp,sp,-32
3000461c:	00112e23          	sw	ra,28(sp)
30004620:	00812c23          	sw	s0,24(sp)
30004624:	02010413          	addi	s0,sp,32
30004628:	00050e93          	mv	t4,a0
3000462c:	00058e13          	mv	t3,a1
30004630:	00060313          	mv	t1,a2
30004634:	00068513          	mv	a0,a3
30004638:	00070593          	mv	a1,a4
3000463c:	00078613          	mv	a2,a5
30004640:	00080693          	mv	a3,a6
30004644:	00088713          	mv	a4,a7
30004648:	000e8793          	mv	a5,t4
3000464c:	fef407a3          	sb	a5,-17(s0)
30004650:	000e0793          	mv	a5,t3
30004654:	fef40723          	sb	a5,-18(s0)
30004658:	00030793          	mv	a5,t1
3000465c:	fef406a3          	sb	a5,-19(s0)
30004660:	00050793          	mv	a5,a0
30004664:	fef40623          	sb	a5,-20(s0)
30004668:	00058793          	mv	a5,a1
3000466c:	fef405a3          	sb	a5,-21(s0)
30004670:	00060793          	mv	a5,a2
30004674:	fef40523          	sb	a5,-22(s0)
30004678:	00068793          	mv	a5,a3
3000467c:	fef404a3          	sb	a5,-23(s0)
30004680:	00070793          	mv	a5,a4
30004684:	fef40423          	sb	a5,-24(s0)
30004688:	030007b7          	lui	a5,0x3000
3000468c:	00400713          	li	a4,4
30004690:	00e7a023          	sw	a4,0(a5) # 3000000 <_ebss-0x1000000>
30004694:	030077b7          	lui	a5,0x3007
30004698:	01078793          	addi	a5,a5,16 # 3007010 <_ebss-0xff8ff0>
3000469c:	04000737          	lui	a4,0x4000
300046a0:	00e7a023          	sw	a4,0(a5)
300046a4:	fef44783          	lbu	a5,-17(s0)
300046a8:	01879713          	slli	a4,a5,0x18
300046ac:	fee44783          	lbu	a5,-18(s0)
300046b0:	01079793          	slli	a5,a5,0x10
300046b4:	00f76733          	or	a4,a4,a5
300046b8:	fed44783          	lbu	a5,-19(s0)
300046bc:	00879793          	slli	a5,a5,0x8
300046c0:	00f766b3          	or	a3,a4,a5
300046c4:	fec44703          	lbu	a4,-20(s0)
300046c8:	030077b7          	lui	a5,0x3007
300046cc:	01878793          	addi	a5,a5,24 # 3007018 <_ebss-0xff8fe8>
300046d0:	00e6e733          	or	a4,a3,a4
300046d4:	00e7a023          	sw	a4,0(a5)
300046d8:	feb44783          	lbu	a5,-21(s0)
300046dc:	01879713          	slli	a4,a5,0x18
300046e0:	fea44783          	lbu	a5,-22(s0)
300046e4:	01079793          	slli	a5,a5,0x10
300046e8:	00f76733          	or	a4,a4,a5
300046ec:	fe944783          	lbu	a5,-23(s0)
300046f0:	00879793          	slli	a5,a5,0x8
300046f4:	00f766b3          	or	a3,a4,a5
300046f8:	fe844703          	lbu	a4,-24(s0)
300046fc:	030077b7          	lui	a5,0x3007
30004700:	01878793          	addi	a5,a5,24 # 3007018 <_ebss-0xff8fe8>
30004704:	00e6e733          	or	a4,a3,a4
30004708:	00e7a023          	sw	a4,0(a5)
3000470c:	00044783          	lbu	a5,0(s0)
30004710:	01879713          	slli	a4,a5,0x18
30004714:	00444783          	lbu	a5,4(s0)
30004718:	01079793          	slli	a5,a5,0x10
3000471c:	00f76733          	or	a4,a4,a5
30004720:	00844783          	lbu	a5,8(s0)
30004724:	00879793          	slli	a5,a5,0x8
30004728:	00f766b3          	or	a3,a4,a5
3000472c:	00c44703          	lbu	a4,12(s0)
30004730:	030077b7          	lui	a5,0x3007
30004734:	01878793          	addi	a5,a5,24 # 3007018 <_ebss-0xff8fe8>
30004738:	00e6e733          	or	a4,a3,a4
3000473c:	00e7a023          	sw	a4,0(a5)
30004740:	01044783          	lbu	a5,16(s0)
30004744:	01879713          	slli	a4,a5,0x18
30004748:	01444783          	lbu	a5,20(s0)
3000474c:	01079793          	slli	a5,a5,0x10
30004750:	00f76733          	or	a4,a4,a5
30004754:	01844783          	lbu	a5,24(s0)
30004758:	00879793          	slli	a5,a5,0x8
3000475c:	00f766b3          	or	a3,a4,a5
30004760:	01c44703          	lbu	a4,28(s0)
30004764:	030077b7          	lui	a5,0x3007
30004768:	01878793          	addi	a5,a5,24 # 3007018 <_ebss-0xff8fe8>
3000476c:	00e6e733          	or	a4,a3,a4
30004770:	00e7a023          	sw	a4,0(a5)
30004774:	02044783          	lbu	a5,32(s0)
30004778:	01879713          	slli	a4,a5,0x18
3000477c:	02444783          	lbu	a5,36(s0)
30004780:	01079793          	slli	a5,a5,0x10
30004784:	00f76733          	or	a4,a4,a5
30004788:	02844783          	lbu	a5,40(s0)
3000478c:	00879793          	slli	a5,a5,0x8
30004790:	00f766b3          	or	a3,a4,a5
30004794:	02c44703          	lbu	a4,44(s0)
30004798:	030077b7          	lui	a5,0x3007
3000479c:	01878793          	addi	a5,a5,24 # 3007018 <_ebss-0xff8fe8>
300047a0:	00e6e733          	or	a4,a3,a4
300047a4:	00e7a023          	sw	a4,0(a5)
300047a8:	03044783          	lbu	a5,48(s0)
300047ac:	01879713          	slli	a4,a5,0x18
300047b0:	03444783          	lbu	a5,52(s0)
300047b4:	01079793          	slli	a5,a5,0x10
300047b8:	00f76733          	or	a4,a4,a5
300047bc:	03844783          	lbu	a5,56(s0)
300047c0:	00879793          	slli	a5,a5,0x8
300047c4:	00f766b3          	or	a3,a4,a5
300047c8:	03c44703          	lbu	a4,60(s0)
300047cc:	030077b7          	lui	a5,0x3007
300047d0:	01878793          	addi	a5,a5,24 # 3007018 <_ebss-0xff8fe8>
300047d4:	00e6e733          	or	a4,a3,a4
300047d8:	00e7a023          	sw	a4,0(a5)
300047dc:	04044783          	lbu	a5,64(s0)
300047e0:	01879713          	slli	a4,a5,0x18
300047e4:	04444783          	lbu	a5,68(s0)
300047e8:	01079793          	slli	a5,a5,0x10
300047ec:	00f76733          	or	a4,a4,a5
300047f0:	04844783          	lbu	a5,72(s0)
300047f4:	00879793          	slli	a5,a5,0x8
300047f8:	00f766b3          	or	a3,a4,a5
300047fc:	04c44703          	lbu	a4,76(s0)
30004800:	030077b7          	lui	a5,0x3007
30004804:	01878793          	addi	a5,a5,24 # 3007018 <_ebss-0xff8fe8>
30004808:	00e6e733          	or	a4,a3,a4
3000480c:	00e7a023          	sw	a4,0(a5)
30004810:	05044783          	lbu	a5,80(s0)
30004814:	01879713          	slli	a4,a5,0x18
30004818:	05444783          	lbu	a5,84(s0)
3000481c:	01079793          	slli	a5,a5,0x10
30004820:	00f76733          	or	a4,a4,a5
30004824:	05844783          	lbu	a5,88(s0)
30004828:	00879793          	slli	a5,a5,0x8
3000482c:	00f766b3          	or	a3,a4,a5
30004830:	05c44703          	lbu	a4,92(s0)
30004834:	030077b7          	lui	a5,0x3007
30004838:	01878793          	addi	a5,a5,24 # 3007018 <_ebss-0xff8fe8>
3000483c:	00e6e733          	or	a4,a3,a4
30004840:	00e7a023          	sw	a4,0(a5)
30004844:	06044783          	lbu	a5,96(s0)
30004848:	01879713          	slli	a4,a5,0x18
3000484c:	06444783          	lbu	a5,100(s0)
30004850:	01079793          	slli	a5,a5,0x10
30004854:	00f76733          	or	a4,a4,a5
30004858:	06844783          	lbu	a5,104(s0)
3000485c:	00879793          	slli	a5,a5,0x8
30004860:	00f766b3          	or	a3,a4,a5
30004864:	06c44703          	lbu	a4,108(s0)
30004868:	030077b7          	lui	a5,0x3007
3000486c:	01878793          	addi	a5,a5,24 # 3007018 <_ebss-0xff8fe8>
30004870:	00e6e733          	or	a4,a3,a4
30004874:	00e7a023          	sw	a4,0(a5)
30004878:	07044783          	lbu	a5,112(s0)
3000487c:	01879713          	slli	a4,a5,0x18
30004880:	07444783          	lbu	a5,116(s0)
30004884:	01079793          	slli	a5,a5,0x10
30004888:	00f76733          	or	a4,a4,a5
3000488c:	07844783          	lbu	a5,120(s0)
30004890:	00879793          	slli	a5,a5,0x8
30004894:	00f766b3          	or	a3,a4,a5
30004898:	07c44703          	lbu	a4,124(s0)
3000489c:	030077b7          	lui	a5,0x3007
300048a0:	01878793          	addi	a5,a5,24 # 3007018 <_ebss-0xff8fe8>
300048a4:	00e6e733          	or	a4,a3,a4
300048a8:	00e7a023          	sw	a4,0(a5)
300048ac:	08044783          	lbu	a5,128(s0)
300048b0:	01879713          	slli	a4,a5,0x18
300048b4:	08444783          	lbu	a5,132(s0)
300048b8:	01079793          	slli	a5,a5,0x10
300048bc:	00f76733          	or	a4,a4,a5
300048c0:	08844783          	lbu	a5,136(s0)
300048c4:	00879793          	slli	a5,a5,0x8
300048c8:	00f766b3          	or	a3,a4,a5
300048cc:	08c44703          	lbu	a4,140(s0)
300048d0:	030077b7          	lui	a5,0x3007
300048d4:	01878793          	addi	a5,a5,24 # 3007018 <_ebss-0xff8fe8>
300048d8:	00e6e733          	or	a4,a3,a4
300048dc:	00e7a023          	sw	a4,0(a5)
300048e0:	09044783          	lbu	a5,144(s0)
300048e4:	01879713          	slli	a4,a5,0x18
300048e8:	09444783          	lbu	a5,148(s0)
300048ec:	01079793          	slli	a5,a5,0x10
300048f0:	00f76733          	or	a4,a4,a5
300048f4:	09844783          	lbu	a5,152(s0)
300048f8:	00879793          	slli	a5,a5,0x8
300048fc:	00f766b3          	or	a3,a4,a5
30004900:	09c44703          	lbu	a4,156(s0)
30004904:	030077b7          	lui	a5,0x3007
30004908:	01878793          	addi	a5,a5,24 # 3007018 <_ebss-0xff8fe8>
3000490c:	00e6e733          	or	a4,a3,a4
30004910:	00e7a023          	sw	a4,0(a5)
30004914:	0a044783          	lbu	a5,160(s0)
30004918:	01879713          	slli	a4,a5,0x18
3000491c:	0a444783          	lbu	a5,164(s0)
30004920:	01079793          	slli	a5,a5,0x10
30004924:	00f76733          	or	a4,a4,a5
30004928:	0a844783          	lbu	a5,168(s0)
3000492c:	00879793          	slli	a5,a5,0x8
30004930:	00f766b3          	or	a3,a4,a5
30004934:	0ac44703          	lbu	a4,172(s0)
30004938:	030077b7          	lui	a5,0x3007
3000493c:	01878793          	addi	a5,a5,24 # 3007018 <_ebss-0xff8fe8>
30004940:	00e6e733          	or	a4,a3,a4
30004944:	00e7a023          	sw	a4,0(a5)
30004948:	0b044783          	lbu	a5,176(s0)
3000494c:	01879713          	slli	a4,a5,0x18
30004950:	0b444783          	lbu	a5,180(s0)
30004954:	01079793          	slli	a5,a5,0x10
30004958:	00f76733          	or	a4,a4,a5
3000495c:	0b844783          	lbu	a5,184(s0)
30004960:	00879793          	slli	a5,a5,0x8
30004964:	00f766b3          	or	a3,a4,a5
30004968:	0bc44703          	lbu	a4,188(s0)
3000496c:	030077b7          	lui	a5,0x3007
30004970:	01878793          	addi	a5,a5,24 # 3007018 <_ebss-0xff8fe8>
30004974:	00e6e733          	or	a4,a3,a4
30004978:	00e7a023          	sw	a4,0(a5)
3000497c:	0c044783          	lbu	a5,192(s0)
30004980:	01879713          	slli	a4,a5,0x18
30004984:	0c444783          	lbu	a5,196(s0)
30004988:	01079793          	slli	a5,a5,0x10
3000498c:	00f76733          	or	a4,a4,a5
30004990:	0c844783          	lbu	a5,200(s0)
30004994:	00879793          	slli	a5,a5,0x8
30004998:	00f766b3          	or	a3,a4,a5
3000499c:	0cc44703          	lbu	a4,204(s0)
300049a0:	030077b7          	lui	a5,0x3007
300049a4:	01878793          	addi	a5,a5,24 # 3007018 <_ebss-0xff8fe8>
300049a8:	00e6e733          	or	a4,a3,a4
300049ac:	00e7a023          	sw	a4,0(a5)
300049b0:	0d044783          	lbu	a5,208(s0)
300049b4:	01879713          	slli	a4,a5,0x18
300049b8:	0d444783          	lbu	a5,212(s0)
300049bc:	01079793          	slli	a5,a5,0x10
300049c0:	00f76733          	or	a4,a4,a5
300049c4:	0d844783          	lbu	a5,216(s0)
300049c8:	00879793          	slli	a5,a5,0x8
300049cc:	00f766b3          	or	a3,a4,a5
300049d0:	0dc44703          	lbu	a4,220(s0)
300049d4:	030077b7          	lui	a5,0x3007
300049d8:	01878793          	addi	a5,a5,24 # 3007018 <_ebss-0xff8fe8>
300049dc:	00e6e733          	or	a4,a3,a4
300049e0:	00e7a023          	sw	a4,0(a5)
300049e4:	0e044783          	lbu	a5,224(s0)
300049e8:	01879713          	slli	a4,a5,0x18
300049ec:	0e444783          	lbu	a5,228(s0)
300049f0:	01079793          	slli	a5,a5,0x10
300049f4:	00f76733          	or	a4,a4,a5
300049f8:	0e844783          	lbu	a5,232(s0)
300049fc:	00879793          	slli	a5,a5,0x8
30004a00:	00f766b3          	or	a3,a4,a5
30004a04:	0ec44703          	lbu	a4,236(s0)
30004a08:	030077b7          	lui	a5,0x3007
30004a0c:	01878793          	addi	a5,a5,24 # 3007018 <_ebss-0xff8fe8>
30004a10:	00e6e733          	or	a4,a3,a4
30004a14:	00e7a023          	sw	a4,0(a5)
30004a18:	0f044783          	lbu	a5,240(s0)
30004a1c:	01879713          	slli	a4,a5,0x18
30004a20:	0f444783          	lbu	a5,244(s0)
30004a24:	01079793          	slli	a5,a5,0x10
30004a28:	00f76733          	or	a4,a4,a5
30004a2c:	0f844783          	lbu	a5,248(s0)
30004a30:	00879793          	slli	a5,a5,0x8
30004a34:	00f766b3          	or	a3,a4,a5
30004a38:	0fc44703          	lbu	a4,252(s0)
30004a3c:	030077b7          	lui	a5,0x3007
30004a40:	01878793          	addi	a5,a5,24 # 3007018 <_ebss-0xff8fe8>
30004a44:	00e6e733          	or	a4,a3,a4
30004a48:	00e7a023          	sw	a4,0(a5)
30004a4c:	10044783          	lbu	a5,256(s0)
30004a50:	01879713          	slli	a4,a5,0x18
30004a54:	10444783          	lbu	a5,260(s0)
30004a58:	01079793          	slli	a5,a5,0x10
30004a5c:	00f76733          	or	a4,a4,a5
30004a60:	10844783          	lbu	a5,264(s0)
30004a64:	00879793          	slli	a5,a5,0x8
30004a68:	00f766b3          	or	a3,a4,a5
30004a6c:	10c44703          	lbu	a4,268(s0)
30004a70:	030077b7          	lui	a5,0x3007
30004a74:	01878793          	addi	a5,a5,24 # 3007018 <_ebss-0xff8fe8>
30004a78:	00e6e733          	or	a4,a3,a4
30004a7c:	00e7a023          	sw	a4,0(a5)
30004a80:	11044783          	lbu	a5,272(s0)
30004a84:	01879713          	slli	a4,a5,0x18
30004a88:	11444783          	lbu	a5,276(s0)
30004a8c:	01079793          	slli	a5,a5,0x10
30004a90:	00f76733          	or	a4,a4,a5
30004a94:	11844783          	lbu	a5,280(s0)
30004a98:	00879793          	slli	a5,a5,0x8
30004a9c:	00f766b3          	or	a3,a4,a5
30004aa0:	11c44703          	lbu	a4,284(s0)
30004aa4:	030077b7          	lui	a5,0x3007
30004aa8:	01878793          	addi	a5,a5,24 # 3007018 <_ebss-0xff8fe8>
30004aac:	00e6e733          	or	a4,a3,a4
30004ab0:	00e7a023          	sw	a4,0(a5)
30004ab4:	12044783          	lbu	a5,288(s0)
30004ab8:	01879713          	slli	a4,a5,0x18
30004abc:	12444783          	lbu	a5,292(s0)
30004ac0:	01079793          	slli	a5,a5,0x10
30004ac4:	00f76733          	or	a4,a4,a5
30004ac8:	12844783          	lbu	a5,296(s0)
30004acc:	00879793          	slli	a5,a5,0x8
30004ad0:	00f766b3          	or	a3,a4,a5
30004ad4:	12c44703          	lbu	a4,300(s0)
30004ad8:	030077b7          	lui	a5,0x3007
30004adc:	01878793          	addi	a5,a5,24 # 3007018 <_ebss-0xff8fe8>
30004ae0:	00e6e733          	or	a4,a3,a4
30004ae4:	00e7a023          	sw	a4,0(a5)
30004ae8:	13044783          	lbu	a5,304(s0)
30004aec:	01879713          	slli	a4,a5,0x18
30004af0:	13444783          	lbu	a5,308(s0)
30004af4:	01079793          	slli	a5,a5,0x10
30004af8:	00f76733          	or	a4,a4,a5
30004afc:	13844783          	lbu	a5,312(s0)
30004b00:	00879793          	slli	a5,a5,0x8
30004b04:	00f766b3          	or	a3,a4,a5
30004b08:	13c44703          	lbu	a4,316(s0)
30004b0c:	030077b7          	lui	a5,0x3007
30004b10:	01878793          	addi	a5,a5,24 # 3007018 <_ebss-0xff8fe8>
30004b14:	00e6e733          	or	a4,a3,a4
30004b18:	00e7a023          	sw	a4,0(a5)
30004b1c:	14044783          	lbu	a5,320(s0)
30004b20:	01879713          	slli	a4,a5,0x18
30004b24:	14444783          	lbu	a5,324(s0)
30004b28:	01079793          	slli	a5,a5,0x10
30004b2c:	00f76733          	or	a4,a4,a5
30004b30:	14844783          	lbu	a5,328(s0)
30004b34:	00879793          	slli	a5,a5,0x8
30004b38:	00f766b3          	or	a3,a4,a5
30004b3c:	14c44703          	lbu	a4,332(s0)
30004b40:	030077b7          	lui	a5,0x3007
30004b44:	01878793          	addi	a5,a5,24 # 3007018 <_ebss-0xff8fe8>
30004b48:	00e6e733          	or	a4,a3,a4
30004b4c:	00e7a023          	sw	a4,0(a5)
30004b50:	15044783          	lbu	a5,336(s0)
30004b54:	01879713          	slli	a4,a5,0x18
30004b58:	15444783          	lbu	a5,340(s0)
30004b5c:	01079793          	slli	a5,a5,0x10
30004b60:	00f76733          	or	a4,a4,a5
30004b64:	15844783          	lbu	a5,344(s0)
30004b68:	00879793          	slli	a5,a5,0x8
30004b6c:	00f766b3          	or	a3,a4,a5
30004b70:	15c44703          	lbu	a4,348(s0)
30004b74:	030077b7          	lui	a5,0x3007
30004b78:	01878793          	addi	a5,a5,24 # 3007018 <_ebss-0xff8fe8>
30004b7c:	00e6e733          	or	a4,a3,a4
30004b80:	00e7a023          	sw	a4,0(a5)
30004b84:	16044783          	lbu	a5,352(s0)
30004b88:	01879713          	slli	a4,a5,0x18
30004b8c:	16444783          	lbu	a5,356(s0)
30004b90:	01079793          	slli	a5,a5,0x10
30004b94:	00f76733          	or	a4,a4,a5
30004b98:	16844783          	lbu	a5,360(s0)
30004b9c:	00879793          	slli	a5,a5,0x8
30004ba0:	00f766b3          	or	a3,a4,a5
30004ba4:	16c44703          	lbu	a4,364(s0)
30004ba8:	030077b7          	lui	a5,0x3007
30004bac:	01878793          	addi	a5,a5,24 # 3007018 <_ebss-0xff8fe8>
30004bb0:	00e6e733          	or	a4,a3,a4
30004bb4:	00e7a023          	sw	a4,0(a5)
30004bb8:	17044783          	lbu	a5,368(s0)
30004bbc:	01879713          	slli	a4,a5,0x18
30004bc0:	17444783          	lbu	a5,372(s0)
30004bc4:	01079793          	slli	a5,a5,0x10
30004bc8:	00f76733          	or	a4,a4,a5
30004bcc:	17844783          	lbu	a5,376(s0)
30004bd0:	00879793          	slli	a5,a5,0x8
30004bd4:	00f766b3          	or	a3,a4,a5
30004bd8:	17c44703          	lbu	a4,380(s0)
30004bdc:	030077b7          	lui	a5,0x3007
30004be0:	01878793          	addi	a5,a5,24 # 3007018 <_ebss-0xff8fe8>
30004be4:	00e6e733          	or	a4,a3,a4
30004be8:	00e7a023          	sw	a4,0(a5)
30004bec:	18044783          	lbu	a5,384(s0)
30004bf0:	01879713          	slli	a4,a5,0x18
30004bf4:	18444783          	lbu	a5,388(s0)
30004bf8:	01079793          	slli	a5,a5,0x10
30004bfc:	00f76733          	or	a4,a4,a5
30004c00:	18844783          	lbu	a5,392(s0)
30004c04:	00879793          	slli	a5,a5,0x8
30004c08:	00f766b3          	or	a3,a4,a5
30004c0c:	18c44703          	lbu	a4,396(s0)
30004c10:	030077b7          	lui	a5,0x3007
30004c14:	01878793          	addi	a5,a5,24 # 3007018 <_ebss-0xff8fe8>
30004c18:	00e6e733          	or	a4,a3,a4
30004c1c:	00e7a023          	sw	a4,0(a5)
30004c20:	19044783          	lbu	a5,400(s0)
30004c24:	01879713          	slli	a4,a5,0x18
30004c28:	19444783          	lbu	a5,404(s0)
30004c2c:	01079793          	slli	a5,a5,0x10
30004c30:	00f76733          	or	a4,a4,a5
30004c34:	19844783          	lbu	a5,408(s0)
30004c38:	00879793          	slli	a5,a5,0x8
30004c3c:	00f766b3          	or	a3,a4,a5
30004c40:	19c44703          	lbu	a4,412(s0)
30004c44:	030077b7          	lui	a5,0x3007
30004c48:	01878793          	addi	a5,a5,24 # 3007018 <_ebss-0xff8fe8>
30004c4c:	00e6e733          	or	a4,a3,a4
30004c50:	00e7a023          	sw	a4,0(a5)
30004c54:	1a044783          	lbu	a5,416(s0)
30004c58:	01879713          	slli	a4,a5,0x18
30004c5c:	1a444783          	lbu	a5,420(s0)
30004c60:	01079793          	slli	a5,a5,0x10
30004c64:	00f76733          	or	a4,a4,a5
30004c68:	1a844783          	lbu	a5,424(s0)
30004c6c:	00879793          	slli	a5,a5,0x8
30004c70:	00f766b3          	or	a3,a4,a5
30004c74:	1ac44703          	lbu	a4,428(s0)
30004c78:	030077b7          	lui	a5,0x3007
30004c7c:	01878793          	addi	a5,a5,24 # 3007018 <_ebss-0xff8fe8>
30004c80:	00e6e733          	or	a4,a3,a4
30004c84:	00e7a023          	sw	a4,0(a5)
30004c88:	1b044783          	lbu	a5,432(s0)
30004c8c:	01879713          	slli	a4,a5,0x18
30004c90:	1b444783          	lbu	a5,436(s0)
30004c94:	01079793          	slli	a5,a5,0x10
30004c98:	00f76733          	or	a4,a4,a5
30004c9c:	1b844783          	lbu	a5,440(s0)
30004ca0:	00879793          	slli	a5,a5,0x8
30004ca4:	00f766b3          	or	a3,a4,a5
30004ca8:	1bc44703          	lbu	a4,444(s0)
30004cac:	030077b7          	lui	a5,0x3007
30004cb0:	01878793          	addi	a5,a5,24 # 3007018 <_ebss-0xff8fe8>
30004cb4:	00e6e733          	or	a4,a3,a4
30004cb8:	00e7a023          	sw	a4,0(a5)
30004cbc:	1c044783          	lbu	a5,448(s0)
30004cc0:	01879713          	slli	a4,a5,0x18
30004cc4:	1c444783          	lbu	a5,452(s0)
30004cc8:	01079793          	slli	a5,a5,0x10
30004ccc:	00f76733          	or	a4,a4,a5
30004cd0:	1c844783          	lbu	a5,456(s0)
30004cd4:	00879793          	slli	a5,a5,0x8
30004cd8:	00f766b3          	or	a3,a4,a5
30004cdc:	1cc44703          	lbu	a4,460(s0)
30004ce0:	030077b7          	lui	a5,0x3007
30004ce4:	01878793          	addi	a5,a5,24 # 3007018 <_ebss-0xff8fe8>
30004ce8:	00e6e733          	or	a4,a3,a4
30004cec:	00e7a023          	sw	a4,0(a5)
30004cf0:	1d044783          	lbu	a5,464(s0)
30004cf4:	01879713          	slli	a4,a5,0x18
30004cf8:	1d444783          	lbu	a5,468(s0)
30004cfc:	01079793          	slli	a5,a5,0x10
30004d00:	00f76733          	or	a4,a4,a5
30004d04:	1d844783          	lbu	a5,472(s0)
30004d08:	00879793          	slli	a5,a5,0x8
30004d0c:	00f766b3          	or	a3,a4,a5
30004d10:	1dc44703          	lbu	a4,476(s0)
30004d14:	030077b7          	lui	a5,0x3007
30004d18:	01878793          	addi	a5,a5,24 # 3007018 <_ebss-0xff8fe8>
30004d1c:	00e6e733          	or	a4,a3,a4
30004d20:	00e7a023          	sw	a4,0(a5)
30004d24:	030077b7          	lui	a5,0x3007
30004d28:	10200713          	li	a4,258
30004d2c:	00e7a023          	sw	a4,0(a5) # 3007000 <_ebss-0xff9000>
30004d30:	00000013          	nop
30004d34:	030077b7          	lui	a5,0x3007
30004d38:	0007a783          	lw	a5,0(a5) # 3007000 <_ebss-0xff9000>
30004d3c:	01079713          	slli	a4,a5,0x10
30004d40:	01075713          	srli	a4,a4,0x10
30004d44:	00100793          	li	a5,1
30004d48:	fef716e3          	bne	a4,a5,30004d34 <myspi_wr_dat8+0x71c>
30004d4c:	00000013          	nop
30004d50:	00000013          	nop
30004d54:	01c12083          	lw	ra,28(sp)
30004d58:	01812403          	lw	s0,24(sp)
30004d5c:	02010113          	addi	sp,sp,32
30004d60:	00008067          	ret

30004d64 <myspi_wr_dat16>:
30004d64:	fe010113          	addi	sp,sp,-32
30004d68:	00112e23          	sw	ra,28(sp)
30004d6c:	00812c23          	sw	s0,24(sp)
30004d70:	02010413          	addi	s0,sp,32
30004d74:	00050e93          	mv	t4,a0
30004d78:	00058e13          	mv	t3,a1
30004d7c:	00060313          	mv	t1,a2
30004d80:	00068513          	mv	a0,a3
30004d84:	00070593          	mv	a1,a4
30004d88:	00078613          	mv	a2,a5
30004d8c:	00080693          	mv	a3,a6
30004d90:	00088713          	mv	a4,a7
30004d94:	000e8793          	mv	a5,t4
30004d98:	fef41723          	sh	a5,-18(s0)
30004d9c:	000e0793          	mv	a5,t3
30004da0:	fef41623          	sh	a5,-20(s0)
30004da4:	00030793          	mv	a5,t1
30004da8:	fef41523          	sh	a5,-22(s0)
30004dac:	00050793          	mv	a5,a0
30004db0:	fef41423          	sh	a5,-24(s0)
30004db4:	00058793          	mv	a5,a1
30004db8:	fef41323          	sh	a5,-26(s0)
30004dbc:	00060793          	mv	a5,a2
30004dc0:	fef41223          	sh	a5,-28(s0)
30004dc4:	00068793          	mv	a5,a3
30004dc8:	fef41123          	sh	a5,-30(s0)
30004dcc:	00070793          	mv	a5,a4
30004dd0:	fef41023          	sh	a5,-32(s0)
30004dd4:	030007b7          	lui	a5,0x3000
30004dd8:	00400713          	li	a4,4
30004ddc:	00e7a023          	sw	a4,0(a5) # 3000000 <_ebss-0x1000000>
30004de0:	030077b7          	lui	a5,0x3007
30004de4:	01078793          	addi	a5,a5,16 # 3007010 <_ebss-0xff8ff0>
30004de8:	04000737          	lui	a4,0x4000
30004dec:	00e7a023          	sw	a4,0(a5)
30004df0:	fee45783          	lhu	a5,-18(s0)
30004df4:	01079693          	slli	a3,a5,0x10
30004df8:	fec45703          	lhu	a4,-20(s0)
30004dfc:	030077b7          	lui	a5,0x3007
30004e00:	01878793          	addi	a5,a5,24 # 3007018 <_ebss-0xff8fe8>
30004e04:	00e6e733          	or	a4,a3,a4
30004e08:	00e7a023          	sw	a4,0(a5)
30004e0c:	fea45783          	lhu	a5,-22(s0)
30004e10:	01079693          	slli	a3,a5,0x10
30004e14:	fe845703          	lhu	a4,-24(s0)
30004e18:	030077b7          	lui	a5,0x3007
30004e1c:	01878793          	addi	a5,a5,24 # 3007018 <_ebss-0xff8fe8>
30004e20:	00e6e733          	or	a4,a3,a4
30004e24:	00e7a023          	sw	a4,0(a5)
30004e28:	fe645783          	lhu	a5,-26(s0)
30004e2c:	01079693          	slli	a3,a5,0x10
30004e30:	fe445703          	lhu	a4,-28(s0)
30004e34:	030077b7          	lui	a5,0x3007
30004e38:	01878793          	addi	a5,a5,24 # 3007018 <_ebss-0xff8fe8>
30004e3c:	00e6e733          	or	a4,a3,a4
30004e40:	00e7a023          	sw	a4,0(a5)
30004e44:	fe245783          	lhu	a5,-30(s0)
30004e48:	01079693          	slli	a3,a5,0x10
30004e4c:	fe045703          	lhu	a4,-32(s0)
30004e50:	030077b7          	lui	a5,0x3007
30004e54:	01878793          	addi	a5,a5,24 # 3007018 <_ebss-0xff8fe8>
30004e58:	00e6e733          	or	a4,a3,a4
30004e5c:	00e7a023          	sw	a4,0(a5)
30004e60:	00045783          	lhu	a5,0(s0)
30004e64:	01079693          	slli	a3,a5,0x10
30004e68:	00445703          	lhu	a4,4(s0)
30004e6c:	030077b7          	lui	a5,0x3007
30004e70:	01878793          	addi	a5,a5,24 # 3007018 <_ebss-0xff8fe8>
30004e74:	00e6e733          	or	a4,a3,a4
30004e78:	00e7a023          	sw	a4,0(a5)
30004e7c:	00845783          	lhu	a5,8(s0)
30004e80:	01079693          	slli	a3,a5,0x10
30004e84:	00c45703          	lhu	a4,12(s0)
30004e88:	030077b7          	lui	a5,0x3007
30004e8c:	01878793          	addi	a5,a5,24 # 3007018 <_ebss-0xff8fe8>
30004e90:	00e6e733          	or	a4,a3,a4
30004e94:	00e7a023          	sw	a4,0(a5)
30004e98:	01045783          	lhu	a5,16(s0)
30004e9c:	01079693          	slli	a3,a5,0x10
30004ea0:	01445703          	lhu	a4,20(s0)
30004ea4:	030077b7          	lui	a5,0x3007
30004ea8:	01878793          	addi	a5,a5,24 # 3007018 <_ebss-0xff8fe8>
30004eac:	00e6e733          	or	a4,a3,a4
30004eb0:	00e7a023          	sw	a4,0(a5)
30004eb4:	01845783          	lhu	a5,24(s0)
30004eb8:	01079693          	slli	a3,a5,0x10
30004ebc:	01c45703          	lhu	a4,28(s0)
30004ec0:	030077b7          	lui	a5,0x3007
30004ec4:	01878793          	addi	a5,a5,24 # 3007018 <_ebss-0xff8fe8>
30004ec8:	00e6e733          	or	a4,a3,a4
30004ecc:	00e7a023          	sw	a4,0(a5)
30004ed0:	02045783          	lhu	a5,32(s0)
30004ed4:	01079693          	slli	a3,a5,0x10
30004ed8:	02445703          	lhu	a4,36(s0)
30004edc:	030077b7          	lui	a5,0x3007
30004ee0:	01878793          	addi	a5,a5,24 # 3007018 <_ebss-0xff8fe8>
30004ee4:	00e6e733          	or	a4,a3,a4
30004ee8:	00e7a023          	sw	a4,0(a5)
30004eec:	02845783          	lhu	a5,40(s0)
30004ef0:	01079693          	slli	a3,a5,0x10
30004ef4:	02c45703          	lhu	a4,44(s0)
30004ef8:	030077b7          	lui	a5,0x3007
30004efc:	01878793          	addi	a5,a5,24 # 3007018 <_ebss-0xff8fe8>
30004f00:	00e6e733          	or	a4,a3,a4
30004f04:	00e7a023          	sw	a4,0(a5)
30004f08:	03045783          	lhu	a5,48(s0)
30004f0c:	01079693          	slli	a3,a5,0x10
30004f10:	03445703          	lhu	a4,52(s0)
30004f14:	030077b7          	lui	a5,0x3007
30004f18:	01878793          	addi	a5,a5,24 # 3007018 <_ebss-0xff8fe8>
30004f1c:	00e6e733          	or	a4,a3,a4
30004f20:	00e7a023          	sw	a4,0(a5)
30004f24:	03845783          	lhu	a5,56(s0)
30004f28:	01079693          	slli	a3,a5,0x10
30004f2c:	03c45703          	lhu	a4,60(s0)
30004f30:	030077b7          	lui	a5,0x3007
30004f34:	01878793          	addi	a5,a5,24 # 3007018 <_ebss-0xff8fe8>
30004f38:	00e6e733          	or	a4,a3,a4
30004f3c:	00e7a023          	sw	a4,0(a5)
30004f40:	04045783          	lhu	a5,64(s0)
30004f44:	01079693          	slli	a3,a5,0x10
30004f48:	04445703          	lhu	a4,68(s0)
30004f4c:	030077b7          	lui	a5,0x3007
30004f50:	01878793          	addi	a5,a5,24 # 3007018 <_ebss-0xff8fe8>
30004f54:	00e6e733          	or	a4,a3,a4
30004f58:	00e7a023          	sw	a4,0(a5)
30004f5c:	04845783          	lhu	a5,72(s0)
30004f60:	01079693          	slli	a3,a5,0x10
30004f64:	04c45703          	lhu	a4,76(s0)
30004f68:	030077b7          	lui	a5,0x3007
30004f6c:	01878793          	addi	a5,a5,24 # 3007018 <_ebss-0xff8fe8>
30004f70:	00e6e733          	or	a4,a3,a4
30004f74:	00e7a023          	sw	a4,0(a5)
30004f78:	05045783          	lhu	a5,80(s0)
30004f7c:	01079693          	slli	a3,a5,0x10
30004f80:	05445703          	lhu	a4,84(s0)
30004f84:	030077b7          	lui	a5,0x3007
30004f88:	01878793          	addi	a5,a5,24 # 3007018 <_ebss-0xff8fe8>
30004f8c:	00e6e733          	or	a4,a3,a4
30004f90:	00e7a023          	sw	a4,0(a5)
30004f94:	05845783          	lhu	a5,88(s0)
30004f98:	01079693          	slli	a3,a5,0x10
30004f9c:	05c45703          	lhu	a4,92(s0)
30004fa0:	030077b7          	lui	a5,0x3007
30004fa4:	01878793          	addi	a5,a5,24 # 3007018 <_ebss-0xff8fe8>
30004fa8:	00e6e733          	or	a4,a3,a4
30004fac:	00e7a023          	sw	a4,0(a5)
30004fb0:	06045783          	lhu	a5,96(s0)
30004fb4:	01079693          	slli	a3,a5,0x10
30004fb8:	06445703          	lhu	a4,100(s0)
30004fbc:	030077b7          	lui	a5,0x3007
30004fc0:	01878793          	addi	a5,a5,24 # 3007018 <_ebss-0xff8fe8>
30004fc4:	00e6e733          	or	a4,a3,a4
30004fc8:	00e7a023          	sw	a4,0(a5)
30004fcc:	06845783          	lhu	a5,104(s0)
30004fd0:	01079693          	slli	a3,a5,0x10
30004fd4:	06c45703          	lhu	a4,108(s0)
30004fd8:	030077b7          	lui	a5,0x3007
30004fdc:	01878793          	addi	a5,a5,24 # 3007018 <_ebss-0xff8fe8>
30004fe0:	00e6e733          	or	a4,a3,a4
30004fe4:	00e7a023          	sw	a4,0(a5)
30004fe8:	07045783          	lhu	a5,112(s0)
30004fec:	01079693          	slli	a3,a5,0x10
30004ff0:	07445703          	lhu	a4,116(s0)
30004ff4:	030077b7          	lui	a5,0x3007
30004ff8:	01878793          	addi	a5,a5,24 # 3007018 <_ebss-0xff8fe8>
30004ffc:	00e6e733          	or	a4,a3,a4
30005000:	00e7a023          	sw	a4,0(a5)
30005004:	07845783          	lhu	a5,120(s0)
30005008:	01079693          	slli	a3,a5,0x10
3000500c:	07c45703          	lhu	a4,124(s0)
30005010:	030077b7          	lui	a5,0x3007
30005014:	01878793          	addi	a5,a5,24 # 3007018 <_ebss-0xff8fe8>
30005018:	00e6e733          	or	a4,a3,a4
3000501c:	00e7a023          	sw	a4,0(a5)
30005020:	08045783          	lhu	a5,128(s0)
30005024:	01079693          	slli	a3,a5,0x10
30005028:	08445703          	lhu	a4,132(s0)
3000502c:	030077b7          	lui	a5,0x3007
30005030:	01878793          	addi	a5,a5,24 # 3007018 <_ebss-0xff8fe8>
30005034:	00e6e733          	or	a4,a3,a4
30005038:	00e7a023          	sw	a4,0(a5)
3000503c:	08845783          	lhu	a5,136(s0)
30005040:	01079693          	slli	a3,a5,0x10
30005044:	08c45703          	lhu	a4,140(s0)
30005048:	030077b7          	lui	a5,0x3007
3000504c:	01878793          	addi	a5,a5,24 # 3007018 <_ebss-0xff8fe8>
30005050:	00e6e733          	or	a4,a3,a4
30005054:	00e7a023          	sw	a4,0(a5)
30005058:	09045783          	lhu	a5,144(s0)
3000505c:	01079693          	slli	a3,a5,0x10
30005060:	09445703          	lhu	a4,148(s0)
30005064:	030077b7          	lui	a5,0x3007
30005068:	01878793          	addi	a5,a5,24 # 3007018 <_ebss-0xff8fe8>
3000506c:	00e6e733          	or	a4,a3,a4
30005070:	00e7a023          	sw	a4,0(a5)
30005074:	09845783          	lhu	a5,152(s0)
30005078:	01079693          	slli	a3,a5,0x10
3000507c:	09c45703          	lhu	a4,156(s0)
30005080:	030077b7          	lui	a5,0x3007
30005084:	01878793          	addi	a5,a5,24 # 3007018 <_ebss-0xff8fe8>
30005088:	00e6e733          	or	a4,a3,a4
3000508c:	00e7a023          	sw	a4,0(a5)
30005090:	0a045783          	lhu	a5,160(s0)
30005094:	01079693          	slli	a3,a5,0x10
30005098:	0a445703          	lhu	a4,164(s0)
3000509c:	030077b7          	lui	a5,0x3007
300050a0:	01878793          	addi	a5,a5,24 # 3007018 <_ebss-0xff8fe8>
300050a4:	00e6e733          	or	a4,a3,a4
300050a8:	00e7a023          	sw	a4,0(a5)
300050ac:	0a845783          	lhu	a5,168(s0)
300050b0:	01079693          	slli	a3,a5,0x10
300050b4:	0ac45703          	lhu	a4,172(s0)
300050b8:	030077b7          	lui	a5,0x3007
300050bc:	01878793          	addi	a5,a5,24 # 3007018 <_ebss-0xff8fe8>
300050c0:	00e6e733          	or	a4,a3,a4
300050c4:	00e7a023          	sw	a4,0(a5)
300050c8:	0b045783          	lhu	a5,176(s0)
300050cc:	01079693          	slli	a3,a5,0x10
300050d0:	0b445703          	lhu	a4,180(s0)
300050d4:	030077b7          	lui	a5,0x3007
300050d8:	01878793          	addi	a5,a5,24 # 3007018 <_ebss-0xff8fe8>
300050dc:	00e6e733          	or	a4,a3,a4
300050e0:	00e7a023          	sw	a4,0(a5)
300050e4:	0b845783          	lhu	a5,184(s0)
300050e8:	01079693          	slli	a3,a5,0x10
300050ec:	0bc45703          	lhu	a4,188(s0)
300050f0:	030077b7          	lui	a5,0x3007
300050f4:	01878793          	addi	a5,a5,24 # 3007018 <_ebss-0xff8fe8>
300050f8:	00e6e733          	or	a4,a3,a4
300050fc:	00e7a023          	sw	a4,0(a5)
30005100:	0c045783          	lhu	a5,192(s0)
30005104:	01079693          	slli	a3,a5,0x10
30005108:	0c445703          	lhu	a4,196(s0)
3000510c:	030077b7          	lui	a5,0x3007
30005110:	01878793          	addi	a5,a5,24 # 3007018 <_ebss-0xff8fe8>
30005114:	00e6e733          	or	a4,a3,a4
30005118:	00e7a023          	sw	a4,0(a5)
3000511c:	0c845783          	lhu	a5,200(s0)
30005120:	01079693          	slli	a3,a5,0x10
30005124:	0cc45703          	lhu	a4,204(s0)
30005128:	030077b7          	lui	a5,0x3007
3000512c:	01878793          	addi	a5,a5,24 # 3007018 <_ebss-0xff8fe8>
30005130:	00e6e733          	or	a4,a3,a4
30005134:	00e7a023          	sw	a4,0(a5)
30005138:	0d045783          	lhu	a5,208(s0)
3000513c:	01079693          	slli	a3,a5,0x10
30005140:	0d445703          	lhu	a4,212(s0)
30005144:	030077b7          	lui	a5,0x3007
30005148:	01878793          	addi	a5,a5,24 # 3007018 <_ebss-0xff8fe8>
3000514c:	00e6e733          	or	a4,a3,a4
30005150:	00e7a023          	sw	a4,0(a5)
30005154:	0d845783          	lhu	a5,216(s0)
30005158:	01079693          	slli	a3,a5,0x10
3000515c:	0dc45703          	lhu	a4,220(s0)
30005160:	030077b7          	lui	a5,0x3007
30005164:	01878793          	addi	a5,a5,24 # 3007018 <_ebss-0xff8fe8>
30005168:	00e6e733          	or	a4,a3,a4
3000516c:	00e7a023          	sw	a4,0(a5)
30005170:	030077b7          	lui	a5,0x3007
30005174:	10200713          	li	a4,258
30005178:	00e7a023          	sw	a4,0(a5) # 3007000 <_ebss-0xff9000>
3000517c:	00000013          	nop
30005180:	030077b7          	lui	a5,0x3007
30005184:	0007a783          	lw	a5,0(a5) # 3007000 <_ebss-0xff9000>
30005188:	01079713          	slli	a4,a5,0x10
3000518c:	01075713          	srli	a4,a4,0x10
30005190:	00100793          	li	a5,1
30005194:	fef716e3          	bne	a4,a5,30005180 <myspi_wr_dat16+0x41c>
30005198:	00000013          	nop
3000519c:	00000013          	nop
300051a0:	01c12083          	lw	ra,28(sp)
300051a4:	01812403          	lw	s0,24(sp)
300051a8:	02010113          	addi	sp,sp,32
300051ac:	00008067          	ret

300051b0 <myspi_wr_dat32>:
300051b0:	fd010113          	addi	sp,sp,-48
300051b4:	02112623          	sw	ra,44(sp)
300051b8:	02812423          	sw	s0,40(sp)
300051bc:	03010413          	addi	s0,sp,48
300051c0:	fea42623          	sw	a0,-20(s0)
300051c4:	feb42423          	sw	a1,-24(s0)
300051c8:	fec42223          	sw	a2,-28(s0)
300051cc:	fed42023          	sw	a3,-32(s0)
300051d0:	fce42e23          	sw	a4,-36(s0)
300051d4:	fcf42c23          	sw	a5,-40(s0)
300051d8:	fd042a23          	sw	a6,-44(s0)
300051dc:	fd142823          	sw	a7,-48(s0)
300051e0:	030007b7          	lui	a5,0x3000
300051e4:	00400713          	li	a4,4
300051e8:	00e7a023          	sw	a4,0(a5) # 3000000 <_ebss-0x1000000>
300051ec:	030077b7          	lui	a5,0x3007
300051f0:	01078793          	addi	a5,a5,16 # 3007010 <_ebss-0xff8ff0>
300051f4:	04000737          	lui	a4,0x4000
300051f8:	00e7a023          	sw	a4,0(a5)
300051fc:	030077b7          	lui	a5,0x3007
30005200:	01878793          	addi	a5,a5,24 # 3007018 <_ebss-0xff8fe8>
30005204:	fec42703          	lw	a4,-20(s0)
30005208:	00e7a023          	sw	a4,0(a5)
3000520c:	030077b7          	lui	a5,0x3007
30005210:	01878793          	addi	a5,a5,24 # 3007018 <_ebss-0xff8fe8>
30005214:	fe842703          	lw	a4,-24(s0)
30005218:	00e7a023          	sw	a4,0(a5)
3000521c:	030077b7          	lui	a5,0x3007
30005220:	01878793          	addi	a5,a5,24 # 3007018 <_ebss-0xff8fe8>
30005224:	fe442703          	lw	a4,-28(s0)
30005228:	00e7a023          	sw	a4,0(a5)
3000522c:	030077b7          	lui	a5,0x3007
30005230:	01878793          	addi	a5,a5,24 # 3007018 <_ebss-0xff8fe8>
30005234:	fe042703          	lw	a4,-32(s0)
30005238:	00e7a023          	sw	a4,0(a5)
3000523c:	030077b7          	lui	a5,0x3007
30005240:	01878793          	addi	a5,a5,24 # 3007018 <_ebss-0xff8fe8>
30005244:	fdc42703          	lw	a4,-36(s0)
30005248:	00e7a023          	sw	a4,0(a5)
3000524c:	030077b7          	lui	a5,0x3007
30005250:	01878793          	addi	a5,a5,24 # 3007018 <_ebss-0xff8fe8>
30005254:	fd842703          	lw	a4,-40(s0)
30005258:	00e7a023          	sw	a4,0(a5)
3000525c:	030077b7          	lui	a5,0x3007
30005260:	01878793          	addi	a5,a5,24 # 3007018 <_ebss-0xff8fe8>
30005264:	fd442703          	lw	a4,-44(s0)
30005268:	00e7a023          	sw	a4,0(a5)
3000526c:	030077b7          	lui	a5,0x3007
30005270:	01878793          	addi	a5,a5,24 # 3007018 <_ebss-0xff8fe8>
30005274:	fd042703          	lw	a4,-48(s0)
30005278:	00e7a023          	sw	a4,0(a5)
3000527c:	030077b7          	lui	a5,0x3007
30005280:	01878793          	addi	a5,a5,24 # 3007018 <_ebss-0xff8fe8>
30005284:	00042703          	lw	a4,0(s0)
30005288:	00e7a023          	sw	a4,0(a5)
3000528c:	030077b7          	lui	a5,0x3007
30005290:	01878793          	addi	a5,a5,24 # 3007018 <_ebss-0xff8fe8>
30005294:	00442703          	lw	a4,4(s0)
30005298:	00e7a023          	sw	a4,0(a5)
3000529c:	030077b7          	lui	a5,0x3007
300052a0:	01878793          	addi	a5,a5,24 # 3007018 <_ebss-0xff8fe8>
300052a4:	00842703          	lw	a4,8(s0)
300052a8:	00e7a023          	sw	a4,0(a5)
300052ac:	030077b7          	lui	a5,0x3007
300052b0:	01878793          	addi	a5,a5,24 # 3007018 <_ebss-0xff8fe8>
300052b4:	00c42703          	lw	a4,12(s0)
300052b8:	00e7a023          	sw	a4,0(a5)
300052bc:	030077b7          	lui	a5,0x3007
300052c0:	01878793          	addi	a5,a5,24 # 3007018 <_ebss-0xff8fe8>
300052c4:	01042703          	lw	a4,16(s0)
300052c8:	00e7a023          	sw	a4,0(a5)
300052cc:	030077b7          	lui	a5,0x3007
300052d0:	01878793          	addi	a5,a5,24 # 3007018 <_ebss-0xff8fe8>
300052d4:	01442703          	lw	a4,20(s0)
300052d8:	00e7a023          	sw	a4,0(a5)
300052dc:	030077b7          	lui	a5,0x3007
300052e0:	01878793          	addi	a5,a5,24 # 3007018 <_ebss-0xff8fe8>
300052e4:	01842703          	lw	a4,24(s0)
300052e8:	00e7a023          	sw	a4,0(a5)
300052ec:	030077b7          	lui	a5,0x3007
300052f0:	01878793          	addi	a5,a5,24 # 3007018 <_ebss-0xff8fe8>
300052f4:	01c42703          	lw	a4,28(s0)
300052f8:	00e7a023          	sw	a4,0(a5)
300052fc:	030077b7          	lui	a5,0x3007
30005300:	01878793          	addi	a5,a5,24 # 3007018 <_ebss-0xff8fe8>
30005304:	02042703          	lw	a4,32(s0)
30005308:	00e7a023          	sw	a4,0(a5)
3000530c:	030077b7          	lui	a5,0x3007
30005310:	01878793          	addi	a5,a5,24 # 3007018 <_ebss-0xff8fe8>
30005314:	02442703          	lw	a4,36(s0)
30005318:	00e7a023          	sw	a4,0(a5)
3000531c:	030077b7          	lui	a5,0x3007
30005320:	01878793          	addi	a5,a5,24 # 3007018 <_ebss-0xff8fe8>
30005324:	02842703          	lw	a4,40(s0)
30005328:	00e7a023          	sw	a4,0(a5)
3000532c:	030077b7          	lui	a5,0x3007
30005330:	01878793          	addi	a5,a5,24 # 3007018 <_ebss-0xff8fe8>
30005334:	02c42703          	lw	a4,44(s0)
30005338:	00e7a023          	sw	a4,0(a5)
3000533c:	030077b7          	lui	a5,0x3007
30005340:	01878793          	addi	a5,a5,24 # 3007018 <_ebss-0xff8fe8>
30005344:	03042703          	lw	a4,48(s0)
30005348:	00e7a023          	sw	a4,0(a5)
3000534c:	030077b7          	lui	a5,0x3007
30005350:	01878793          	addi	a5,a5,24 # 3007018 <_ebss-0xff8fe8>
30005354:	03442703          	lw	a4,52(s0)
30005358:	00e7a023          	sw	a4,0(a5)
3000535c:	030077b7          	lui	a5,0x3007
30005360:	01878793          	addi	a5,a5,24 # 3007018 <_ebss-0xff8fe8>
30005364:	03842703          	lw	a4,56(s0)
30005368:	00e7a023          	sw	a4,0(a5)
3000536c:	030077b7          	lui	a5,0x3007
30005370:	01878793          	addi	a5,a5,24 # 3007018 <_ebss-0xff8fe8>
30005374:	03c42703          	lw	a4,60(s0)
30005378:	00e7a023          	sw	a4,0(a5)
3000537c:	030077b7          	lui	a5,0x3007
30005380:	01878793          	addi	a5,a5,24 # 3007018 <_ebss-0xff8fe8>
30005384:	04042703          	lw	a4,64(s0)
30005388:	00e7a023          	sw	a4,0(a5)
3000538c:	030077b7          	lui	a5,0x3007
30005390:	01878793          	addi	a5,a5,24 # 3007018 <_ebss-0xff8fe8>
30005394:	04442703          	lw	a4,68(s0)
30005398:	00e7a023          	sw	a4,0(a5)
3000539c:	030077b7          	lui	a5,0x3007
300053a0:	01878793          	addi	a5,a5,24 # 3007018 <_ebss-0xff8fe8>
300053a4:	04842703          	lw	a4,72(s0)
300053a8:	00e7a023          	sw	a4,0(a5)
300053ac:	030077b7          	lui	a5,0x3007
300053b0:	01878793          	addi	a5,a5,24 # 3007018 <_ebss-0xff8fe8>
300053b4:	04c42703          	lw	a4,76(s0)
300053b8:	00e7a023          	sw	a4,0(a5)
300053bc:	030077b7          	lui	a5,0x3007
300053c0:	01878793          	addi	a5,a5,24 # 3007018 <_ebss-0xff8fe8>
300053c4:	05042703          	lw	a4,80(s0)
300053c8:	00e7a023          	sw	a4,0(a5)
300053cc:	030077b7          	lui	a5,0x3007
300053d0:	01878793          	addi	a5,a5,24 # 3007018 <_ebss-0xff8fe8>
300053d4:	05442703          	lw	a4,84(s0)
300053d8:	00e7a023          	sw	a4,0(a5)
300053dc:	030077b7          	lui	a5,0x3007
300053e0:	01878793          	addi	a5,a5,24 # 3007018 <_ebss-0xff8fe8>
300053e4:	05842703          	lw	a4,88(s0)
300053e8:	00e7a023          	sw	a4,0(a5)
300053ec:	030077b7          	lui	a5,0x3007
300053f0:	01878793          	addi	a5,a5,24 # 3007018 <_ebss-0xff8fe8>
300053f4:	05c42703          	lw	a4,92(s0)
300053f8:	00e7a023          	sw	a4,0(a5)
300053fc:	030077b7          	lui	a5,0x3007
30005400:	10200713          	li	a4,258
30005404:	00e7a023          	sw	a4,0(a5) # 3007000 <_ebss-0xff9000>
30005408:	00000013          	nop
3000540c:	030077b7          	lui	a5,0x3007
30005410:	0007a783          	lw	a5,0(a5) # 3007000 <_ebss-0xff9000>
30005414:	01079713          	slli	a4,a5,0x10
30005418:	01075713          	srli	a4,a4,0x10
3000541c:	00100793          	li	a5,1
30005420:	fef716e3          	bne	a4,a5,3000540c <myspi_wr_dat32+0x25c>
30005424:	00000013          	nop
30005428:	00000013          	nop
3000542c:	02c12083          	lw	ra,44(sp)
30005430:	02812403          	lw	s0,40(sp)
30005434:	03010113          	addi	sp,sp,48
30005438:	00008067          	ret

3000543c <lcd_fill_bmp>:
3000543c:	fd010113          	addi	sp,sp,-48
30005440:	02112623          	sw	ra,44(sp)
30005444:	02812423          	sw	s0,40(sp)
30005448:	03010413          	addi	s0,sp,48
3000544c:	fca42e23          	sw	a0,-36(s0)
30005450:	00058793          	mv	a5,a1
30005454:	fcf41d23          	sh	a5,-38(s0)
30005458:	00060793          	mv	a5,a2
3000545c:	fcf41c23          	sh	a5,-40(s0)
30005460:	00068793          	mv	a5,a3
30005464:	fcf41b23          	sh	a5,-42(s0)
30005468:	00070793          	mv	a5,a4
3000546c:	fcf41a23          	sh	a5,-44(s0)
30005470:	fda45783          	lhu	a5,-38(s0)
30005474:	00078713          	mv	a4,a5
30005478:	fd645783          	lhu	a5,-42(s0)
3000547c:	00f707b3          	add	a5,a4,a5
30005480:	01079793          	slli	a5,a5,0x10
30005484:	0107d793          	srli	a5,a5,0x10
30005488:	fff78793          	addi	a5,a5,-1
3000548c:	01079613          	slli	a2,a5,0x10
30005490:	01065613          	srli	a2,a2,0x10
30005494:	fd845783          	lhu	a5,-40(s0)
30005498:	00078713          	mv	a4,a5
3000549c:	fd445783          	lhu	a5,-44(s0)
300054a0:	00f707b3          	add	a5,a4,a5
300054a4:	01079793          	slli	a5,a5,0x10
300054a8:	0107d793          	srli	a5,a5,0x10
300054ac:	fff78793          	addi	a5,a5,-1
300054b0:	01079693          	slli	a3,a5,0x10
300054b4:	0106d693          	srli	a3,a3,0x10
300054b8:	fd845703          	lhu	a4,-40(s0)
300054bc:	fda45783          	lhu	a5,-38(s0)
300054c0:	00070593          	mv	a1,a4
300054c4:	00078513          	mv	a0,a5
300054c8:	9edfe0ef          	jal	30003eb4 <lcd_addr_set>
300054cc:	fe041723          	sh	zero,-18(s0)
300054d0:	0280006f          	j	300054f8 <lcd_fill_bmp+0xbc>
300054d4:	fee45783          	lhu	a5,-18(s0)
300054d8:	fdc42703          	lw	a4,-36(s0)
300054dc:	00f707b3          	add	a5,a4,a5
300054e0:	0007c783          	lbu	a5,0(a5)
300054e4:	00078513          	mv	a0,a5
300054e8:	f31fd0ef          	jal	30003418 <lcd_wr_data8>
300054ec:	fee45783          	lhu	a5,-18(s0)
300054f0:	00178793          	addi	a5,a5,1
300054f4:	fef41723          	sh	a5,-18(s0)
300054f8:	fee45703          	lhu	a4,-18(s0)
300054fc:	fd445683          	lhu	a3,-44(s0)
30005500:	fd645783          	lhu	a5,-42(s0)
30005504:	02f687b3          	mul	a5,a3,a5
30005508:	00179793          	slli	a5,a5,0x1
3000550c:	fcf744e3          	blt	a4,a5,300054d4 <lcd_fill_bmp+0x98>
30005510:	00000013          	nop
30005514:	00000013          	nop
30005518:	02c12083          	lw	ra,44(sp)
3000551c:	02812403          	lw	s0,40(sp)
30005520:	03010113          	addi	sp,sp,48
30005524:	00008067          	ret

30005528 <lcd_fill_bmp_8>:
30005528:	c2010113          	addi	sp,sp,-992
3000552c:	3c112e23          	sw	ra,988(sp)
30005530:	3c812c23          	sw	s0,984(sp)
30005534:	3c912a23          	sw	s1,980(sp)
30005538:	3d212823          	sw	s2,976(sp)
3000553c:	3d312623          	sw	s3,972(sp)
30005540:	3d412423          	sw	s4,968(sp)
30005544:	3d512223          	sw	s5,964(sp)
30005548:	3d612023          	sw	s6,960(sp)
3000554c:	3b712e23          	sw	s7,956(sp)
30005550:	3b812c23          	sw	s8,952(sp)
30005554:	3b912a23          	sw	s9,948(sp)
30005558:	3ba12823          	sw	s10,944(sp)
3000555c:	3bb12623          	sw	s11,940(sp)
30005560:	3e010413          	addi	s0,sp,992
30005564:	faa42623          	sw	a0,-84(s0)
30005568:	00058793          	mv	a5,a1
3000556c:	faf41523          	sh	a5,-86(s0)
30005570:	00060793          	mv	a5,a2
30005574:	faf41423          	sh	a5,-88(s0)
30005578:	00068793          	mv	a5,a3
3000557c:	faf41323          	sh	a5,-90(s0)
30005580:	00070793          	mv	a5,a4
30005584:	faf41223          	sh	a5,-92(s0)
30005588:	faa45783          	lhu	a5,-86(s0)
3000558c:	00078713          	mv	a4,a5
30005590:	fa645783          	lhu	a5,-90(s0)
30005594:	00f707b3          	add	a5,a4,a5
30005598:	01079793          	slli	a5,a5,0x10
3000559c:	0107d793          	srli	a5,a5,0x10
300055a0:	fff78793          	addi	a5,a5,-1
300055a4:	01079613          	slli	a2,a5,0x10
300055a8:	01065613          	srli	a2,a2,0x10
300055ac:	fa845783          	lhu	a5,-88(s0)
300055b0:	00078713          	mv	a4,a5
300055b4:	fa445783          	lhu	a5,-92(s0)
300055b8:	00f707b3          	add	a5,a4,a5
300055bc:	01079793          	slli	a5,a5,0x10
300055c0:	0107d793          	srli	a5,a5,0x10
300055c4:	fff78793          	addi	a5,a5,-1
300055c8:	01079693          	slli	a3,a5,0x10
300055cc:	0106d693          	srli	a3,a3,0x10
300055d0:	fa845703          	lhu	a4,-88(s0)
300055d4:	faa45783          	lhu	a5,-86(s0)
300055d8:	00070593          	mv	a1,a4
300055dc:	00078513          	mv	a0,a5
300055e0:	8d5fe0ef          	jal	30003eb4 <lcd_addr_set>
300055e4:	fa041f23          	sh	zero,-66(s0)
300055e8:	7290006f          	j	30006510 <lcd_fill_bmp_8+0xfe8>
300055ec:	fbe45783          	lhu	a5,-66(s0)
300055f0:	fac42703          	lw	a4,-84(s0)
300055f4:	00f707b3          	add	a5,a4,a5
300055f8:	0007c783          	lbu	a5,0(a5)
300055fc:	faf42023          	sw	a5,-96(s0)
30005600:	fbe45783          	lhu	a5,-66(s0)
30005604:	00178793          	addi	a5,a5,1
30005608:	fac42703          	lw	a4,-84(s0)
3000560c:	00f707b3          	add	a5,a4,a5
30005610:	0007c703          	lbu	a4,0(a5)
30005614:	f8e42e23          	sw	a4,-100(s0)
30005618:	fbe45783          	lhu	a5,-66(s0)
3000561c:	00278793          	addi	a5,a5,2
30005620:	fac42703          	lw	a4,-84(s0)
30005624:	00f707b3          	add	a5,a4,a5
30005628:	0007c683          	lbu	a3,0(a5)
3000562c:	f8d42c23          	sw	a3,-104(s0)
30005630:	fbe45783          	lhu	a5,-66(s0)
30005634:	00378793          	addi	a5,a5,3
30005638:	fac42703          	lw	a4,-84(s0)
3000563c:	00f707b3          	add	a5,a4,a5
30005640:	0007c803          	lbu	a6,0(a5)
30005644:	f9042a23          	sw	a6,-108(s0)
30005648:	fbe45783          	lhu	a5,-66(s0)
3000564c:	00478793          	addi	a5,a5,4
30005650:	fac42703          	lw	a4,-84(s0)
30005654:	00f707b3          	add	a5,a4,a5
30005658:	0007c883          	lbu	a7,0(a5)
3000565c:	f9142823          	sw	a7,-112(s0)
30005660:	fbe45783          	lhu	a5,-66(s0)
30005664:	00578793          	addi	a5,a5,5
30005668:	fac42703          	lw	a4,-84(s0)
3000566c:	00f707b3          	add	a5,a4,a5
30005670:	0007c303          	lbu	t1,0(a5)
30005674:	f8642623          	sw	t1,-116(s0)
30005678:	fbe45783          	lhu	a5,-66(s0)
3000567c:	00678793          	addi	a5,a5,6
30005680:	fac42703          	lw	a4,-84(s0)
30005684:	00f707b3          	add	a5,a4,a5
30005688:	0007ce03          	lbu	t3,0(a5)
3000568c:	f9c42423          	sw	t3,-120(s0)
30005690:	fbe45783          	lhu	a5,-66(s0)
30005694:	00778793          	addi	a5,a5,7
30005698:	fac42703          	lw	a4,-84(s0)
3000569c:	00f707b3          	add	a5,a4,a5
300056a0:	0007ce83          	lbu	t4,0(a5)
300056a4:	f9d42223          	sw	t4,-124(s0)
300056a8:	fbe45783          	lhu	a5,-66(s0)
300056ac:	00878793          	addi	a5,a5,8
300056b0:	fac42703          	lw	a4,-84(s0)
300056b4:	00f707b3          	add	a5,a4,a5
300056b8:	0007cf03          	lbu	t5,0(a5)
300056bc:	f9e42023          	sw	t5,-128(s0)
300056c0:	fbe45783          	lhu	a5,-66(s0)
300056c4:	00978793          	addi	a5,a5,9
300056c8:	fac42703          	lw	a4,-84(s0)
300056cc:	00f707b3          	add	a5,a4,a5
300056d0:	0007cf83          	lbu	t6,0(a5)
300056d4:	f7f42e23          	sw	t6,-132(s0)
300056d8:	fbe45783          	lhu	a5,-66(s0)
300056dc:	00a78793          	addi	a5,a5,10
300056e0:	fac42703          	lw	a4,-84(s0)
300056e4:	00f707b3          	add	a5,a4,a5
300056e8:	0007c283          	lbu	t0,0(a5)
300056ec:	f6542c23          	sw	t0,-136(s0)
300056f0:	fbe45783          	lhu	a5,-66(s0)
300056f4:	00b78793          	addi	a5,a5,11
300056f8:	fac42703          	lw	a4,-84(s0)
300056fc:	00f707b3          	add	a5,a4,a5
30005700:	0007c383          	lbu	t2,0(a5)
30005704:	f6742a23          	sw	t2,-140(s0)
30005708:	fbe45783          	lhu	a5,-66(s0)
3000570c:	00c78793          	addi	a5,a5,12
30005710:	fac42703          	lw	a4,-84(s0)
30005714:	00f707b3          	add	a5,a4,a5
30005718:	0007c483          	lbu	s1,0(a5)
3000571c:	f6942823          	sw	s1,-144(s0)
30005720:	fbe45783          	lhu	a5,-66(s0)
30005724:	00d78793          	addi	a5,a5,13
30005728:	fac42703          	lw	a4,-84(s0)
3000572c:	00f707b3          	add	a5,a4,a5
30005730:	0007c903          	lbu	s2,0(a5)
30005734:	f7242623          	sw	s2,-148(s0)
30005738:	fbe45783          	lhu	a5,-66(s0)
3000573c:	00e78793          	addi	a5,a5,14
30005740:	fac42703          	lw	a4,-84(s0)
30005744:	00f707b3          	add	a5,a4,a5
30005748:	0007c983          	lbu	s3,0(a5)
3000574c:	f7342423          	sw	s3,-152(s0)
30005750:	fbe45783          	lhu	a5,-66(s0)
30005754:	00f78793          	addi	a5,a5,15
30005758:	fac42703          	lw	a4,-84(s0)
3000575c:	00f707b3          	add	a5,a4,a5
30005760:	0007ca03          	lbu	s4,0(a5)
30005764:	f7442223          	sw	s4,-156(s0)
30005768:	fbe45783          	lhu	a5,-66(s0)
3000576c:	01078793          	addi	a5,a5,16
30005770:	fac42703          	lw	a4,-84(s0)
30005774:	00f707b3          	add	a5,a4,a5
30005778:	0007ca83          	lbu	s5,0(a5)
3000577c:	f7542023          	sw	s5,-160(s0)
30005780:	fbe45783          	lhu	a5,-66(s0)
30005784:	01178793          	addi	a5,a5,17
30005788:	fac42703          	lw	a4,-84(s0)
3000578c:	00f707b3          	add	a5,a4,a5
30005790:	0007cb03          	lbu	s6,0(a5)
30005794:	f5642e23          	sw	s6,-164(s0)
30005798:	fbe45783          	lhu	a5,-66(s0)
3000579c:	01278793          	addi	a5,a5,18
300057a0:	fac42703          	lw	a4,-84(s0)
300057a4:	00f707b3          	add	a5,a4,a5
300057a8:	0007cb83          	lbu	s7,0(a5)
300057ac:	f5742c23          	sw	s7,-168(s0)
300057b0:	fbe45783          	lhu	a5,-66(s0)
300057b4:	01378793          	addi	a5,a5,19
300057b8:	fac42703          	lw	a4,-84(s0)
300057bc:	00f707b3          	add	a5,a4,a5
300057c0:	0007cc03          	lbu	s8,0(a5)
300057c4:	f5842a23          	sw	s8,-172(s0)
300057c8:	fbe45783          	lhu	a5,-66(s0)
300057cc:	01478793          	addi	a5,a5,20
300057d0:	fac42703          	lw	a4,-84(s0)
300057d4:	00f707b3          	add	a5,a4,a5
300057d8:	0007cc83          	lbu	s9,0(a5)
300057dc:	f5942823          	sw	s9,-176(s0)
300057e0:	fbe45783          	lhu	a5,-66(s0)
300057e4:	01578793          	addi	a5,a5,21
300057e8:	fac42703          	lw	a4,-84(s0)
300057ec:	00f707b3          	add	a5,a4,a5
300057f0:	0007cd03          	lbu	s10,0(a5)
300057f4:	f5a42623          	sw	s10,-180(s0)
300057f8:	fbe45783          	lhu	a5,-66(s0)
300057fc:	01678793          	addi	a5,a5,22
30005800:	fac42703          	lw	a4,-84(s0)
30005804:	00f707b3          	add	a5,a4,a5
30005808:	0007cd83          	lbu	s11,0(a5)
3000580c:	f5b42423          	sw	s11,-184(s0)
30005810:	fbe45783          	lhu	a5,-66(s0)
30005814:	01778793          	addi	a5,a5,23
30005818:	fac42703          	lw	a4,-84(s0)
3000581c:	00f707b3          	add	a5,a4,a5
30005820:	0007c603          	lbu	a2,0(a5)
30005824:	f4c42223          	sw	a2,-188(s0)
30005828:	fbe45783          	lhu	a5,-66(s0)
3000582c:	01878793          	addi	a5,a5,24
30005830:	fac42703          	lw	a4,-84(s0)
30005834:	00f707b3          	add	a5,a4,a5
30005838:	0007c583          	lbu	a1,0(a5)
3000583c:	f4b42023          	sw	a1,-192(s0)
30005840:	fbe45783          	lhu	a5,-66(s0)
30005844:	01978793          	addi	a5,a5,25
30005848:	fac42703          	lw	a4,-84(s0)
3000584c:	00f707b3          	add	a5,a4,a5
30005850:	0007c503          	lbu	a0,0(a5)
30005854:	f2a42e23          	sw	a0,-196(s0)
30005858:	fbe45783          	lhu	a5,-66(s0)
3000585c:	01a78713          	addi	a4,a5,26
30005860:	fac42783          	lw	a5,-84(s0)
30005864:	00e787b3          	add	a5,a5,a4
30005868:	0007c303          	lbu	t1,0(a5)
3000586c:	f2642c23          	sw	t1,-200(s0)
30005870:	fbe45783          	lhu	a5,-66(s0)
30005874:	01b78713          	addi	a4,a5,27
30005878:	fac42783          	lw	a5,-84(s0)
3000587c:	00e787b3          	add	a5,a5,a4
30005880:	0007ce03          	lbu	t3,0(a5)
30005884:	f3c42a23          	sw	t3,-204(s0)
30005888:	fbe45783          	lhu	a5,-66(s0)
3000588c:	01c78713          	addi	a4,a5,28
30005890:	fac42783          	lw	a5,-84(s0)
30005894:	00e787b3          	add	a5,a5,a4
30005898:	0007ce83          	lbu	t4,0(a5)
3000589c:	f3d42823          	sw	t4,-208(s0)
300058a0:	fbe45783          	lhu	a5,-66(s0)
300058a4:	01d78713          	addi	a4,a5,29
300058a8:	fac42783          	lw	a5,-84(s0)
300058ac:	00e787b3          	add	a5,a5,a4
300058b0:	0007c783          	lbu	a5,0(a5)
300058b4:	f2f42623          	sw	a5,-212(s0)
300058b8:	fbe45783          	lhu	a5,-66(s0)
300058bc:	01e78713          	addi	a4,a5,30
300058c0:	fac42783          	lw	a5,-84(s0)
300058c4:	00e787b3          	add	a5,a5,a4
300058c8:	0007c703          	lbu	a4,0(a5)
300058cc:	f2e42423          	sw	a4,-216(s0)
300058d0:	fbe45783          	lhu	a5,-66(s0)
300058d4:	01f78713          	addi	a4,a5,31
300058d8:	fac42783          	lw	a5,-84(s0)
300058dc:	00e787b3          	add	a5,a5,a4
300058e0:	0007c683          	lbu	a3,0(a5)
300058e4:	f2d42223          	sw	a3,-220(s0)
300058e8:	fbe45783          	lhu	a5,-66(s0)
300058ec:	02078713          	addi	a4,a5,32
300058f0:	fac42783          	lw	a5,-84(s0)
300058f4:	00e787b3          	add	a5,a5,a4
300058f8:	0007c803          	lbu	a6,0(a5)
300058fc:	f3042023          	sw	a6,-224(s0)
30005900:	fbe45783          	lhu	a5,-66(s0)
30005904:	02178713          	addi	a4,a5,33
30005908:	fac42783          	lw	a5,-84(s0)
3000590c:	00e787b3          	add	a5,a5,a4
30005910:	0007c883          	lbu	a7,0(a5)
30005914:	f1142e23          	sw	a7,-228(s0)
30005918:	fbe45783          	lhu	a5,-66(s0)
3000591c:	02278713          	addi	a4,a5,34
30005920:	fac42783          	lw	a5,-84(s0)
30005924:	00e787b3          	add	a5,a5,a4
30005928:	0007cf03          	lbu	t5,0(a5)
3000592c:	f1e42c23          	sw	t5,-232(s0)
30005930:	fbe45783          	lhu	a5,-66(s0)
30005934:	02378713          	addi	a4,a5,35
30005938:	fac42783          	lw	a5,-84(s0)
3000593c:	00e787b3          	add	a5,a5,a4
30005940:	0007cf83          	lbu	t6,0(a5)
30005944:	f1f42a23          	sw	t6,-236(s0)
30005948:	fbe45783          	lhu	a5,-66(s0)
3000594c:	02478713          	addi	a4,a5,36
30005950:	fac42783          	lw	a5,-84(s0)
30005954:	00e787b3          	add	a5,a5,a4
30005958:	0007c283          	lbu	t0,0(a5)
3000595c:	f0542823          	sw	t0,-240(s0)
30005960:	fbe45783          	lhu	a5,-66(s0)
30005964:	02578713          	addi	a4,a5,37
30005968:	fac42783          	lw	a5,-84(s0)
3000596c:	00e787b3          	add	a5,a5,a4
30005970:	0007c383          	lbu	t2,0(a5)
30005974:	f0742623          	sw	t2,-244(s0)
30005978:	fbe45783          	lhu	a5,-66(s0)
3000597c:	02678713          	addi	a4,a5,38
30005980:	fac42783          	lw	a5,-84(s0)
30005984:	00e787b3          	add	a5,a5,a4
30005988:	0007c483          	lbu	s1,0(a5)
3000598c:	f0942423          	sw	s1,-248(s0)
30005990:	fbe45783          	lhu	a5,-66(s0)
30005994:	02778713          	addi	a4,a5,39
30005998:	fac42783          	lw	a5,-84(s0)
3000599c:	00e787b3          	add	a5,a5,a4
300059a0:	0007c903          	lbu	s2,0(a5)
300059a4:	f1242223          	sw	s2,-252(s0)
300059a8:	fbe45783          	lhu	a5,-66(s0)
300059ac:	02878713          	addi	a4,a5,40
300059b0:	fac42783          	lw	a5,-84(s0)
300059b4:	00e787b3          	add	a5,a5,a4
300059b8:	0007c983          	lbu	s3,0(a5)
300059bc:	f1342023          	sw	s3,-256(s0)
300059c0:	fbe45783          	lhu	a5,-66(s0)
300059c4:	02978713          	addi	a4,a5,41
300059c8:	fac42783          	lw	a5,-84(s0)
300059cc:	00e787b3          	add	a5,a5,a4
300059d0:	0007ca03          	lbu	s4,0(a5)
300059d4:	ef442e23          	sw	s4,-260(s0)
300059d8:	fbe45783          	lhu	a5,-66(s0)
300059dc:	02a78713          	addi	a4,a5,42
300059e0:	fac42783          	lw	a5,-84(s0)
300059e4:	00e787b3          	add	a5,a5,a4
300059e8:	0007ca83          	lbu	s5,0(a5)
300059ec:	ef542c23          	sw	s5,-264(s0)
300059f0:	fbe45783          	lhu	a5,-66(s0)
300059f4:	02b78713          	addi	a4,a5,43
300059f8:	fac42783          	lw	a5,-84(s0)
300059fc:	00e787b3          	add	a5,a5,a4
30005a00:	0007cb03          	lbu	s6,0(a5)
30005a04:	ef642a23          	sw	s6,-268(s0)
30005a08:	fbe45783          	lhu	a5,-66(s0)
30005a0c:	02c78713          	addi	a4,a5,44
30005a10:	fac42783          	lw	a5,-84(s0)
30005a14:	00e787b3          	add	a5,a5,a4
30005a18:	0007cb83          	lbu	s7,0(a5)
30005a1c:	ef742823          	sw	s7,-272(s0)
30005a20:	fbe45783          	lhu	a5,-66(s0)
30005a24:	02d78713          	addi	a4,a5,45
30005a28:	fac42783          	lw	a5,-84(s0)
30005a2c:	00e787b3          	add	a5,a5,a4
30005a30:	0007cc03          	lbu	s8,0(a5)
30005a34:	ef842623          	sw	s8,-276(s0)
30005a38:	fbe45783          	lhu	a5,-66(s0)
30005a3c:	02e78713          	addi	a4,a5,46
30005a40:	fac42783          	lw	a5,-84(s0)
30005a44:	00e787b3          	add	a5,a5,a4
30005a48:	0007cc83          	lbu	s9,0(a5)
30005a4c:	ef942423          	sw	s9,-280(s0)
30005a50:	fbe45783          	lhu	a5,-66(s0)
30005a54:	02f78713          	addi	a4,a5,47
30005a58:	fac42783          	lw	a5,-84(s0)
30005a5c:	00e787b3          	add	a5,a5,a4
30005a60:	0007cd03          	lbu	s10,0(a5)
30005a64:	efa42223          	sw	s10,-284(s0)
30005a68:	fbe45783          	lhu	a5,-66(s0)
30005a6c:	03078713          	addi	a4,a5,48
30005a70:	fac42783          	lw	a5,-84(s0)
30005a74:	00e787b3          	add	a5,a5,a4
30005a78:	0007cd83          	lbu	s11,0(a5)
30005a7c:	efb42023          	sw	s11,-288(s0)
30005a80:	fbe45783          	lhu	a5,-66(s0)
30005a84:	03178713          	addi	a4,a5,49
30005a88:	fac42783          	lw	a5,-84(s0)
30005a8c:	00e787b3          	add	a5,a5,a4
30005a90:	0007c603          	lbu	a2,0(a5)
30005a94:	ecc42e23          	sw	a2,-292(s0)
30005a98:	fbe45783          	lhu	a5,-66(s0)
30005a9c:	03278713          	addi	a4,a5,50
30005aa0:	fac42783          	lw	a5,-84(s0)
30005aa4:	00e787b3          	add	a5,a5,a4
30005aa8:	0007c583          	lbu	a1,0(a5)
30005aac:	ecb42c23          	sw	a1,-296(s0)
30005ab0:	fbe45783          	lhu	a5,-66(s0)
30005ab4:	03378713          	addi	a4,a5,51
30005ab8:	fac42783          	lw	a5,-84(s0)
30005abc:	00e787b3          	add	a5,a5,a4
30005ac0:	0007c503          	lbu	a0,0(a5)
30005ac4:	eca42a23          	sw	a0,-300(s0)
30005ac8:	fbe45783          	lhu	a5,-66(s0)
30005acc:	03478713          	addi	a4,a5,52
30005ad0:	fac42783          	lw	a5,-84(s0)
30005ad4:	00e787b3          	add	a5,a5,a4
30005ad8:	0007c303          	lbu	t1,0(a5)
30005adc:	ec642823          	sw	t1,-304(s0)
30005ae0:	fbe45783          	lhu	a5,-66(s0)
30005ae4:	03578713          	addi	a4,a5,53
30005ae8:	fac42783          	lw	a5,-84(s0)
30005aec:	00e787b3          	add	a5,a5,a4
30005af0:	0007ce03          	lbu	t3,0(a5)
30005af4:	edc42623          	sw	t3,-308(s0)
30005af8:	fbe45783          	lhu	a5,-66(s0)
30005afc:	03678713          	addi	a4,a5,54
30005b00:	fac42783          	lw	a5,-84(s0)
30005b04:	00e787b3          	add	a5,a5,a4
30005b08:	0007ce83          	lbu	t4,0(a5)
30005b0c:	edd42423          	sw	t4,-312(s0)
30005b10:	fbe45783          	lhu	a5,-66(s0)
30005b14:	03778713          	addi	a4,a5,55
30005b18:	fac42783          	lw	a5,-84(s0)
30005b1c:	00e787b3          	add	a5,a5,a4
30005b20:	0007c783          	lbu	a5,0(a5)
30005b24:	ecf42223          	sw	a5,-316(s0)
30005b28:	fbe45783          	lhu	a5,-66(s0)
30005b2c:	03878713          	addi	a4,a5,56
30005b30:	fac42783          	lw	a5,-84(s0)
30005b34:	00e787b3          	add	a5,a5,a4
30005b38:	0007c703          	lbu	a4,0(a5)
30005b3c:	ece42023          	sw	a4,-320(s0)
30005b40:	fbe45783          	lhu	a5,-66(s0)
30005b44:	03978713          	addi	a4,a5,57
30005b48:	fac42783          	lw	a5,-84(s0)
30005b4c:	00e787b3          	add	a5,a5,a4
30005b50:	0007c683          	lbu	a3,0(a5)
30005b54:	ead42e23          	sw	a3,-324(s0)
30005b58:	fbe45783          	lhu	a5,-66(s0)
30005b5c:	03a78713          	addi	a4,a5,58
30005b60:	fac42783          	lw	a5,-84(s0)
30005b64:	00e787b3          	add	a5,a5,a4
30005b68:	0007c803          	lbu	a6,0(a5)
30005b6c:	eb042c23          	sw	a6,-328(s0)
30005b70:	fbe45783          	lhu	a5,-66(s0)
30005b74:	03b78713          	addi	a4,a5,59
30005b78:	fac42783          	lw	a5,-84(s0)
30005b7c:	00e787b3          	add	a5,a5,a4
30005b80:	0007c883          	lbu	a7,0(a5)
30005b84:	eb142a23          	sw	a7,-332(s0)
30005b88:	fbe45783          	lhu	a5,-66(s0)
30005b8c:	03c78713          	addi	a4,a5,60
30005b90:	fac42783          	lw	a5,-84(s0)
30005b94:	00e787b3          	add	a5,a5,a4
30005b98:	0007cf03          	lbu	t5,0(a5)
30005b9c:	ebe42823          	sw	t5,-336(s0)
30005ba0:	fbe45783          	lhu	a5,-66(s0)
30005ba4:	03d78713          	addi	a4,a5,61
30005ba8:	fac42783          	lw	a5,-84(s0)
30005bac:	00e787b3          	add	a5,a5,a4
30005bb0:	0007cf83          	lbu	t6,0(a5)
30005bb4:	ebf42623          	sw	t6,-340(s0)
30005bb8:	fbe45783          	lhu	a5,-66(s0)
30005bbc:	03e78713          	addi	a4,a5,62
30005bc0:	fac42783          	lw	a5,-84(s0)
30005bc4:	00e787b3          	add	a5,a5,a4
30005bc8:	0007c283          	lbu	t0,0(a5)
30005bcc:	ea542423          	sw	t0,-344(s0)
30005bd0:	fbe45783          	lhu	a5,-66(s0)
30005bd4:	03f78713          	addi	a4,a5,63
30005bd8:	fac42783          	lw	a5,-84(s0)
30005bdc:	00e787b3          	add	a5,a5,a4
30005be0:	0007c383          	lbu	t2,0(a5)
30005be4:	ea742223          	sw	t2,-348(s0)
30005be8:	fbe45783          	lhu	a5,-66(s0)
30005bec:	04078713          	addi	a4,a5,64
30005bf0:	fac42783          	lw	a5,-84(s0)
30005bf4:	00e787b3          	add	a5,a5,a4
30005bf8:	0007c483          	lbu	s1,0(a5)
30005bfc:	ea942023          	sw	s1,-352(s0)
30005c00:	fbe45783          	lhu	a5,-66(s0)
30005c04:	04178713          	addi	a4,a5,65
30005c08:	fac42783          	lw	a5,-84(s0)
30005c0c:	00e787b3          	add	a5,a5,a4
30005c10:	0007c903          	lbu	s2,0(a5)
30005c14:	e9242e23          	sw	s2,-356(s0)
30005c18:	fbe45783          	lhu	a5,-66(s0)
30005c1c:	04278713          	addi	a4,a5,66
30005c20:	fac42783          	lw	a5,-84(s0)
30005c24:	00e787b3          	add	a5,a5,a4
30005c28:	0007c983          	lbu	s3,0(a5)
30005c2c:	e9342c23          	sw	s3,-360(s0)
30005c30:	fbe45783          	lhu	a5,-66(s0)
30005c34:	04378713          	addi	a4,a5,67
30005c38:	fac42783          	lw	a5,-84(s0)
30005c3c:	00e787b3          	add	a5,a5,a4
30005c40:	0007ca03          	lbu	s4,0(a5)
30005c44:	e9442a23          	sw	s4,-364(s0)
30005c48:	fbe45783          	lhu	a5,-66(s0)
30005c4c:	04478713          	addi	a4,a5,68
30005c50:	fac42783          	lw	a5,-84(s0)
30005c54:	00e787b3          	add	a5,a5,a4
30005c58:	0007ca83          	lbu	s5,0(a5)
30005c5c:	e9542823          	sw	s5,-368(s0)
30005c60:	fbe45783          	lhu	a5,-66(s0)
30005c64:	04578713          	addi	a4,a5,69
30005c68:	fac42783          	lw	a5,-84(s0)
30005c6c:	00e787b3          	add	a5,a5,a4
30005c70:	0007cb03          	lbu	s6,0(a5)
30005c74:	e9642623          	sw	s6,-372(s0)
30005c78:	fbe45783          	lhu	a5,-66(s0)
30005c7c:	04678713          	addi	a4,a5,70
30005c80:	fac42783          	lw	a5,-84(s0)
30005c84:	00e787b3          	add	a5,a5,a4
30005c88:	0007cb83          	lbu	s7,0(a5)
30005c8c:	e9742423          	sw	s7,-376(s0)
30005c90:	fbe45783          	lhu	a5,-66(s0)
30005c94:	04778713          	addi	a4,a5,71
30005c98:	fac42783          	lw	a5,-84(s0)
30005c9c:	00e787b3          	add	a5,a5,a4
30005ca0:	0007cc03          	lbu	s8,0(a5)
30005ca4:	e9842223          	sw	s8,-380(s0)
30005ca8:	fbe45783          	lhu	a5,-66(s0)
30005cac:	04878713          	addi	a4,a5,72
30005cb0:	fac42783          	lw	a5,-84(s0)
30005cb4:	00e787b3          	add	a5,a5,a4
30005cb8:	0007cc83          	lbu	s9,0(a5)
30005cbc:	e9942023          	sw	s9,-384(s0)
30005cc0:	fbe45783          	lhu	a5,-66(s0)
30005cc4:	04978713          	addi	a4,a5,73
30005cc8:	fac42783          	lw	a5,-84(s0)
30005ccc:	00e787b3          	add	a5,a5,a4
30005cd0:	0007cd03          	lbu	s10,0(a5)
30005cd4:	e7a42e23          	sw	s10,-388(s0)
30005cd8:	fbe45783          	lhu	a5,-66(s0)
30005cdc:	04a78713          	addi	a4,a5,74
30005ce0:	fac42783          	lw	a5,-84(s0)
30005ce4:	00e787b3          	add	a5,a5,a4
30005ce8:	0007cd83          	lbu	s11,0(a5)
30005cec:	e7b42c23          	sw	s11,-392(s0)
30005cf0:	fbe45783          	lhu	a5,-66(s0)
30005cf4:	04b78713          	addi	a4,a5,75
30005cf8:	fac42783          	lw	a5,-84(s0)
30005cfc:	00e787b3          	add	a5,a5,a4
30005d00:	0007c603          	lbu	a2,0(a5)
30005d04:	e6c42a23          	sw	a2,-396(s0)
30005d08:	fbe45783          	lhu	a5,-66(s0)
30005d0c:	04c78713          	addi	a4,a5,76
30005d10:	fac42783          	lw	a5,-84(s0)
30005d14:	00e787b3          	add	a5,a5,a4
30005d18:	0007c583          	lbu	a1,0(a5)
30005d1c:	e6b42823          	sw	a1,-400(s0)
30005d20:	fbe45783          	lhu	a5,-66(s0)
30005d24:	04d78713          	addi	a4,a5,77
30005d28:	fac42783          	lw	a5,-84(s0)
30005d2c:	00e787b3          	add	a5,a5,a4
30005d30:	0007c503          	lbu	a0,0(a5)
30005d34:	e6a42623          	sw	a0,-404(s0)
30005d38:	fbe45783          	lhu	a5,-66(s0)
30005d3c:	04e78713          	addi	a4,a5,78
30005d40:	fac42783          	lw	a5,-84(s0)
30005d44:	00e787b3          	add	a5,a5,a4
30005d48:	0007c303          	lbu	t1,0(a5)
30005d4c:	e6642423          	sw	t1,-408(s0)
30005d50:	fbe45783          	lhu	a5,-66(s0)
30005d54:	04f78713          	addi	a4,a5,79
30005d58:	fac42783          	lw	a5,-84(s0)
30005d5c:	00e787b3          	add	a5,a5,a4
30005d60:	0007ce03          	lbu	t3,0(a5)
30005d64:	e7c42223          	sw	t3,-412(s0)
30005d68:	fbe45783          	lhu	a5,-66(s0)
30005d6c:	05078713          	addi	a4,a5,80
30005d70:	fac42783          	lw	a5,-84(s0)
30005d74:	00e787b3          	add	a5,a5,a4
30005d78:	0007ce83          	lbu	t4,0(a5)
30005d7c:	e7d42023          	sw	t4,-416(s0)
30005d80:	fbe45783          	lhu	a5,-66(s0)
30005d84:	05178713          	addi	a4,a5,81
30005d88:	fac42783          	lw	a5,-84(s0)
30005d8c:	00e787b3          	add	a5,a5,a4
30005d90:	0007c783          	lbu	a5,0(a5)
30005d94:	e4f42e23          	sw	a5,-420(s0)
30005d98:	fbe45783          	lhu	a5,-66(s0)
30005d9c:	05278713          	addi	a4,a5,82
30005da0:	fac42783          	lw	a5,-84(s0)
30005da4:	00e787b3          	add	a5,a5,a4
30005da8:	0007c703          	lbu	a4,0(a5)
30005dac:	e4e42c23          	sw	a4,-424(s0)
30005db0:	fbe45783          	lhu	a5,-66(s0)
30005db4:	05378713          	addi	a4,a5,83
30005db8:	fac42783          	lw	a5,-84(s0)
30005dbc:	00e787b3          	add	a5,a5,a4
30005dc0:	0007c683          	lbu	a3,0(a5)
30005dc4:	e4d42a23          	sw	a3,-428(s0)
30005dc8:	fbe45783          	lhu	a5,-66(s0)
30005dcc:	05478713          	addi	a4,a5,84
30005dd0:	fac42783          	lw	a5,-84(s0)
30005dd4:	00e787b3          	add	a5,a5,a4
30005dd8:	0007c803          	lbu	a6,0(a5)
30005ddc:	e5042823          	sw	a6,-432(s0)
30005de0:	fbe45783          	lhu	a5,-66(s0)
30005de4:	05578713          	addi	a4,a5,85
30005de8:	fac42783          	lw	a5,-84(s0)
30005dec:	00e787b3          	add	a5,a5,a4
30005df0:	0007c883          	lbu	a7,0(a5)
30005df4:	e5142623          	sw	a7,-436(s0)
30005df8:	fbe45783          	lhu	a5,-66(s0)
30005dfc:	05678713          	addi	a4,a5,86
30005e00:	fac42783          	lw	a5,-84(s0)
30005e04:	00e787b3          	add	a5,a5,a4
30005e08:	0007cf03          	lbu	t5,0(a5)
30005e0c:	e5e42423          	sw	t5,-440(s0)
30005e10:	fbe45783          	lhu	a5,-66(s0)
30005e14:	05778713          	addi	a4,a5,87
30005e18:	fac42783          	lw	a5,-84(s0)
30005e1c:	00e787b3          	add	a5,a5,a4
30005e20:	0007cf83          	lbu	t6,0(a5)
30005e24:	e5f42223          	sw	t6,-444(s0)
30005e28:	fbe45783          	lhu	a5,-66(s0)
30005e2c:	05878713          	addi	a4,a5,88
30005e30:	fac42783          	lw	a5,-84(s0)
30005e34:	00e787b3          	add	a5,a5,a4
30005e38:	0007c283          	lbu	t0,0(a5)
30005e3c:	e4542023          	sw	t0,-448(s0)
30005e40:	fbe45783          	lhu	a5,-66(s0)
30005e44:	05978713          	addi	a4,a5,89
30005e48:	fac42783          	lw	a5,-84(s0)
30005e4c:	00e787b3          	add	a5,a5,a4
30005e50:	0007c383          	lbu	t2,0(a5)
30005e54:	e2742e23          	sw	t2,-452(s0)
30005e58:	fbe45783          	lhu	a5,-66(s0)
30005e5c:	05a78713          	addi	a4,a5,90
30005e60:	fac42783          	lw	a5,-84(s0)
30005e64:	00e787b3          	add	a5,a5,a4
30005e68:	0007c483          	lbu	s1,0(a5)
30005e6c:	e2942c23          	sw	s1,-456(s0)
30005e70:	fbe45783          	lhu	a5,-66(s0)
30005e74:	05b78713          	addi	a4,a5,91
30005e78:	fac42783          	lw	a5,-84(s0)
30005e7c:	00e787b3          	add	a5,a5,a4
30005e80:	0007c903          	lbu	s2,0(a5)
30005e84:	e3242a23          	sw	s2,-460(s0)
30005e88:	fbe45783          	lhu	a5,-66(s0)
30005e8c:	05c78713          	addi	a4,a5,92
30005e90:	fac42783          	lw	a5,-84(s0)
30005e94:	00e787b3          	add	a5,a5,a4
30005e98:	0007c983          	lbu	s3,0(a5)
30005e9c:	e3342823          	sw	s3,-464(s0)
30005ea0:	fbe45783          	lhu	a5,-66(s0)
30005ea4:	05d78713          	addi	a4,a5,93
30005ea8:	fac42783          	lw	a5,-84(s0)
30005eac:	00e787b3          	add	a5,a5,a4
30005eb0:	0007ca03          	lbu	s4,0(a5)
30005eb4:	e3442623          	sw	s4,-468(s0)
30005eb8:	fbe45783          	lhu	a5,-66(s0)
30005ebc:	05e78713          	addi	a4,a5,94
30005ec0:	fac42783          	lw	a5,-84(s0)
30005ec4:	00e787b3          	add	a5,a5,a4
30005ec8:	0007ca83          	lbu	s5,0(a5)
30005ecc:	e3542423          	sw	s5,-472(s0)
30005ed0:	fbe45783          	lhu	a5,-66(s0)
30005ed4:	05f78713          	addi	a4,a5,95
30005ed8:	fac42783          	lw	a5,-84(s0)
30005edc:	00e787b3          	add	a5,a5,a4
30005ee0:	0007cb03          	lbu	s6,0(a5)
30005ee4:	e3642223          	sw	s6,-476(s0)
30005ee8:	fbe45783          	lhu	a5,-66(s0)
30005eec:	06078713          	addi	a4,a5,96
30005ef0:	fac42783          	lw	a5,-84(s0)
30005ef4:	00e787b3          	add	a5,a5,a4
30005ef8:	0007cb83          	lbu	s7,0(a5)
30005efc:	e3742023          	sw	s7,-480(s0)
30005f00:	fbe45783          	lhu	a5,-66(s0)
30005f04:	06178713          	addi	a4,a5,97
30005f08:	fac42783          	lw	a5,-84(s0)
30005f0c:	00e787b3          	add	a5,a5,a4
30005f10:	0007cc03          	lbu	s8,0(a5)
30005f14:	e1842e23          	sw	s8,-484(s0)
30005f18:	fbe45783          	lhu	a5,-66(s0)
30005f1c:	06278713          	addi	a4,a5,98
30005f20:	fac42783          	lw	a5,-84(s0)
30005f24:	00e787b3          	add	a5,a5,a4
30005f28:	0007cc83          	lbu	s9,0(a5)
30005f2c:	e1942c23          	sw	s9,-488(s0)
30005f30:	fbe45783          	lhu	a5,-66(s0)
30005f34:	06378713          	addi	a4,a5,99
30005f38:	fac42783          	lw	a5,-84(s0)
30005f3c:	00e787b3          	add	a5,a5,a4
30005f40:	0007cd03          	lbu	s10,0(a5)
30005f44:	e1a42a23          	sw	s10,-492(s0)
30005f48:	fbe45783          	lhu	a5,-66(s0)
30005f4c:	06478713          	addi	a4,a5,100
30005f50:	fac42783          	lw	a5,-84(s0)
30005f54:	00e787b3          	add	a5,a5,a4
30005f58:	0007cd83          	lbu	s11,0(a5)
30005f5c:	e1b42823          	sw	s11,-496(s0)
30005f60:	fbe45783          	lhu	a5,-66(s0)
30005f64:	06578713          	addi	a4,a5,101
30005f68:	fac42783          	lw	a5,-84(s0)
30005f6c:	00e787b3          	add	a5,a5,a4
30005f70:	0007c603          	lbu	a2,0(a5)
30005f74:	e0c42623          	sw	a2,-500(s0)
30005f78:	fbe45783          	lhu	a5,-66(s0)
30005f7c:	06678713          	addi	a4,a5,102
30005f80:	fac42783          	lw	a5,-84(s0)
30005f84:	00e787b3          	add	a5,a5,a4
30005f88:	0007c583          	lbu	a1,0(a5)
30005f8c:	e0b42423          	sw	a1,-504(s0)
30005f90:	fbe45783          	lhu	a5,-66(s0)
30005f94:	06778713          	addi	a4,a5,103
30005f98:	fac42783          	lw	a5,-84(s0)
30005f9c:	00e787b3          	add	a5,a5,a4
30005fa0:	0007cd83          	lbu	s11,0(a5)
30005fa4:	fbe45783          	lhu	a5,-66(s0)
30005fa8:	06878713          	addi	a4,a5,104
30005fac:	fac42783          	lw	a5,-84(s0)
30005fb0:	00e787b3          	add	a5,a5,a4
30005fb4:	0007cd03          	lbu	s10,0(a5)
30005fb8:	fbe45783          	lhu	a5,-66(s0)
30005fbc:	06978713          	addi	a4,a5,105
30005fc0:	fac42783          	lw	a5,-84(s0)
30005fc4:	00e787b3          	add	a5,a5,a4
30005fc8:	0007cc83          	lbu	s9,0(a5)
30005fcc:	fbe45783          	lhu	a5,-66(s0)
30005fd0:	06a78713          	addi	a4,a5,106
30005fd4:	fac42783          	lw	a5,-84(s0)
30005fd8:	00e787b3          	add	a5,a5,a4
30005fdc:	0007cc03          	lbu	s8,0(a5)
30005fe0:	fbe45783          	lhu	a5,-66(s0)
30005fe4:	06b78713          	addi	a4,a5,107
30005fe8:	fac42783          	lw	a5,-84(s0)
30005fec:	00e787b3          	add	a5,a5,a4
30005ff0:	0007cb83          	lbu	s7,0(a5)
30005ff4:	fbe45783          	lhu	a5,-66(s0)
30005ff8:	06c78713          	addi	a4,a5,108
30005ffc:	fac42783          	lw	a5,-84(s0)
30006000:	00e787b3          	add	a5,a5,a4
30006004:	0007cb03          	lbu	s6,0(a5)
30006008:	fbe45783          	lhu	a5,-66(s0)
3000600c:	06d78713          	addi	a4,a5,109
30006010:	fac42783          	lw	a5,-84(s0)
30006014:	00e787b3          	add	a5,a5,a4
30006018:	0007ca83          	lbu	s5,0(a5)
3000601c:	fbe45783          	lhu	a5,-66(s0)
30006020:	06e78713          	addi	a4,a5,110
30006024:	fac42783          	lw	a5,-84(s0)
30006028:	00e787b3          	add	a5,a5,a4
3000602c:	0007ca03          	lbu	s4,0(a5)
30006030:	fbe45783          	lhu	a5,-66(s0)
30006034:	06f78713          	addi	a4,a5,111
30006038:	fac42783          	lw	a5,-84(s0)
3000603c:	00e787b3          	add	a5,a5,a4
30006040:	0007c983          	lbu	s3,0(a5)
30006044:	fbe45783          	lhu	a5,-66(s0)
30006048:	07078713          	addi	a4,a5,112
3000604c:	fac42783          	lw	a5,-84(s0)
30006050:	00e787b3          	add	a5,a5,a4
30006054:	0007c903          	lbu	s2,0(a5)
30006058:	fbe45783          	lhu	a5,-66(s0)
3000605c:	07178713          	addi	a4,a5,113
30006060:	fac42783          	lw	a5,-84(s0)
30006064:	00e787b3          	add	a5,a5,a4
30006068:	0007c483          	lbu	s1,0(a5)
3000606c:	fbe45783          	lhu	a5,-66(s0)
30006070:	07278713          	addi	a4,a5,114
30006074:	fac42783          	lw	a5,-84(s0)
30006078:	00e787b3          	add	a5,a5,a4
3000607c:	0007c383          	lbu	t2,0(a5)
30006080:	fbe45783          	lhu	a5,-66(s0)
30006084:	07378713          	addi	a4,a5,115
30006088:	fac42783          	lw	a5,-84(s0)
3000608c:	00e787b3          	add	a5,a5,a4
30006090:	0007c283          	lbu	t0,0(a5)
30006094:	fbe45783          	lhu	a5,-66(s0)
30006098:	07478713          	addi	a4,a5,116
3000609c:	fac42783          	lw	a5,-84(s0)
300060a0:	00e787b3          	add	a5,a5,a4
300060a4:	0007cf83          	lbu	t6,0(a5)
300060a8:	fbe45783          	lhu	a5,-66(s0)
300060ac:	07578713          	addi	a4,a5,117
300060b0:	fac42783          	lw	a5,-84(s0)
300060b4:	00e787b3          	add	a5,a5,a4
300060b8:	0007cf03          	lbu	t5,0(a5)
300060bc:	fbe45783          	lhu	a5,-66(s0)
300060c0:	07678713          	addi	a4,a5,118
300060c4:	fac42783          	lw	a5,-84(s0)
300060c8:	00e787b3          	add	a5,a5,a4
300060cc:	0007ce83          	lbu	t4,0(a5)
300060d0:	fbe45783          	lhu	a5,-66(s0)
300060d4:	07778713          	addi	a4,a5,119
300060d8:	fac42783          	lw	a5,-84(s0)
300060dc:	00e787b3          	add	a5,a5,a4
300060e0:	0007ce03          	lbu	t3,0(a5)
300060e4:	fbe45783          	lhu	a5,-66(s0)
300060e8:	07878713          	addi	a4,a5,120
300060ec:	fac42783          	lw	a5,-84(s0)
300060f0:	00e787b3          	add	a5,a5,a4
300060f4:	0007c303          	lbu	t1,0(a5)
300060f8:	fbe45783          	lhu	a5,-66(s0)
300060fc:	07978713          	addi	a4,a5,121
30006100:	fac42783          	lw	a5,-84(s0)
30006104:	00e787b3          	add	a5,a5,a4
30006108:	0007c883          	lbu	a7,0(a5)
3000610c:	fbe45783          	lhu	a5,-66(s0)
30006110:	07a78713          	addi	a4,a5,122
30006114:	fac42783          	lw	a5,-84(s0)
30006118:	00e787b3          	add	a5,a5,a4
3000611c:	0007c803          	lbu	a6,0(a5)
30006120:	fbe45783          	lhu	a5,-66(s0)
30006124:	07b78713          	addi	a4,a5,123
30006128:	fac42783          	lw	a5,-84(s0)
3000612c:	00e787b3          	add	a5,a5,a4
30006130:	0007c503          	lbu	a0,0(a5)
30006134:	fbe45783          	lhu	a5,-66(s0)
30006138:	07c78713          	addi	a4,a5,124
3000613c:	fac42783          	lw	a5,-84(s0)
30006140:	00e787b3          	add	a5,a5,a4
30006144:	0007c583          	lbu	a1,0(a5)
30006148:	fbe45783          	lhu	a5,-66(s0)
3000614c:	07d78713          	addi	a4,a5,125
30006150:	fac42783          	lw	a5,-84(s0)
30006154:	00e787b3          	add	a5,a5,a4
30006158:	0007c603          	lbu	a2,0(a5)
3000615c:	fbe45783          	lhu	a5,-66(s0)
30006160:	07e78713          	addi	a4,a5,126
30006164:	fac42783          	lw	a5,-84(s0)
30006168:	00e787b3          	add	a5,a5,a4
3000616c:	0007c683          	lbu	a3,0(a5)
30006170:	fbe45783          	lhu	a5,-66(s0)
30006174:	07f78713          	addi	a4,a5,127
30006178:	fac42783          	lw	a5,-84(s0)
3000617c:	00e787b3          	add	a5,a5,a4
30006180:	0007c783          	lbu	a5,0(a5)
30006184:	1cf12e23          	sw	a5,476(sp)
30006188:	1cd12c23          	sw	a3,472(sp)
3000618c:	1cc12a23          	sw	a2,468(sp)
30006190:	1cb12823          	sw	a1,464(sp)
30006194:	1ca12623          	sw	a0,460(sp)
30006198:	1d012423          	sw	a6,456(sp)
3000619c:	1d112223          	sw	a7,452(sp)
300061a0:	1c612023          	sw	t1,448(sp)
300061a4:	1bc12e23          	sw	t3,444(sp)
300061a8:	1bd12c23          	sw	t4,440(sp)
300061ac:	1be12a23          	sw	t5,436(sp)
300061b0:	1bf12823          	sw	t6,432(sp)
300061b4:	1a512623          	sw	t0,428(sp)
300061b8:	1a712423          	sw	t2,424(sp)
300061bc:	1a912223          	sw	s1,420(sp)
300061c0:	1b212023          	sw	s2,416(sp)
300061c4:	19312e23          	sw	s3,412(sp)
300061c8:	19412c23          	sw	s4,408(sp)
300061cc:	19512a23          	sw	s5,404(sp)
300061d0:	19612823          	sw	s6,400(sp)
300061d4:	19712623          	sw	s7,396(sp)
300061d8:	19812423          	sw	s8,392(sp)
300061dc:	19912223          	sw	s9,388(sp)
300061e0:	19a12023          	sw	s10,384(sp)
300061e4:	17b12e23          	sw	s11,380(sp)
300061e8:	e0842583          	lw	a1,-504(s0)
300061ec:	16b12c23          	sw	a1,376(sp)
300061f0:	e0c42603          	lw	a2,-500(s0)
300061f4:	16c12a23          	sw	a2,372(sp)
300061f8:	e1042d83          	lw	s11,-496(s0)
300061fc:	17b12823          	sw	s11,368(sp)
30006200:	e1442d03          	lw	s10,-492(s0)
30006204:	17a12623          	sw	s10,364(sp)
30006208:	e1842c83          	lw	s9,-488(s0)
3000620c:	17912423          	sw	s9,360(sp)
30006210:	e1c42c03          	lw	s8,-484(s0)
30006214:	17812223          	sw	s8,356(sp)
30006218:	e2042b83          	lw	s7,-480(s0)
3000621c:	17712023          	sw	s7,352(sp)
30006220:	e2442b03          	lw	s6,-476(s0)
30006224:	15612e23          	sw	s6,348(sp)
30006228:	e2842a83          	lw	s5,-472(s0)
3000622c:	15512c23          	sw	s5,344(sp)
30006230:	e2c42a03          	lw	s4,-468(s0)
30006234:	15412a23          	sw	s4,340(sp)
30006238:	e3042983          	lw	s3,-464(s0)
3000623c:	15312823          	sw	s3,336(sp)
30006240:	e3442903          	lw	s2,-460(s0)
30006244:	15212623          	sw	s2,332(sp)
30006248:	e3842483          	lw	s1,-456(s0)
3000624c:	14912423          	sw	s1,328(sp)
30006250:	e3c42383          	lw	t2,-452(s0)
30006254:	14712223          	sw	t2,324(sp)
30006258:	e4042283          	lw	t0,-448(s0)
3000625c:	14512023          	sw	t0,320(sp)
30006260:	e4442f83          	lw	t6,-444(s0)
30006264:	13f12e23          	sw	t6,316(sp)
30006268:	e4842f03          	lw	t5,-440(s0)
3000626c:	13e12c23          	sw	t5,312(sp)
30006270:	e4c42883          	lw	a7,-436(s0)
30006274:	13112a23          	sw	a7,308(sp)
30006278:	e5042803          	lw	a6,-432(s0)
3000627c:	13012823          	sw	a6,304(sp)
30006280:	e5442683          	lw	a3,-428(s0)
30006284:	12d12623          	sw	a3,300(sp)
30006288:	e5842703          	lw	a4,-424(s0)
3000628c:	12e12423          	sw	a4,296(sp)
30006290:	e5c42783          	lw	a5,-420(s0)
30006294:	12f12223          	sw	a5,292(sp)
30006298:	e6042e83          	lw	t4,-416(s0)
3000629c:	13d12023          	sw	t4,288(sp)
300062a0:	e6442e03          	lw	t3,-412(s0)
300062a4:	11c12e23          	sw	t3,284(sp)
300062a8:	e6842303          	lw	t1,-408(s0)
300062ac:	10612c23          	sw	t1,280(sp)
300062b0:	e6c42503          	lw	a0,-404(s0)
300062b4:	10a12a23          	sw	a0,276(sp)
300062b8:	e7042583          	lw	a1,-400(s0)
300062bc:	10b12823          	sw	a1,272(sp)
300062c0:	e7442603          	lw	a2,-396(s0)
300062c4:	10c12623          	sw	a2,268(sp)
300062c8:	e7842d83          	lw	s11,-392(s0)
300062cc:	11b12423          	sw	s11,264(sp)
300062d0:	e7c42d03          	lw	s10,-388(s0)
300062d4:	11a12223          	sw	s10,260(sp)
300062d8:	e8042c83          	lw	s9,-384(s0)
300062dc:	11912023          	sw	s9,256(sp)
300062e0:	e8442c03          	lw	s8,-380(s0)
300062e4:	0f812e23          	sw	s8,252(sp)
300062e8:	e8842b83          	lw	s7,-376(s0)
300062ec:	0f712c23          	sw	s7,248(sp)
300062f0:	e8c42b03          	lw	s6,-372(s0)
300062f4:	0f612a23          	sw	s6,244(sp)
300062f8:	e9042a83          	lw	s5,-368(s0)
300062fc:	0f512823          	sw	s5,240(sp)
30006300:	e9442a03          	lw	s4,-364(s0)
30006304:	0f412623          	sw	s4,236(sp)
30006308:	e9842983          	lw	s3,-360(s0)
3000630c:	0f312423          	sw	s3,232(sp)
30006310:	e9c42903          	lw	s2,-356(s0)
30006314:	0f212223          	sw	s2,228(sp)
30006318:	ea042483          	lw	s1,-352(s0)
3000631c:	0e912023          	sw	s1,224(sp)
30006320:	ea442383          	lw	t2,-348(s0)
30006324:	0c712e23          	sw	t2,220(sp)
30006328:	ea842283          	lw	t0,-344(s0)
3000632c:	0c512c23          	sw	t0,216(sp)
30006330:	eac42f83          	lw	t6,-340(s0)
30006334:	0df12a23          	sw	t6,212(sp)
30006338:	eb042f03          	lw	t5,-336(s0)
3000633c:	0de12823          	sw	t5,208(sp)
30006340:	eb442883          	lw	a7,-332(s0)
30006344:	0d112623          	sw	a7,204(sp)
30006348:	eb842803          	lw	a6,-328(s0)
3000634c:	0d012423          	sw	a6,200(sp)
30006350:	ebc42683          	lw	a3,-324(s0)
30006354:	0cd12223          	sw	a3,196(sp)
30006358:	ec042703          	lw	a4,-320(s0)
3000635c:	0ce12023          	sw	a4,192(sp)
30006360:	ec442783          	lw	a5,-316(s0)
30006364:	0af12e23          	sw	a5,188(sp)
30006368:	ec842e83          	lw	t4,-312(s0)
3000636c:	0bd12c23          	sw	t4,184(sp)
30006370:	ecc42e03          	lw	t3,-308(s0)
30006374:	0bc12a23          	sw	t3,180(sp)
30006378:	ed042303          	lw	t1,-304(s0)
3000637c:	0a612823          	sw	t1,176(sp)
30006380:	ed442503          	lw	a0,-300(s0)
30006384:	0aa12623          	sw	a0,172(sp)
30006388:	ed842583          	lw	a1,-296(s0)
3000638c:	0ab12423          	sw	a1,168(sp)
30006390:	edc42603          	lw	a2,-292(s0)
30006394:	0ac12223          	sw	a2,164(sp)
30006398:	ee042d83          	lw	s11,-288(s0)
3000639c:	0bb12023          	sw	s11,160(sp)
300063a0:	ee442d03          	lw	s10,-284(s0)
300063a4:	09a12e23          	sw	s10,156(sp)
300063a8:	ee842c83          	lw	s9,-280(s0)
300063ac:	09912c23          	sw	s9,152(sp)
300063b0:	eec42c03          	lw	s8,-276(s0)
300063b4:	09812a23          	sw	s8,148(sp)
300063b8:	ef042b83          	lw	s7,-272(s0)
300063bc:	09712823          	sw	s7,144(sp)
300063c0:	ef442b03          	lw	s6,-268(s0)
300063c4:	09612623          	sw	s6,140(sp)
300063c8:	ef842a83          	lw	s5,-264(s0)
300063cc:	09512423          	sw	s5,136(sp)
300063d0:	efc42a03          	lw	s4,-260(s0)
300063d4:	09412223          	sw	s4,132(sp)
300063d8:	f0042983          	lw	s3,-256(s0)
300063dc:	09312023          	sw	s3,128(sp)
300063e0:	f0442903          	lw	s2,-252(s0)
300063e4:	07212e23          	sw	s2,124(sp)
300063e8:	f0842483          	lw	s1,-248(s0)
300063ec:	06912c23          	sw	s1,120(sp)
300063f0:	f0c42383          	lw	t2,-244(s0)
300063f4:	06712a23          	sw	t2,116(sp)
300063f8:	f1042283          	lw	t0,-240(s0)
300063fc:	06512823          	sw	t0,112(sp)
30006400:	f1442f83          	lw	t6,-236(s0)
30006404:	07f12623          	sw	t6,108(sp)
30006408:	f1842f03          	lw	t5,-232(s0)
3000640c:	07e12423          	sw	t5,104(sp)
30006410:	f1c42883          	lw	a7,-228(s0)
30006414:	07112223          	sw	a7,100(sp)
30006418:	f2042803          	lw	a6,-224(s0)
3000641c:	07012023          	sw	a6,96(sp)
30006420:	f2442683          	lw	a3,-220(s0)
30006424:	04d12e23          	sw	a3,92(sp)
30006428:	f2842703          	lw	a4,-216(s0)
3000642c:	04e12c23          	sw	a4,88(sp)
30006430:	f2c42783          	lw	a5,-212(s0)
30006434:	04f12a23          	sw	a5,84(sp)
30006438:	f3042e83          	lw	t4,-208(s0)
3000643c:	05d12823          	sw	t4,80(sp)
30006440:	f3442e03          	lw	t3,-204(s0)
30006444:	05c12623          	sw	t3,76(sp)
30006448:	f3842303          	lw	t1,-200(s0)
3000644c:	04612423          	sw	t1,72(sp)
30006450:	f3c42503          	lw	a0,-196(s0)
30006454:	04a12223          	sw	a0,68(sp)
30006458:	f4042583          	lw	a1,-192(s0)
3000645c:	04b12023          	sw	a1,64(sp)
30006460:	f4442603          	lw	a2,-188(s0)
30006464:	02c12e23          	sw	a2,60(sp)
30006468:	f4842d83          	lw	s11,-184(s0)
3000646c:	03b12c23          	sw	s11,56(sp)
30006470:	f4c42d03          	lw	s10,-180(s0)
30006474:	03a12a23          	sw	s10,52(sp)
30006478:	f5042c83          	lw	s9,-176(s0)
3000647c:	03912823          	sw	s9,48(sp)
30006480:	f5442c03          	lw	s8,-172(s0)
30006484:	03812623          	sw	s8,44(sp)
30006488:	f5842b83          	lw	s7,-168(s0)
3000648c:	03712423          	sw	s7,40(sp)
30006490:	f5c42b03          	lw	s6,-164(s0)
30006494:	03612223          	sw	s6,36(sp)
30006498:	f6042a83          	lw	s5,-160(s0)
3000649c:	03512023          	sw	s5,32(sp)
300064a0:	f6442a03          	lw	s4,-156(s0)
300064a4:	01412e23          	sw	s4,28(sp)
300064a8:	f6842983          	lw	s3,-152(s0)
300064ac:	01312c23          	sw	s3,24(sp)
300064b0:	f6c42903          	lw	s2,-148(s0)
300064b4:	01212a23          	sw	s2,20(sp)
300064b8:	f7042483          	lw	s1,-144(s0)
300064bc:	00912823          	sw	s1,16(sp)
300064c0:	f7442383          	lw	t2,-140(s0)
300064c4:	00712623          	sw	t2,12(sp)
300064c8:	f7842283          	lw	t0,-136(s0)
300064cc:	00512423          	sw	t0,8(sp)
300064d0:	f7c42f83          	lw	t6,-132(s0)
300064d4:	01f12223          	sw	t6,4(sp)
300064d8:	f8042f03          	lw	t5,-128(s0)
300064dc:	01e12023          	sw	t5,0(sp)
300064e0:	f8442883          	lw	a7,-124(s0)
300064e4:	f8842803          	lw	a6,-120(s0)
300064e8:	f8c42783          	lw	a5,-116(s0)
300064ec:	f9042703          	lw	a4,-112(s0)
300064f0:	f9442683          	lw	a3,-108(s0)
300064f4:	f9842603          	lw	a2,-104(s0)
300064f8:	f9c42583          	lw	a1,-100(s0)
300064fc:	fa042503          	lw	a0,-96(s0)
30006500:	918fe0ef          	jal	30004618 <myspi_wr_dat8>
30006504:	fbe45783          	lhu	a5,-66(s0)
30006508:	08078793          	addi	a5,a5,128
3000650c:	faf41f23          	sh	a5,-66(s0)
30006510:	fbe45703          	lhu	a4,-66(s0)
30006514:	fa445683          	lhu	a3,-92(s0)
30006518:	fa645783          	lhu	a5,-90(s0)
3000651c:	02f687b3          	mul	a5,a3,a5
30006520:	00179793          	slli	a5,a5,0x1
30006524:	8cf74463          	blt	a4,a5,300055ec <lcd_fill_bmp_8+0xc4>
30006528:	00000013          	nop
3000652c:	00000013          	nop
30006530:	3dc12083          	lw	ra,988(sp)
30006534:	3d812403          	lw	s0,984(sp)
30006538:	3d412483          	lw	s1,980(sp)
3000653c:	3d012903          	lw	s2,976(sp)
30006540:	3cc12983          	lw	s3,972(sp)
30006544:	3c812a03          	lw	s4,968(sp)
30006548:	3c412a83          	lw	s5,964(sp)
3000654c:	3c012b03          	lw	s6,960(sp)
30006550:	3bc12b83          	lw	s7,956(sp)
30006554:	3b812c03          	lw	s8,952(sp)
30006558:	3b412c83          	lw	s9,948(sp)
3000655c:	3b012d03          	lw	s10,944(sp)
30006560:	3ac12d83          	lw	s11,940(sp)
30006564:	3e010113          	addi	sp,sp,992
30006568:	00008067          	ret

3000656c <lcd_fill_bmp_16>:
3000656c:	e2010113          	addi	sp,sp,-480
30006570:	1c112e23          	sw	ra,476(sp)
30006574:	1c812c23          	sw	s0,472(sp)
30006578:	1c912a23          	sw	s1,468(sp)
3000657c:	1d212823          	sw	s2,464(sp)
30006580:	1d312623          	sw	s3,460(sp)
30006584:	1d412423          	sw	s4,456(sp)
30006588:	1d512223          	sw	s5,452(sp)
3000658c:	1d612023          	sw	s6,448(sp)
30006590:	1b712e23          	sw	s7,444(sp)
30006594:	1b812c23          	sw	s8,440(sp)
30006598:	1b912a23          	sw	s9,436(sp)
3000659c:	1ba12823          	sw	s10,432(sp)
300065a0:	1bb12623          	sw	s11,428(sp)
300065a4:	1e010413          	addi	s0,sp,480
300065a8:	faa42623          	sw	a0,-84(s0)
300065ac:	00058793          	mv	a5,a1
300065b0:	faf41523          	sh	a5,-86(s0)
300065b4:	00060793          	mv	a5,a2
300065b8:	faf41423          	sh	a5,-88(s0)
300065bc:	00068793          	mv	a5,a3
300065c0:	faf41323          	sh	a5,-90(s0)
300065c4:	00070793          	mv	a5,a4
300065c8:	faf41223          	sh	a5,-92(s0)
300065cc:	faa45783          	lhu	a5,-86(s0)
300065d0:	00078713          	mv	a4,a5
300065d4:	fa645783          	lhu	a5,-90(s0)
300065d8:	00f707b3          	add	a5,a4,a5
300065dc:	01079793          	slli	a5,a5,0x10
300065e0:	0107d793          	srli	a5,a5,0x10
300065e4:	fff78793          	addi	a5,a5,-1
300065e8:	01079613          	slli	a2,a5,0x10
300065ec:	01065613          	srli	a2,a2,0x10
300065f0:	fa845783          	lhu	a5,-88(s0)
300065f4:	00078713          	mv	a4,a5
300065f8:	fa445783          	lhu	a5,-92(s0)
300065fc:	00f707b3          	add	a5,a4,a5
30006600:	01079793          	slli	a5,a5,0x10
30006604:	0107d793          	srli	a5,a5,0x10
30006608:	fff78793          	addi	a5,a5,-1
3000660c:	01079693          	slli	a3,a5,0x10
30006610:	0106d693          	srli	a3,a3,0x10
30006614:	fa845703          	lhu	a4,-88(s0)
30006618:	faa45783          	lhu	a5,-86(s0)
3000661c:	00070593          	mv	a1,a4
30006620:	00078513          	mv	a0,a5
30006624:	891fd0ef          	jal	30003eb4 <lcd_addr_set>
30006628:	fa041f23          	sh	zero,-66(s0)
3000662c:	0290006f          	j	30006e54 <lcd_fill_bmp_16+0x8e8>
30006630:	fbe45783          	lhu	a5,-66(s0)
30006634:	00179793          	slli	a5,a5,0x1
30006638:	fac42703          	lw	a4,-84(s0)
3000663c:	00f707b3          	add	a5,a4,a5
30006640:	0007d783          	lhu	a5,0(a5)
30006644:	faf42023          	sw	a5,-96(s0)
30006648:	fbe45783          	lhu	a5,-66(s0)
3000664c:	00178793          	addi	a5,a5,1
30006650:	00179793          	slli	a5,a5,0x1
30006654:	fac42703          	lw	a4,-84(s0)
30006658:	00f707b3          	add	a5,a4,a5
3000665c:	0007d703          	lhu	a4,0(a5)
30006660:	f8e42e23          	sw	a4,-100(s0)
30006664:	fbe45783          	lhu	a5,-66(s0)
30006668:	00278793          	addi	a5,a5,2
3000666c:	00179793          	slli	a5,a5,0x1
30006670:	fac42703          	lw	a4,-84(s0)
30006674:	00f707b3          	add	a5,a4,a5
30006678:	0007d683          	lhu	a3,0(a5)
3000667c:	f8d42c23          	sw	a3,-104(s0)
30006680:	fbe45783          	lhu	a5,-66(s0)
30006684:	00378793          	addi	a5,a5,3
30006688:	00179793          	slli	a5,a5,0x1
3000668c:	fac42703          	lw	a4,-84(s0)
30006690:	00f707b3          	add	a5,a4,a5
30006694:	0007d803          	lhu	a6,0(a5)
30006698:	f9042a23          	sw	a6,-108(s0)
3000669c:	fbe45783          	lhu	a5,-66(s0)
300066a0:	00478793          	addi	a5,a5,4
300066a4:	00179793          	slli	a5,a5,0x1
300066a8:	fac42703          	lw	a4,-84(s0)
300066ac:	00f707b3          	add	a5,a4,a5
300066b0:	0007d883          	lhu	a7,0(a5)
300066b4:	f9142823          	sw	a7,-112(s0)
300066b8:	fbe45783          	lhu	a5,-66(s0)
300066bc:	00578793          	addi	a5,a5,5
300066c0:	00179793          	slli	a5,a5,0x1
300066c4:	fac42703          	lw	a4,-84(s0)
300066c8:	00f707b3          	add	a5,a4,a5
300066cc:	0007d303          	lhu	t1,0(a5)
300066d0:	f8642623          	sw	t1,-116(s0)
300066d4:	fbe45783          	lhu	a5,-66(s0)
300066d8:	00678793          	addi	a5,a5,6
300066dc:	00179793          	slli	a5,a5,0x1
300066e0:	fac42703          	lw	a4,-84(s0)
300066e4:	00f707b3          	add	a5,a4,a5
300066e8:	0007de03          	lhu	t3,0(a5)
300066ec:	f9c42423          	sw	t3,-120(s0)
300066f0:	fbe45783          	lhu	a5,-66(s0)
300066f4:	00778793          	addi	a5,a5,7
300066f8:	00179793          	slli	a5,a5,0x1
300066fc:	fac42703          	lw	a4,-84(s0)
30006700:	00f707b3          	add	a5,a4,a5
30006704:	0007de83          	lhu	t4,0(a5)
30006708:	f9d42223          	sw	t4,-124(s0)
3000670c:	fbe45783          	lhu	a5,-66(s0)
30006710:	00878793          	addi	a5,a5,8
30006714:	00179793          	slli	a5,a5,0x1
30006718:	fac42703          	lw	a4,-84(s0)
3000671c:	00f707b3          	add	a5,a4,a5
30006720:	0007df03          	lhu	t5,0(a5)
30006724:	f9e42023          	sw	t5,-128(s0)
30006728:	fbe45783          	lhu	a5,-66(s0)
3000672c:	00978793          	addi	a5,a5,9
30006730:	00179793          	slli	a5,a5,0x1
30006734:	fac42703          	lw	a4,-84(s0)
30006738:	00f707b3          	add	a5,a4,a5
3000673c:	0007df83          	lhu	t6,0(a5)
30006740:	f7f42e23          	sw	t6,-132(s0)
30006744:	fbe45783          	lhu	a5,-66(s0)
30006748:	00a78793          	addi	a5,a5,10
3000674c:	00179793          	slli	a5,a5,0x1
30006750:	fac42703          	lw	a4,-84(s0)
30006754:	00f707b3          	add	a5,a4,a5
30006758:	0007d283          	lhu	t0,0(a5)
3000675c:	f6542c23          	sw	t0,-136(s0)
30006760:	fbe45783          	lhu	a5,-66(s0)
30006764:	00b78793          	addi	a5,a5,11
30006768:	00179793          	slli	a5,a5,0x1
3000676c:	fac42703          	lw	a4,-84(s0)
30006770:	00f707b3          	add	a5,a4,a5
30006774:	0007d383          	lhu	t2,0(a5)
30006778:	f6742a23          	sw	t2,-140(s0)
3000677c:	fbe45783          	lhu	a5,-66(s0)
30006780:	00c78793          	addi	a5,a5,12
30006784:	00179793          	slli	a5,a5,0x1
30006788:	fac42703          	lw	a4,-84(s0)
3000678c:	00f707b3          	add	a5,a4,a5
30006790:	0007d483          	lhu	s1,0(a5)
30006794:	f6942823          	sw	s1,-144(s0)
30006798:	fbe45783          	lhu	a5,-66(s0)
3000679c:	00d78793          	addi	a5,a5,13
300067a0:	00179793          	slli	a5,a5,0x1
300067a4:	fac42703          	lw	a4,-84(s0)
300067a8:	00f707b3          	add	a5,a4,a5
300067ac:	0007d903          	lhu	s2,0(a5)
300067b0:	f7242623          	sw	s2,-148(s0)
300067b4:	fbe45783          	lhu	a5,-66(s0)
300067b8:	00e78793          	addi	a5,a5,14
300067bc:	00179793          	slli	a5,a5,0x1
300067c0:	fac42703          	lw	a4,-84(s0)
300067c4:	00f707b3          	add	a5,a4,a5
300067c8:	0007d983          	lhu	s3,0(a5)
300067cc:	f7342423          	sw	s3,-152(s0)
300067d0:	fbe45783          	lhu	a5,-66(s0)
300067d4:	00f78793          	addi	a5,a5,15
300067d8:	00179793          	slli	a5,a5,0x1
300067dc:	fac42703          	lw	a4,-84(s0)
300067e0:	00f707b3          	add	a5,a4,a5
300067e4:	0007da03          	lhu	s4,0(a5)
300067e8:	f7442223          	sw	s4,-156(s0)
300067ec:	fbe45783          	lhu	a5,-66(s0)
300067f0:	01078793          	addi	a5,a5,16
300067f4:	00179793          	slli	a5,a5,0x1
300067f8:	fac42703          	lw	a4,-84(s0)
300067fc:	00f707b3          	add	a5,a4,a5
30006800:	0007da83          	lhu	s5,0(a5)
30006804:	f7542023          	sw	s5,-160(s0)
30006808:	fbe45783          	lhu	a5,-66(s0)
3000680c:	01178793          	addi	a5,a5,17
30006810:	00179793          	slli	a5,a5,0x1
30006814:	fac42703          	lw	a4,-84(s0)
30006818:	00f707b3          	add	a5,a4,a5
3000681c:	0007db03          	lhu	s6,0(a5)
30006820:	f5642e23          	sw	s6,-164(s0)
30006824:	fbe45783          	lhu	a5,-66(s0)
30006828:	01278793          	addi	a5,a5,18
3000682c:	00179793          	slli	a5,a5,0x1
30006830:	fac42703          	lw	a4,-84(s0)
30006834:	00f707b3          	add	a5,a4,a5
30006838:	0007db83          	lhu	s7,0(a5)
3000683c:	f5742c23          	sw	s7,-168(s0)
30006840:	fbe45783          	lhu	a5,-66(s0)
30006844:	01378793          	addi	a5,a5,19
30006848:	00179793          	slli	a5,a5,0x1
3000684c:	fac42703          	lw	a4,-84(s0)
30006850:	00f707b3          	add	a5,a4,a5
30006854:	0007dc03          	lhu	s8,0(a5)
30006858:	f5842a23          	sw	s8,-172(s0)
3000685c:	fbe45783          	lhu	a5,-66(s0)
30006860:	01478793          	addi	a5,a5,20
30006864:	00179793          	slli	a5,a5,0x1
30006868:	fac42703          	lw	a4,-84(s0)
3000686c:	00f707b3          	add	a5,a4,a5
30006870:	0007dc83          	lhu	s9,0(a5)
30006874:	f5942823          	sw	s9,-176(s0)
30006878:	fbe45783          	lhu	a5,-66(s0)
3000687c:	01578793          	addi	a5,a5,21
30006880:	00179793          	slli	a5,a5,0x1
30006884:	fac42703          	lw	a4,-84(s0)
30006888:	00f707b3          	add	a5,a4,a5
3000688c:	0007dd03          	lhu	s10,0(a5)
30006890:	f5a42623          	sw	s10,-180(s0)
30006894:	fbe45783          	lhu	a5,-66(s0)
30006898:	01678793          	addi	a5,a5,22
3000689c:	00179793          	slli	a5,a5,0x1
300068a0:	fac42703          	lw	a4,-84(s0)
300068a4:	00f707b3          	add	a5,a4,a5
300068a8:	0007dd83          	lhu	s11,0(a5)
300068ac:	f5b42423          	sw	s11,-184(s0)
300068b0:	fbe45783          	lhu	a5,-66(s0)
300068b4:	01778793          	addi	a5,a5,23
300068b8:	00179793          	slli	a5,a5,0x1
300068bc:	fac42703          	lw	a4,-84(s0)
300068c0:	00f707b3          	add	a5,a4,a5
300068c4:	0007d603          	lhu	a2,0(a5)
300068c8:	f4c42223          	sw	a2,-188(s0)
300068cc:	fbe45783          	lhu	a5,-66(s0)
300068d0:	01878793          	addi	a5,a5,24
300068d4:	00179793          	slli	a5,a5,0x1
300068d8:	fac42703          	lw	a4,-84(s0)
300068dc:	00f707b3          	add	a5,a4,a5
300068e0:	0007d583          	lhu	a1,0(a5)
300068e4:	f4b42023          	sw	a1,-192(s0)
300068e8:	fbe45783          	lhu	a5,-66(s0)
300068ec:	01978793          	addi	a5,a5,25
300068f0:	00179793          	slli	a5,a5,0x1
300068f4:	fac42703          	lw	a4,-84(s0)
300068f8:	00f707b3          	add	a5,a4,a5
300068fc:	0007d503          	lhu	a0,0(a5)
30006900:	f2a42e23          	sw	a0,-196(s0)
30006904:	fbe45783          	lhu	a5,-66(s0)
30006908:	01a78793          	addi	a5,a5,26
3000690c:	00179713          	slli	a4,a5,0x1
30006910:	fac42783          	lw	a5,-84(s0)
30006914:	00e787b3          	add	a5,a5,a4
30006918:	0007d303          	lhu	t1,0(a5)
3000691c:	f2642c23          	sw	t1,-200(s0)
30006920:	fbe45783          	lhu	a5,-66(s0)
30006924:	01b78793          	addi	a5,a5,27
30006928:	00179713          	slli	a4,a5,0x1
3000692c:	fac42783          	lw	a5,-84(s0)
30006930:	00e787b3          	add	a5,a5,a4
30006934:	0007de03          	lhu	t3,0(a5)
30006938:	f3c42a23          	sw	t3,-204(s0)
3000693c:	fbe45783          	lhu	a5,-66(s0)
30006940:	01c78793          	addi	a5,a5,28
30006944:	00179713          	slli	a4,a5,0x1
30006948:	fac42783          	lw	a5,-84(s0)
3000694c:	00e787b3          	add	a5,a5,a4
30006950:	0007de83          	lhu	t4,0(a5)
30006954:	f3d42823          	sw	t4,-208(s0)
30006958:	fbe45783          	lhu	a5,-66(s0)
3000695c:	01d78793          	addi	a5,a5,29
30006960:	00179713          	slli	a4,a5,0x1
30006964:	fac42783          	lw	a5,-84(s0)
30006968:	00e787b3          	add	a5,a5,a4
3000696c:	0007d783          	lhu	a5,0(a5)
30006970:	f2f42623          	sw	a5,-212(s0)
30006974:	fbe45783          	lhu	a5,-66(s0)
30006978:	01e78793          	addi	a5,a5,30
3000697c:	00179713          	slli	a4,a5,0x1
30006980:	fac42783          	lw	a5,-84(s0)
30006984:	00e787b3          	add	a5,a5,a4
30006988:	0007d703          	lhu	a4,0(a5)
3000698c:	f2e42423          	sw	a4,-216(s0)
30006990:	fbe45783          	lhu	a5,-66(s0)
30006994:	01f78793          	addi	a5,a5,31
30006998:	00179713          	slli	a4,a5,0x1
3000699c:	fac42783          	lw	a5,-84(s0)
300069a0:	00e787b3          	add	a5,a5,a4
300069a4:	0007d683          	lhu	a3,0(a5)
300069a8:	f2d42223          	sw	a3,-220(s0)
300069ac:	fbe45783          	lhu	a5,-66(s0)
300069b0:	02078793          	addi	a5,a5,32
300069b4:	00179713          	slli	a4,a5,0x1
300069b8:	fac42783          	lw	a5,-84(s0)
300069bc:	00e787b3          	add	a5,a5,a4
300069c0:	0007d803          	lhu	a6,0(a5)
300069c4:	f3042023          	sw	a6,-224(s0)
300069c8:	fbe45783          	lhu	a5,-66(s0)
300069cc:	02178793          	addi	a5,a5,33
300069d0:	00179713          	slli	a4,a5,0x1
300069d4:	fac42783          	lw	a5,-84(s0)
300069d8:	00e787b3          	add	a5,a5,a4
300069dc:	0007d883          	lhu	a7,0(a5)
300069e0:	f1142e23          	sw	a7,-228(s0)
300069e4:	fbe45783          	lhu	a5,-66(s0)
300069e8:	02278793          	addi	a5,a5,34
300069ec:	00179713          	slli	a4,a5,0x1
300069f0:	fac42783          	lw	a5,-84(s0)
300069f4:	00e787b3          	add	a5,a5,a4
300069f8:	0007df03          	lhu	t5,0(a5)
300069fc:	f1e42c23          	sw	t5,-232(s0)
30006a00:	fbe45783          	lhu	a5,-66(s0)
30006a04:	02378793          	addi	a5,a5,35
30006a08:	00179713          	slli	a4,a5,0x1
30006a0c:	fac42783          	lw	a5,-84(s0)
30006a10:	00e787b3          	add	a5,a5,a4
30006a14:	0007df83          	lhu	t6,0(a5)
30006a18:	f1f42a23          	sw	t6,-236(s0)
30006a1c:	fbe45783          	lhu	a5,-66(s0)
30006a20:	02478793          	addi	a5,a5,36
30006a24:	00179713          	slli	a4,a5,0x1
30006a28:	fac42783          	lw	a5,-84(s0)
30006a2c:	00e787b3          	add	a5,a5,a4
30006a30:	0007d283          	lhu	t0,0(a5)
30006a34:	f0542823          	sw	t0,-240(s0)
30006a38:	fbe45783          	lhu	a5,-66(s0)
30006a3c:	02578793          	addi	a5,a5,37
30006a40:	00179713          	slli	a4,a5,0x1
30006a44:	fac42783          	lw	a5,-84(s0)
30006a48:	00e787b3          	add	a5,a5,a4
30006a4c:	0007d383          	lhu	t2,0(a5)
30006a50:	f0742623          	sw	t2,-244(s0)
30006a54:	fbe45783          	lhu	a5,-66(s0)
30006a58:	02678793          	addi	a5,a5,38
30006a5c:	00179713          	slli	a4,a5,0x1
30006a60:	fac42783          	lw	a5,-84(s0)
30006a64:	00e787b3          	add	a5,a5,a4
30006a68:	0007d483          	lhu	s1,0(a5)
30006a6c:	f0942423          	sw	s1,-248(s0)
30006a70:	fbe45783          	lhu	a5,-66(s0)
30006a74:	02778793          	addi	a5,a5,39
30006a78:	00179713          	slli	a4,a5,0x1
30006a7c:	fac42783          	lw	a5,-84(s0)
30006a80:	00e787b3          	add	a5,a5,a4
30006a84:	0007dd83          	lhu	s11,0(a5)
30006a88:	fbe45783          	lhu	a5,-66(s0)
30006a8c:	02878793          	addi	a5,a5,40
30006a90:	00179713          	slli	a4,a5,0x1
30006a94:	fac42783          	lw	a5,-84(s0)
30006a98:	00e787b3          	add	a5,a5,a4
30006a9c:	0007dd03          	lhu	s10,0(a5)
30006aa0:	fbe45783          	lhu	a5,-66(s0)
30006aa4:	02978793          	addi	a5,a5,41
30006aa8:	00179713          	slli	a4,a5,0x1
30006aac:	fac42783          	lw	a5,-84(s0)
30006ab0:	00e787b3          	add	a5,a5,a4
30006ab4:	0007dc83          	lhu	s9,0(a5)
30006ab8:	fbe45783          	lhu	a5,-66(s0)
30006abc:	02a78793          	addi	a5,a5,42
30006ac0:	00179713          	slli	a4,a5,0x1
30006ac4:	fac42783          	lw	a5,-84(s0)
30006ac8:	00e787b3          	add	a5,a5,a4
30006acc:	0007dc03          	lhu	s8,0(a5)
30006ad0:	fbe45783          	lhu	a5,-66(s0)
30006ad4:	02b78793          	addi	a5,a5,43
30006ad8:	00179713          	slli	a4,a5,0x1
30006adc:	fac42783          	lw	a5,-84(s0)
30006ae0:	00e787b3          	add	a5,a5,a4
30006ae4:	0007db83          	lhu	s7,0(a5)
30006ae8:	fbe45783          	lhu	a5,-66(s0)
30006aec:	02c78793          	addi	a5,a5,44
30006af0:	00179713          	slli	a4,a5,0x1
30006af4:	fac42783          	lw	a5,-84(s0)
30006af8:	00e787b3          	add	a5,a5,a4
30006afc:	0007db03          	lhu	s6,0(a5)
30006b00:	fbe45783          	lhu	a5,-66(s0)
30006b04:	02d78793          	addi	a5,a5,45
30006b08:	00179713          	slli	a4,a5,0x1
30006b0c:	fac42783          	lw	a5,-84(s0)
30006b10:	00e787b3          	add	a5,a5,a4
30006b14:	0007da83          	lhu	s5,0(a5)
30006b18:	fbe45783          	lhu	a5,-66(s0)
30006b1c:	02e78793          	addi	a5,a5,46
30006b20:	00179713          	slli	a4,a5,0x1
30006b24:	fac42783          	lw	a5,-84(s0)
30006b28:	00e787b3          	add	a5,a5,a4
30006b2c:	0007da03          	lhu	s4,0(a5)
30006b30:	fbe45783          	lhu	a5,-66(s0)
30006b34:	02f78793          	addi	a5,a5,47
30006b38:	00179713          	slli	a4,a5,0x1
30006b3c:	fac42783          	lw	a5,-84(s0)
30006b40:	00e787b3          	add	a5,a5,a4
30006b44:	0007d983          	lhu	s3,0(a5)
30006b48:	fbe45783          	lhu	a5,-66(s0)
30006b4c:	03078793          	addi	a5,a5,48
30006b50:	00179713          	slli	a4,a5,0x1
30006b54:	fac42783          	lw	a5,-84(s0)
30006b58:	00e787b3          	add	a5,a5,a4
30006b5c:	0007d903          	lhu	s2,0(a5)
30006b60:	fbe45783          	lhu	a5,-66(s0)
30006b64:	03178793          	addi	a5,a5,49
30006b68:	00179713          	slli	a4,a5,0x1
30006b6c:	fac42783          	lw	a5,-84(s0)
30006b70:	00e787b3          	add	a5,a5,a4
30006b74:	0007d483          	lhu	s1,0(a5)
30006b78:	fbe45783          	lhu	a5,-66(s0)
30006b7c:	03278793          	addi	a5,a5,50
30006b80:	00179713          	slli	a4,a5,0x1
30006b84:	fac42783          	lw	a5,-84(s0)
30006b88:	00e787b3          	add	a5,a5,a4
30006b8c:	0007d383          	lhu	t2,0(a5)
30006b90:	fbe45783          	lhu	a5,-66(s0)
30006b94:	03378793          	addi	a5,a5,51
30006b98:	00179713          	slli	a4,a5,0x1
30006b9c:	fac42783          	lw	a5,-84(s0)
30006ba0:	00e787b3          	add	a5,a5,a4
30006ba4:	0007d283          	lhu	t0,0(a5)
30006ba8:	fbe45783          	lhu	a5,-66(s0)
30006bac:	03478793          	addi	a5,a5,52
30006bb0:	00179713          	slli	a4,a5,0x1
30006bb4:	fac42783          	lw	a5,-84(s0)
30006bb8:	00e787b3          	add	a5,a5,a4
30006bbc:	0007df83          	lhu	t6,0(a5)
30006bc0:	fbe45783          	lhu	a5,-66(s0)
30006bc4:	03578793          	addi	a5,a5,53
30006bc8:	00179713          	slli	a4,a5,0x1
30006bcc:	fac42783          	lw	a5,-84(s0)
30006bd0:	00e787b3          	add	a5,a5,a4
30006bd4:	0007df03          	lhu	t5,0(a5)
30006bd8:	fbe45783          	lhu	a5,-66(s0)
30006bdc:	03678793          	addi	a5,a5,54
30006be0:	00179713          	slli	a4,a5,0x1
30006be4:	fac42783          	lw	a5,-84(s0)
30006be8:	00e787b3          	add	a5,a5,a4
30006bec:	0007de83          	lhu	t4,0(a5)
30006bf0:	fbe45783          	lhu	a5,-66(s0)
30006bf4:	03778793          	addi	a5,a5,55
30006bf8:	00179713          	slli	a4,a5,0x1
30006bfc:	fac42783          	lw	a5,-84(s0)
30006c00:	00e787b3          	add	a5,a5,a4
30006c04:	0007de03          	lhu	t3,0(a5)
30006c08:	fbe45783          	lhu	a5,-66(s0)
30006c0c:	03878793          	addi	a5,a5,56
30006c10:	00179713          	slli	a4,a5,0x1
30006c14:	fac42783          	lw	a5,-84(s0)
30006c18:	00e787b3          	add	a5,a5,a4
30006c1c:	0007d303          	lhu	t1,0(a5)
30006c20:	fbe45783          	lhu	a5,-66(s0)
30006c24:	03978793          	addi	a5,a5,57
30006c28:	00179713          	slli	a4,a5,0x1
30006c2c:	fac42783          	lw	a5,-84(s0)
30006c30:	00e787b3          	add	a5,a5,a4
30006c34:	0007d883          	lhu	a7,0(a5)
30006c38:	fbe45783          	lhu	a5,-66(s0)
30006c3c:	03a78793          	addi	a5,a5,58
30006c40:	00179713          	slli	a4,a5,0x1
30006c44:	fac42783          	lw	a5,-84(s0)
30006c48:	00e787b3          	add	a5,a5,a4
30006c4c:	0007d803          	lhu	a6,0(a5)
30006c50:	fbe45783          	lhu	a5,-66(s0)
30006c54:	03b78793          	addi	a5,a5,59
30006c58:	00179713          	slli	a4,a5,0x1
30006c5c:	fac42783          	lw	a5,-84(s0)
30006c60:	00e787b3          	add	a5,a5,a4
30006c64:	0007d503          	lhu	a0,0(a5)
30006c68:	fbe45783          	lhu	a5,-66(s0)
30006c6c:	03c78793          	addi	a5,a5,60
30006c70:	00179713          	slli	a4,a5,0x1
30006c74:	fac42783          	lw	a5,-84(s0)
30006c78:	00e787b3          	add	a5,a5,a4
30006c7c:	0007d583          	lhu	a1,0(a5)
30006c80:	fbe45783          	lhu	a5,-66(s0)
30006c84:	03d78793          	addi	a5,a5,61
30006c88:	00179713          	slli	a4,a5,0x1
30006c8c:	fac42783          	lw	a5,-84(s0)
30006c90:	00e787b3          	add	a5,a5,a4
30006c94:	0007d603          	lhu	a2,0(a5)
30006c98:	fbe45783          	lhu	a5,-66(s0)
30006c9c:	03e78793          	addi	a5,a5,62
30006ca0:	00179713          	slli	a4,a5,0x1
30006ca4:	fac42783          	lw	a5,-84(s0)
30006ca8:	00e787b3          	add	a5,a5,a4
30006cac:	0007d683          	lhu	a3,0(a5)
30006cb0:	fbe45783          	lhu	a5,-66(s0)
30006cb4:	03f78793          	addi	a5,a5,63
30006cb8:	00179713          	slli	a4,a5,0x1
30006cbc:	fac42783          	lw	a5,-84(s0)
30006cc0:	00e787b3          	add	a5,a5,a4
30006cc4:	0007d783          	lhu	a5,0(a5)
30006cc8:	0cf12e23          	sw	a5,220(sp)
30006ccc:	0cd12c23          	sw	a3,216(sp)
30006cd0:	0cc12a23          	sw	a2,212(sp)
30006cd4:	0cb12823          	sw	a1,208(sp)
30006cd8:	0ca12623          	sw	a0,204(sp)
30006cdc:	0d012423          	sw	a6,200(sp)
30006ce0:	0d112223          	sw	a7,196(sp)
30006ce4:	0c612023          	sw	t1,192(sp)
30006ce8:	0bc12e23          	sw	t3,188(sp)
30006cec:	0bd12c23          	sw	t4,184(sp)
30006cf0:	0be12a23          	sw	t5,180(sp)
30006cf4:	0bf12823          	sw	t6,176(sp)
30006cf8:	0a512623          	sw	t0,172(sp)
30006cfc:	0a712423          	sw	t2,168(sp)
30006d00:	0a912223          	sw	s1,164(sp)
30006d04:	0b212023          	sw	s2,160(sp)
30006d08:	09312e23          	sw	s3,156(sp)
30006d0c:	09412c23          	sw	s4,152(sp)
30006d10:	09512a23          	sw	s5,148(sp)
30006d14:	09612823          	sw	s6,144(sp)
30006d18:	09712623          	sw	s7,140(sp)
30006d1c:	09812423          	sw	s8,136(sp)
30006d20:	09912223          	sw	s9,132(sp)
30006d24:	09a12023          	sw	s10,128(sp)
30006d28:	07b12e23          	sw	s11,124(sp)
30006d2c:	f0842483          	lw	s1,-248(s0)
30006d30:	06912c23          	sw	s1,120(sp)
30006d34:	f0c42383          	lw	t2,-244(s0)
30006d38:	06712a23          	sw	t2,116(sp)
30006d3c:	f1042283          	lw	t0,-240(s0)
30006d40:	06512823          	sw	t0,112(sp)
30006d44:	f1442f83          	lw	t6,-236(s0)
30006d48:	07f12623          	sw	t6,108(sp)
30006d4c:	f1842f03          	lw	t5,-232(s0)
30006d50:	07e12423          	sw	t5,104(sp)
30006d54:	f1c42883          	lw	a7,-228(s0)
30006d58:	07112223          	sw	a7,100(sp)
30006d5c:	f2042803          	lw	a6,-224(s0)
30006d60:	07012023          	sw	a6,96(sp)
30006d64:	f2442683          	lw	a3,-220(s0)
30006d68:	04d12e23          	sw	a3,92(sp)
30006d6c:	f2842703          	lw	a4,-216(s0)
30006d70:	04e12c23          	sw	a4,88(sp)
30006d74:	f2c42783          	lw	a5,-212(s0)
30006d78:	04f12a23          	sw	a5,84(sp)
30006d7c:	f3042e83          	lw	t4,-208(s0)
30006d80:	05d12823          	sw	t4,80(sp)
30006d84:	f3442e03          	lw	t3,-204(s0)
30006d88:	05c12623          	sw	t3,76(sp)
30006d8c:	f3842303          	lw	t1,-200(s0)
30006d90:	04612423          	sw	t1,72(sp)
30006d94:	f3c42503          	lw	a0,-196(s0)
30006d98:	04a12223          	sw	a0,68(sp)
30006d9c:	f4042583          	lw	a1,-192(s0)
30006da0:	04b12023          	sw	a1,64(sp)
30006da4:	f4442603          	lw	a2,-188(s0)
30006da8:	02c12e23          	sw	a2,60(sp)
30006dac:	f4842d83          	lw	s11,-184(s0)
30006db0:	03b12c23          	sw	s11,56(sp)
30006db4:	f4c42d03          	lw	s10,-180(s0)
30006db8:	03a12a23          	sw	s10,52(sp)
30006dbc:	f5042c83          	lw	s9,-176(s0)
30006dc0:	03912823          	sw	s9,48(sp)
30006dc4:	f5442c03          	lw	s8,-172(s0)
30006dc8:	03812623          	sw	s8,44(sp)
30006dcc:	f5842b83          	lw	s7,-168(s0)
30006dd0:	03712423          	sw	s7,40(sp)
30006dd4:	f5c42b03          	lw	s6,-164(s0)
30006dd8:	03612223          	sw	s6,36(sp)
30006ddc:	f6042a83          	lw	s5,-160(s0)
30006de0:	03512023          	sw	s5,32(sp)
30006de4:	f6442a03          	lw	s4,-156(s0)
30006de8:	01412e23          	sw	s4,28(sp)
30006dec:	f6842983          	lw	s3,-152(s0)
30006df0:	01312c23          	sw	s3,24(sp)
30006df4:	f6c42903          	lw	s2,-148(s0)
30006df8:	01212a23          	sw	s2,20(sp)
30006dfc:	f7042483          	lw	s1,-144(s0)
30006e00:	00912823          	sw	s1,16(sp)
30006e04:	f7442383          	lw	t2,-140(s0)
30006e08:	00712623          	sw	t2,12(sp)
30006e0c:	f7842283          	lw	t0,-136(s0)
30006e10:	00512423          	sw	t0,8(sp)
30006e14:	f7c42f83          	lw	t6,-132(s0)
30006e18:	01f12223          	sw	t6,4(sp)
30006e1c:	f8042f03          	lw	t5,-128(s0)
30006e20:	01e12023          	sw	t5,0(sp)
30006e24:	f8442883          	lw	a7,-124(s0)
30006e28:	f8842803          	lw	a6,-120(s0)
30006e2c:	f8c42783          	lw	a5,-116(s0)
30006e30:	f9042703          	lw	a4,-112(s0)
30006e34:	f9442683          	lw	a3,-108(s0)
30006e38:	f9842603          	lw	a2,-104(s0)
30006e3c:	f9c42583          	lw	a1,-100(s0)
30006e40:	fa042503          	lw	a0,-96(s0)
30006e44:	f21fd0ef          	jal	30004d64 <myspi_wr_dat16>
30006e48:	fbe45783          	lhu	a5,-66(s0)
30006e4c:	04078793          	addi	a5,a5,64
30006e50:	faf41f23          	sh	a5,-66(s0)
30006e54:	fbe45703          	lhu	a4,-66(s0)
30006e58:	fa445683          	lhu	a3,-92(s0)
30006e5c:	fa645783          	lhu	a5,-90(s0)
30006e60:	02f687b3          	mul	a5,a3,a5
30006e64:	00179793          	slli	a5,a5,0x1
30006e68:	fcf74463          	blt	a4,a5,30006630 <lcd_fill_bmp_16+0xc4>
30006e6c:	00000013          	nop
30006e70:	00000013          	nop
30006e74:	1dc12083          	lw	ra,476(sp)
30006e78:	1d812403          	lw	s0,472(sp)
30006e7c:	1d412483          	lw	s1,468(sp)
30006e80:	1d012903          	lw	s2,464(sp)
30006e84:	1cc12983          	lw	s3,460(sp)
30006e88:	1c812a03          	lw	s4,456(sp)
30006e8c:	1c412a83          	lw	s5,452(sp)
30006e90:	1c012b03          	lw	s6,448(sp)
30006e94:	1bc12b83          	lw	s7,444(sp)
30006e98:	1b812c03          	lw	s8,440(sp)
30006e9c:	1b412c83          	lw	s9,436(sp)
30006ea0:	1b012d03          	lw	s10,432(sp)
30006ea4:	1ac12d83          	lw	s11,428(sp)
30006ea8:	1e010113          	addi	sp,sp,480
30006eac:	00008067          	ret

30006eb0 <lcd_fill_bmp_32>:
30006eb0:	f2010113          	addi	sp,sp,-224
30006eb4:	0c112e23          	sw	ra,220(sp)
30006eb8:	0c812c23          	sw	s0,216(sp)
30006ebc:	0c912a23          	sw	s1,212(sp)
30006ec0:	0d212823          	sw	s2,208(sp)
30006ec4:	0d312623          	sw	s3,204(sp)
30006ec8:	0d412423          	sw	s4,200(sp)
30006ecc:	0d512223          	sw	s5,196(sp)
30006ed0:	0d612023          	sw	s6,192(sp)
30006ed4:	0b712e23          	sw	s7,188(sp)
30006ed8:	0b812c23          	sw	s8,184(sp)
30006edc:	0b912a23          	sw	s9,180(sp)
30006ee0:	0ba12823          	sw	s10,176(sp)
30006ee4:	0bb12623          	sw	s11,172(sp)
30006ee8:	0e010413          	addi	s0,sp,224
30006eec:	faa42623          	sw	a0,-84(s0)
30006ef0:	00058793          	mv	a5,a1
30006ef4:	faf41523          	sh	a5,-86(s0)
30006ef8:	00060793          	mv	a5,a2
30006efc:	faf41423          	sh	a5,-88(s0)
30006f00:	00068793          	mv	a5,a3
30006f04:	faf41323          	sh	a5,-90(s0)
30006f08:	00070793          	mv	a5,a4
30006f0c:	faf41223          	sh	a5,-92(s0)
30006f10:	faa45783          	lhu	a5,-86(s0)
30006f14:	00078713          	mv	a4,a5
30006f18:	fa645783          	lhu	a5,-90(s0)
30006f1c:	00f707b3          	add	a5,a4,a5
30006f20:	01079793          	slli	a5,a5,0x10
30006f24:	0107d793          	srli	a5,a5,0x10
30006f28:	fff78793          	addi	a5,a5,-1
30006f2c:	01079613          	slli	a2,a5,0x10
30006f30:	01065613          	srli	a2,a2,0x10
30006f34:	fa845783          	lhu	a5,-88(s0)
30006f38:	00078713          	mv	a4,a5
30006f3c:	fa445783          	lhu	a5,-92(s0)
30006f40:	00f707b3          	add	a5,a4,a5
30006f44:	01079793          	slli	a5,a5,0x10
30006f48:	0107d793          	srli	a5,a5,0x10
30006f4c:	fff78793          	addi	a5,a5,-1
30006f50:	01079693          	slli	a3,a5,0x10
30006f54:	0106d693          	srli	a3,a3,0x10
30006f58:	fa845703          	lhu	a4,-88(s0)
30006f5c:	faa45783          	lhu	a5,-86(s0)
30006f60:	00070593          	mv	a1,a4
30006f64:	00078513          	mv	a0,a5
30006f68:	f4dfc0ef          	jal	30003eb4 <lcd_addr_set>
30006f6c:	fa041f23          	sh	zero,-66(s0)
30006f70:	3ac0006f          	j	3000731c <lcd_fill_bmp_32+0x46c>
30006f74:	fbe45783          	lhu	a5,-66(s0)
30006f78:	00279793          	slli	a5,a5,0x2
30006f7c:	fac42703          	lw	a4,-84(s0)
30006f80:	00f707b3          	add	a5,a4,a5
30006f84:	0007ad83          	lw	s11,0(a5)
30006f88:	fbe45783          	lhu	a5,-66(s0)
30006f8c:	00178793          	addi	a5,a5,1
30006f90:	00279793          	slli	a5,a5,0x2
30006f94:	fac42703          	lw	a4,-84(s0)
30006f98:	00f707b3          	add	a5,a4,a5
30006f9c:	0007a783          	lw	a5,0(a5)
30006fa0:	faf42023          	sw	a5,-96(s0)
30006fa4:	fbe45783          	lhu	a5,-66(s0)
30006fa8:	00278793          	addi	a5,a5,2
30006fac:	00279793          	slli	a5,a5,0x2
30006fb0:	fac42703          	lw	a4,-84(s0)
30006fb4:	00f707b3          	add	a5,a4,a5
30006fb8:	0007a703          	lw	a4,0(a5)
30006fbc:	f8e42e23          	sw	a4,-100(s0)
30006fc0:	fbe45783          	lhu	a5,-66(s0)
30006fc4:	00378793          	addi	a5,a5,3
30006fc8:	00279793          	slli	a5,a5,0x2
30006fcc:	fac42703          	lw	a4,-84(s0)
30006fd0:	00f707b3          	add	a5,a4,a5
30006fd4:	0007a683          	lw	a3,0(a5)
30006fd8:	f8d42c23          	sw	a3,-104(s0)
30006fdc:	fbe45783          	lhu	a5,-66(s0)
30006fe0:	00478793          	addi	a5,a5,4
30006fe4:	00279793          	slli	a5,a5,0x2
30006fe8:	fac42703          	lw	a4,-84(s0)
30006fec:	00f707b3          	add	a5,a4,a5
30006ff0:	0007a503          	lw	a0,0(a5)
30006ff4:	f8a42a23          	sw	a0,-108(s0)
30006ff8:	fbe45783          	lhu	a5,-66(s0)
30006ffc:	00578793          	addi	a5,a5,5
30007000:	00279793          	slli	a5,a5,0x2
30007004:	fac42703          	lw	a4,-84(s0)
30007008:	00f707b3          	add	a5,a4,a5
3000700c:	0007a803          	lw	a6,0(a5)
30007010:	f9042823          	sw	a6,-112(s0)
30007014:	fbe45783          	lhu	a5,-66(s0)
30007018:	00678793          	addi	a5,a5,6
3000701c:	00279793          	slli	a5,a5,0x2
30007020:	fac42703          	lw	a4,-84(s0)
30007024:	00f707b3          	add	a5,a4,a5
30007028:	0007a883          	lw	a7,0(a5)
3000702c:	f9142623          	sw	a7,-116(s0)
30007030:	fbe45783          	lhu	a5,-66(s0)
30007034:	00778793          	addi	a5,a5,7
30007038:	00279793          	slli	a5,a5,0x2
3000703c:	fac42703          	lw	a4,-84(s0)
30007040:	00f707b3          	add	a5,a4,a5
30007044:	0007a303          	lw	t1,0(a5)
30007048:	f8642423          	sw	t1,-120(s0)
3000704c:	fbe45783          	lhu	a5,-66(s0)
30007050:	00878793          	addi	a5,a5,8
30007054:	00279793          	slli	a5,a5,0x2
30007058:	fac42703          	lw	a4,-84(s0)
3000705c:	00f707b3          	add	a5,a4,a5
30007060:	0007a303          	lw	t1,0(a5)
30007064:	fbe45783          	lhu	a5,-66(s0)
30007068:	00978793          	addi	a5,a5,9
3000706c:	00279793          	slli	a5,a5,0x2
30007070:	fac42703          	lw	a4,-84(s0)
30007074:	00f707b3          	add	a5,a4,a5
30007078:	0007ae03          	lw	t3,0(a5)
3000707c:	fbe45783          	lhu	a5,-66(s0)
30007080:	00a78793          	addi	a5,a5,10
30007084:	00279793          	slli	a5,a5,0x2
30007088:	fac42703          	lw	a4,-84(s0)
3000708c:	00f707b3          	add	a5,a4,a5
30007090:	0007ae83          	lw	t4,0(a5)
30007094:	fbe45783          	lhu	a5,-66(s0)
30007098:	00b78793          	addi	a5,a5,11
3000709c:	00279793          	slli	a5,a5,0x2
300070a0:	fac42703          	lw	a4,-84(s0)
300070a4:	00f707b3          	add	a5,a4,a5
300070a8:	0007af03          	lw	t5,0(a5)
300070ac:	fbe45783          	lhu	a5,-66(s0)
300070b0:	00c78793          	addi	a5,a5,12
300070b4:	00279793          	slli	a5,a5,0x2
300070b8:	fac42703          	lw	a4,-84(s0)
300070bc:	00f707b3          	add	a5,a4,a5
300070c0:	0007af83          	lw	t6,0(a5)
300070c4:	fbe45783          	lhu	a5,-66(s0)
300070c8:	00d78793          	addi	a5,a5,13
300070cc:	00279793          	slli	a5,a5,0x2
300070d0:	fac42703          	lw	a4,-84(s0)
300070d4:	00f707b3          	add	a5,a4,a5
300070d8:	0007a283          	lw	t0,0(a5)
300070dc:	fbe45783          	lhu	a5,-66(s0)
300070e0:	00e78793          	addi	a5,a5,14
300070e4:	00279793          	slli	a5,a5,0x2
300070e8:	fac42703          	lw	a4,-84(s0)
300070ec:	00f707b3          	add	a5,a4,a5
300070f0:	0007a383          	lw	t2,0(a5)
300070f4:	fbe45783          	lhu	a5,-66(s0)
300070f8:	00f78793          	addi	a5,a5,15
300070fc:	00279793          	slli	a5,a5,0x2
30007100:	fac42703          	lw	a4,-84(s0)
30007104:	00f707b3          	add	a5,a4,a5
30007108:	0007a483          	lw	s1,0(a5)
3000710c:	fbe45783          	lhu	a5,-66(s0)
30007110:	01078793          	addi	a5,a5,16
30007114:	00279793          	slli	a5,a5,0x2
30007118:	fac42703          	lw	a4,-84(s0)
3000711c:	00f707b3          	add	a5,a4,a5
30007120:	0007a903          	lw	s2,0(a5)
30007124:	fbe45783          	lhu	a5,-66(s0)
30007128:	01178793          	addi	a5,a5,17
3000712c:	00279793          	slli	a5,a5,0x2
30007130:	fac42703          	lw	a4,-84(s0)
30007134:	00f707b3          	add	a5,a4,a5
30007138:	0007a983          	lw	s3,0(a5)
3000713c:	fbe45783          	lhu	a5,-66(s0)
30007140:	01278793          	addi	a5,a5,18
30007144:	00279793          	slli	a5,a5,0x2
30007148:	fac42703          	lw	a4,-84(s0)
3000714c:	00f707b3          	add	a5,a4,a5
30007150:	0007aa03          	lw	s4,0(a5)
30007154:	fbe45783          	lhu	a5,-66(s0)
30007158:	01378793          	addi	a5,a5,19
3000715c:	00279793          	slli	a5,a5,0x2
30007160:	fac42703          	lw	a4,-84(s0)
30007164:	00f707b3          	add	a5,a4,a5
30007168:	0007aa83          	lw	s5,0(a5)
3000716c:	fbe45783          	lhu	a5,-66(s0)
30007170:	01478793          	addi	a5,a5,20
30007174:	00279793          	slli	a5,a5,0x2
30007178:	fac42703          	lw	a4,-84(s0)
3000717c:	00f707b3          	add	a5,a4,a5
30007180:	0007ab03          	lw	s6,0(a5)
30007184:	fbe45783          	lhu	a5,-66(s0)
30007188:	01578793          	addi	a5,a5,21
3000718c:	00279793          	slli	a5,a5,0x2
30007190:	fac42703          	lw	a4,-84(s0)
30007194:	00f707b3          	add	a5,a4,a5
30007198:	0007ab83          	lw	s7,0(a5)
3000719c:	fbe45783          	lhu	a5,-66(s0)
300071a0:	01678793          	addi	a5,a5,22
300071a4:	00279793          	slli	a5,a5,0x2
300071a8:	fac42703          	lw	a4,-84(s0)
300071ac:	00f707b3          	add	a5,a4,a5
300071b0:	0007ac03          	lw	s8,0(a5)
300071b4:	fbe45783          	lhu	a5,-66(s0)
300071b8:	01778793          	addi	a5,a5,23
300071bc:	00279793          	slli	a5,a5,0x2
300071c0:	fac42703          	lw	a4,-84(s0)
300071c4:	00f707b3          	add	a5,a4,a5
300071c8:	0007ac83          	lw	s9,0(a5)
300071cc:	fbe45783          	lhu	a5,-66(s0)
300071d0:	01878793          	addi	a5,a5,24
300071d4:	00279793          	slli	a5,a5,0x2
300071d8:	fac42703          	lw	a4,-84(s0)
300071dc:	00f707b3          	add	a5,a4,a5
300071e0:	0007ad03          	lw	s10,0(a5)
300071e4:	fbe45783          	lhu	a5,-66(s0)
300071e8:	01978793          	addi	a5,a5,25
300071ec:	00279793          	slli	a5,a5,0x2
300071f0:	fac42703          	lw	a4,-84(s0)
300071f4:	00f707b3          	add	a5,a4,a5
300071f8:	0007a883          	lw	a7,0(a5)
300071fc:	fbe45783          	lhu	a5,-66(s0)
30007200:	01a78793          	addi	a5,a5,26
30007204:	00279713          	slli	a4,a5,0x2
30007208:	fac42783          	lw	a5,-84(s0)
3000720c:	00e787b3          	add	a5,a5,a4
30007210:	0007a803          	lw	a6,0(a5)
30007214:	fbe45783          	lhu	a5,-66(s0)
30007218:	01b78793          	addi	a5,a5,27
3000721c:	00279713          	slli	a4,a5,0x2
30007220:	fac42783          	lw	a5,-84(s0)
30007224:	00e787b3          	add	a5,a5,a4
30007228:	0007a503          	lw	a0,0(a5)
3000722c:	fbe45783          	lhu	a5,-66(s0)
30007230:	01c78793          	addi	a5,a5,28
30007234:	00279713          	slli	a4,a5,0x2
30007238:	fac42783          	lw	a5,-84(s0)
3000723c:	00e787b3          	add	a5,a5,a4
30007240:	0007a583          	lw	a1,0(a5)
30007244:	fbe45783          	lhu	a5,-66(s0)
30007248:	01d78793          	addi	a5,a5,29
3000724c:	00279713          	slli	a4,a5,0x2
30007250:	fac42783          	lw	a5,-84(s0)
30007254:	00e787b3          	add	a5,a5,a4
30007258:	0007a603          	lw	a2,0(a5)
3000725c:	fbe45783          	lhu	a5,-66(s0)
30007260:	01e78793          	addi	a5,a5,30
30007264:	00279713          	slli	a4,a5,0x2
30007268:	fac42783          	lw	a5,-84(s0)
3000726c:	00e787b3          	add	a5,a5,a4
30007270:	0007a683          	lw	a3,0(a5)
30007274:	fbe45783          	lhu	a5,-66(s0)
30007278:	01f78793          	addi	a5,a5,31
3000727c:	00279713          	slli	a4,a5,0x2
30007280:	fac42783          	lw	a5,-84(s0)
30007284:	00e787b3          	add	a5,a5,a4
30007288:	0007a783          	lw	a5,0(a5)
3000728c:	04f12e23          	sw	a5,92(sp)
30007290:	04d12c23          	sw	a3,88(sp)
30007294:	04c12a23          	sw	a2,84(sp)
30007298:	04b12823          	sw	a1,80(sp)
3000729c:	04a12623          	sw	a0,76(sp)
300072a0:	05012423          	sw	a6,72(sp)
300072a4:	05112223          	sw	a7,68(sp)
300072a8:	05a12023          	sw	s10,64(sp)
300072ac:	03912e23          	sw	s9,60(sp)
300072b0:	03812c23          	sw	s8,56(sp)
300072b4:	03712a23          	sw	s7,52(sp)
300072b8:	03612823          	sw	s6,48(sp)
300072bc:	03512623          	sw	s5,44(sp)
300072c0:	03412423          	sw	s4,40(sp)
300072c4:	03312223          	sw	s3,36(sp)
300072c8:	03212023          	sw	s2,32(sp)
300072cc:	00912e23          	sw	s1,28(sp)
300072d0:	00712c23          	sw	t2,24(sp)
300072d4:	00512a23          	sw	t0,20(sp)
300072d8:	01f12823          	sw	t6,16(sp)
300072dc:	01e12623          	sw	t5,12(sp)
300072e0:	01d12423          	sw	t4,8(sp)
300072e4:	01c12223          	sw	t3,4(sp)
300072e8:	00612023          	sw	t1,0(sp)
300072ec:	f8842883          	lw	a7,-120(s0)
300072f0:	f8c42803          	lw	a6,-116(s0)
300072f4:	f9042783          	lw	a5,-112(s0)
300072f8:	f9442703          	lw	a4,-108(s0)
300072fc:	f9842683          	lw	a3,-104(s0)
30007300:	f9c42603          	lw	a2,-100(s0)
30007304:	fa042583          	lw	a1,-96(s0)
30007308:	000d8513          	mv	a0,s11
3000730c:	d8cfc0ef          	jal	30003898 <lcd_wr_data32x32>
30007310:	fbe45783          	lhu	a5,-66(s0)
30007314:	02078793          	addi	a5,a5,32
30007318:	faf41f23          	sh	a5,-66(s0)
3000731c:	fbe45703          	lhu	a4,-66(s0)
30007320:	000027b7          	lui	a5,0x2
30007324:	c4f768e3          	bltu	a4,a5,30006f74 <lcd_fill_bmp_32+0xc4>
30007328:	00000013          	nop
3000732c:	00000013          	nop
30007330:	0dc12083          	lw	ra,220(sp)
30007334:	0d812403          	lw	s0,216(sp)
30007338:	0d412483          	lw	s1,212(sp)
3000733c:	0d012903          	lw	s2,208(sp)
30007340:	0cc12983          	lw	s3,204(sp)
30007344:	0c812a03          	lw	s4,200(sp)
30007348:	0c412a83          	lw	s5,196(sp)
3000734c:	0c012b03          	lw	s6,192(sp)
30007350:	0bc12b83          	lw	s7,188(sp)
30007354:	0b812c03          	lw	s8,184(sp)
30007358:	0b412c83          	lw	s9,180(sp)
3000735c:	0b012d03          	lw	s10,176(sp)
30007360:	0ac12d83          	lw	s11,172(sp)
30007364:	0e010113          	addi	sp,sp,224
30007368:	00008067          	ret

3000736c <ip_lcd_test>:
3000736c:	ff010113          	addi	sp,sp,-16
30007370:	00112623          	sw	ra,12(sp)
30007374:	00812423          	sw	s0,8(sp)
30007378:	01010413          	addi	s0,sp,16
3000737c:	300197b7          	lui	a5,0x30019
30007380:	f0c78513          	addi	a0,a5,-244 # 30018f0c <img+0x10000>
30007384:	fcdf90ef          	jal	30001350 <printf>
30007388:	ed5fb0ef          	jal	3000325c <spi_init>
3000738c:	83dfc0ef          	jal	30003bc8 <lcd_init>
30007390:	300197b7          	lui	a5,0x30019
30007394:	f1878513          	addi	a0,a5,-232 # 30018f18 <img+0x1000c>
30007398:	fb9f90ef          	jal	30001350 <printf>
3000739c:	08000713          	li	a4,128
300073a0:	08000693          	li	a3,128
300073a4:	00000613          	li	a2,0
300073a8:	00000593          	li	a1,0
300073ac:	300097b7          	lui	a5,0x30009
300073b0:	f0c78513          	addi	a0,a5,-244 # 30008f0c <img>
300073b4:	afdff0ef          	jal	30006eb0 <lcd_fill_bmp_32>
300073b8:	7d000513          	li	a0,2000
300073bc:	c4dfa0ef          	jal	30002008 <delay_ms>
300073c0:	08000713          	li	a4,128
300073c4:	08000693          	li	a3,128
300073c8:	00000613          	li	a2,0
300073cc:	00000593          	li	a1,0
300073d0:	300117b7          	lui	a5,0x30011
300073d4:	f0c78513          	addi	a0,a5,-244 # 30010f0c <img+0x8000>
300073d8:	ad9ff0ef          	jal	30006eb0 <lcd_fill_bmp_32>
300073dc:	00000013          	nop
300073e0:	00c12083          	lw	ra,12(sp)
300073e4:	00812403          	lw	s0,8(sp)
300073e8:	01010113          	addi	sp,sp,16
300073ec:	00008067          	ret

300073f0 <xorshift32>:
300073f0:	fd010113          	addi	sp,sp,-48
300073f4:	02112623          	sw	ra,44(sp)
300073f8:	02812423          	sw	s0,40(sp)
300073fc:	03010413          	addi	s0,sp,48
30007400:	fca42e23          	sw	a0,-36(s0)
30007404:	fdc42783          	lw	a5,-36(s0)
30007408:	0007a783          	lw	a5,0(a5)
3000740c:	fef42623          	sw	a5,-20(s0)
30007410:	fec42783          	lw	a5,-20(s0)
30007414:	00d79793          	slli	a5,a5,0xd
30007418:	fec42703          	lw	a4,-20(s0)
3000741c:	00f747b3          	xor	a5,a4,a5
30007420:	fef42623          	sw	a5,-20(s0)
30007424:	fec42783          	lw	a5,-20(s0)
30007428:	0117d793          	srli	a5,a5,0x11
3000742c:	fec42703          	lw	a4,-20(s0)
30007430:	00f747b3          	xor	a5,a4,a5
30007434:	fef42623          	sw	a5,-20(s0)
30007438:	fec42783          	lw	a5,-20(s0)
3000743c:	00579793          	slli	a5,a5,0x5
30007440:	fec42703          	lw	a4,-20(s0)
30007444:	00f747b3          	xor	a5,a4,a5
30007448:	fef42623          	sw	a5,-20(s0)
3000744c:	fdc42783          	lw	a5,-36(s0)
30007450:	fec42703          	lw	a4,-20(s0)
30007454:	00e7a023          	sw	a4,0(a5)
30007458:	fec42783          	lw	a5,-20(s0)
3000745c:	00078513          	mv	a0,a5
30007460:	02c12083          	lw	ra,44(sp)
30007464:	02812403          	lw	s0,40(sp)
30007468:	03010113          	addi	sp,sp,48
3000746c:	00008067          	ret

30007470 <ip_psram_selftest>:
30007470:	fa010113          	addi	sp,sp,-96
30007474:	04112e23          	sw	ra,92(sp)
30007478:	04812c23          	sw	s0,88(sp)
3000747c:	04912a23          	sw	s1,84(sp)
30007480:	06010413          	addi	s0,sp,96
30007484:	faa42623          	sw	a0,-84(s0)
30007488:	fab42423          	sw	a1,-88(s0)
3000748c:	fac42783          	lw	a5,-84(s0)
30007490:	fcf42423          	sw	a5,-56(s0)
30007494:	fac42783          	lw	a5,-84(s0)
30007498:	fcf42223          	sw	a5,-60(s0)
3000749c:	fac42783          	lw	a5,-84(s0)
300074a0:	fcf42023          	sw	a5,-64(s0)
300074a4:	000027b7          	lui	a5,0x2
300074a8:	faf42e23          	sw	a5,-68(s0)
300074ac:	fbc42783          	lw	a5,-68(s0)
300074b0:	00279793          	slli	a5,a5,0x2
300074b4:	00078593          	mv	a1,a5
300074b8:	300197b7          	lui	a5,0x30019
300074bc:	f2878513          	addi	a0,a5,-216 # 30018f28 <img+0x1001c>
300074c0:	e91f90ef          	jal	30001350 <printf>
300074c4:	fe042623          	sw	zero,-20(s0)
300074c8:	0380006f          	j	30007500 <ip_psram_selftest+0x90>
300074cc:	fec42703          	lw	a4,-20(s0)
300074d0:	123457b7          	lui	a5,0x12345
300074d4:	67878793          	addi	a5,a5,1656 # 12345678 <_ebss+0xe345678>
300074d8:	00f706b3          	add	a3,a4,a5
300074dc:	fec42783          	lw	a5,-20(s0)
300074e0:	00279793          	slli	a5,a5,0x2
300074e4:	fc842703          	lw	a4,-56(s0)
300074e8:	00f707b3          	add	a5,a4,a5
300074ec:	00068713          	mv	a4,a3
300074f0:	00e7a023          	sw	a4,0(a5)
300074f4:	fec42783          	lw	a5,-20(s0)
300074f8:	00178793          	addi	a5,a5,1
300074fc:	fef42623          	sw	a5,-20(s0)
30007500:	fec42703          	lw	a4,-20(s0)
30007504:	fbc42783          	lw	a5,-68(s0)
30007508:	fcf742e3          	blt	a4,a5,300074cc <ip_psram_selftest+0x5c>
3000750c:	fe042423          	sw	zero,-24(s0)
30007510:	0700006f          	j	30007580 <ip_psram_selftest+0x110>
30007514:	fe842783          	lw	a5,-24(s0)
30007518:	00279793          	slli	a5,a5,0x2
3000751c:	fc842703          	lw	a4,-56(s0)
30007520:	00f707b3          	add	a5,a4,a5
30007524:	0007a783          	lw	a5,0(a5)
30007528:	fe842683          	lw	a3,-24(s0)
3000752c:	12345737          	lui	a4,0x12345
30007530:	67870713          	addi	a4,a4,1656 # 12345678 <_ebss+0xe345678>
30007534:	00e68733          	add	a4,a3,a4
30007538:	02e78e63          	beq	a5,a4,30007574 <ip_psram_selftest+0x104>
3000753c:	fe842783          	lw	a5,-24(s0)
30007540:	00279793          	slli	a5,a5,0x2
30007544:	fc842703          	lw	a4,-56(s0)
30007548:	00f707b3          	add	a5,a4,a5
3000754c:	0007a683          	lw	a3,0(a5)
30007550:	fe842703          	lw	a4,-24(s0)
30007554:	123457b7          	lui	a5,0x12345
30007558:	67878793          	addi	a5,a5,1656 # 12345678 <_ebss+0xe345678>
3000755c:	00f707b3          	add	a5,a4,a5
30007560:	00078613          	mv	a2,a5
30007564:	00068593          	mv	a1,a3
30007568:	300197b7          	lui	a5,0x30019
3000756c:	f4c78513          	addi	a0,a5,-180 # 30018f4c <img+0x10040>
30007570:	de1f90ef          	jal	30001350 <printf>
30007574:	fe842783          	lw	a5,-24(s0)
30007578:	00178793          	addi	a5,a5,1
3000757c:	fef42423          	sw	a5,-24(s0)
30007580:	fe842703          	lw	a4,-24(s0)
30007584:	fbc42783          	lw	a5,-68(s0)
30007588:	f8f746e3          	blt	a4,a5,30007514 <ip_psram_selftest+0xa4>
3000758c:	fbc42783          	lw	a5,-68(s0)
30007590:	00179793          	slli	a5,a5,0x1
30007594:	00078593          	mv	a1,a5
30007598:	300197b7          	lui	a5,0x30019
3000759c:	f6478513          	addi	a0,a5,-156 # 30018f64 <img+0x10058>
300075a0:	db1f90ef          	jal	30001350 <printf>
300075a4:	fe042223          	sw	zero,-28(s0)
300075a8:	0440006f          	j	300075ec <ip_psram_selftest+0x17c>
300075ac:	fe442783          	lw	a5,-28(s0)
300075b0:	01079693          	slli	a3,a5,0x10
300075b4:	0106d693          	srli	a3,a3,0x10
300075b8:	fe442783          	lw	a5,-28(s0)
300075bc:	00179793          	slli	a5,a5,0x1
300075c0:	fc442703          	lw	a4,-60(s0)
300075c4:	00f707b3          	add	a5,a4,a5
300075c8:	00005737          	lui	a4,0x5
300075cc:	67870713          	addi	a4,a4,1656 # 5678 <_ebss-0x3ffa988>
300075d0:	00e68733          	add	a4,a3,a4
300075d4:	01071713          	slli	a4,a4,0x10
300075d8:	01075713          	srli	a4,a4,0x10
300075dc:	00e79023          	sh	a4,0(a5)
300075e0:	fe442783          	lw	a5,-28(s0)
300075e4:	00178793          	addi	a5,a5,1
300075e8:	fef42223          	sw	a5,-28(s0)
300075ec:	fe442703          	lw	a4,-28(s0)
300075f0:	fbc42783          	lw	a5,-68(s0)
300075f4:	faf74ce3          	blt	a4,a5,300075ac <ip_psram_selftest+0x13c>
300075f8:	fe042023          	sw	zero,-32(s0)
300075fc:	0a40006f          	j	300076a0 <ip_psram_selftest+0x230>
30007600:	fe042783          	lw	a5,-32(s0)
30007604:	00179793          	slli	a5,a5,0x1
30007608:	fc442703          	lw	a4,-60(s0)
3000760c:	00f707b3          	add	a5,a4,a5
30007610:	0007d783          	lhu	a5,0(a5)
30007614:	01079713          	slli	a4,a5,0x10
30007618:	01075713          	srli	a4,a4,0x10
3000761c:	fe042783          	lw	a5,-32(s0)
30007620:	01079693          	slli	a3,a5,0x10
30007624:	0106d693          	srli	a3,a3,0x10
30007628:	000057b7          	lui	a5,0x5
3000762c:	67878793          	addi	a5,a5,1656 # 5678 <_ebss-0x3ffa988>
30007630:	00f687b3          	add	a5,a3,a5
30007634:	01079793          	slli	a5,a5,0x10
30007638:	0107d793          	srli	a5,a5,0x10
3000763c:	04f70c63          	beq	a4,a5,30007694 <ip_psram_selftest+0x224>
30007640:	fe042783          	lw	a5,-32(s0)
30007644:	00179793          	slli	a5,a5,0x1
30007648:	fc442703          	lw	a4,-60(s0)
3000764c:	00f707b3          	add	a5,a4,a5
30007650:	0007d783          	lhu	a5,0(a5)
30007654:	01079793          	slli	a5,a5,0x10
30007658:	0107d793          	srli	a5,a5,0x10
3000765c:	00078693          	mv	a3,a5
30007660:	fe042783          	lw	a5,-32(s0)
30007664:	01079713          	slli	a4,a5,0x10
30007668:	01075713          	srli	a4,a4,0x10
3000766c:	000057b7          	lui	a5,0x5
30007670:	67878793          	addi	a5,a5,1656 # 5678 <_ebss-0x3ffa988>
30007674:	00f707b3          	add	a5,a4,a5
30007678:	01079793          	slli	a5,a5,0x10
3000767c:	0107d793          	srli	a5,a5,0x10
30007680:	00078613          	mv	a2,a5
30007684:	00068593          	mv	a1,a3
30007688:	300197b7          	lui	a5,0x30019
3000768c:	f4c78513          	addi	a0,a5,-180 # 30018f4c <img+0x10040>
30007690:	cc1f90ef          	jal	30001350 <printf>
30007694:	fe042783          	lw	a5,-32(s0)
30007698:	00178793          	addi	a5,a5,1
3000769c:	fef42023          	sw	a5,-32(s0)
300076a0:	fe042703          	lw	a4,-32(s0)
300076a4:	fbc42783          	lw	a5,-68(s0)
300076a8:	f4f74ce3          	blt	a4,a5,30007600 <ip_psram_selftest+0x190>
300076ac:	fbc42583          	lw	a1,-68(s0)
300076b0:	300197b7          	lui	a5,0x30019
300076b4:	f8878513          	addi	a0,a5,-120 # 30018f88 <img+0x1007c>
300076b8:	c99f90ef          	jal	30001350 <printf>
300076bc:	fc042e23          	sw	zero,-36(s0)
300076c0:	0300006f          	j	300076f0 <ip_psram_selftest+0x280>
300076c4:	fdc42783          	lw	a5,-36(s0)
300076c8:	0ff7f713          	zext.b	a4,a5
300076cc:	fdc42783          	lw	a5,-36(s0)
300076d0:	fc042683          	lw	a3,-64(s0)
300076d4:	00f687b3          	add	a5,a3,a5
300076d8:	07870713          	addi	a4,a4,120
300076dc:	0ff77713          	zext.b	a4,a4
300076e0:	00e78023          	sb	a4,0(a5)
300076e4:	fdc42783          	lw	a5,-36(s0)
300076e8:	00178793          	addi	a5,a5,1
300076ec:	fcf42e23          	sw	a5,-36(s0)
300076f0:	fdc42703          	lw	a4,-36(s0)
300076f4:	fbc42783          	lw	a5,-68(s0)
300076f8:	fcf746e3          	blt	a4,a5,300076c4 <ip_psram_selftest+0x254>
300076fc:	fc042c23          	sw	zero,-40(s0)
30007700:	0740006f          	j	30007774 <ip_psram_selftest+0x304>
30007704:	fd842783          	lw	a5,-40(s0)
30007708:	fc042703          	lw	a4,-64(s0)
3000770c:	00f707b3          	add	a5,a4,a5
30007710:	0007c783          	lbu	a5,0(a5)
30007714:	0ff7f713          	zext.b	a4,a5
30007718:	fd842783          	lw	a5,-40(s0)
3000771c:	0ff7f793          	zext.b	a5,a5
30007720:	07878793          	addi	a5,a5,120
30007724:	0ff7f793          	zext.b	a5,a5
30007728:	04f70063          	beq	a4,a5,30007768 <ip_psram_selftest+0x2f8>
3000772c:	fd842783          	lw	a5,-40(s0)
30007730:	fc042703          	lw	a4,-64(s0)
30007734:	00f707b3          	add	a5,a4,a5
30007738:	0007c783          	lbu	a5,0(a5)
3000773c:	0ff7f793          	zext.b	a5,a5
30007740:	00078713          	mv	a4,a5
30007744:	fd842783          	lw	a5,-40(s0)
30007748:	0ff7f793          	zext.b	a5,a5
3000774c:	07878793          	addi	a5,a5,120
30007750:	0ff7f793          	zext.b	a5,a5
30007754:	00078613          	mv	a2,a5
30007758:	00070593          	mv	a1,a4
3000775c:	300197b7          	lui	a5,0x30019
30007760:	f4c78513          	addi	a0,a5,-180 # 30018f4c <img+0x10040>
30007764:	bedf90ef          	jal	30001350 <printf>
30007768:	fd842783          	lw	a5,-40(s0)
3000776c:	00178793          	addi	a5,a5,1
30007770:	fcf42c23          	sw	a5,-40(s0)
30007774:	fd842703          	lw	a4,-40(s0)
30007778:	fbc42783          	lw	a5,-68(s0)
3000777c:	f8f744e3          	blt	a4,a5,30007704 <ip_psram_selftest+0x294>
30007780:	00500793          	li	a5,5
30007784:	faf42c23          	sw	a5,-72(s0)
30007788:	10000793          	li	a5,256
3000778c:	faf42a23          	sw	a5,-76(s0)
30007790:	fa842783          	lw	a5,-88(s0)
30007794:	0147d793          	srli	a5,a5,0x14
30007798:	00078593          	mv	a1,a5
3000779c:	300197b7          	lui	a5,0x30019
300077a0:	fac78513          	addi	a0,a5,-84 # 30018fac <img+0x100a0>
300077a4:	badf90ef          	jal	30001350 <printf>
300077a8:	00100793          	li	a5,1
300077ac:	fcf42a23          	sw	a5,-44(s0)
300077b0:	0e40006f          	j	30007894 <ip_psram_selftest+0x424>
300077b4:	fd442783          	lw	a5,-44(s0)
300077b8:	faf42823          	sw	a5,-80(s0)
300077bc:	fc042823          	sw	zero,-48(s0)
300077c0:	0380006f          	j	300077f8 <ip_psram_selftest+0x388>
300077c4:	fd042783          	lw	a5,-48(s0)
300077c8:	00279793          	slli	a5,a5,0x2
300077cc:	fc842703          	lw	a4,-56(s0)
300077d0:	00f704b3          	add	s1,a4,a5
300077d4:	fb040793          	addi	a5,s0,-80
300077d8:	00078513          	mv	a0,a5
300077dc:	c15ff0ef          	jal	300073f0 <xorshift32>
300077e0:	00050793          	mv	a5,a0
300077e4:	00f4a023          	sw	a5,0(s1)
300077e8:	fd042703          	lw	a4,-48(s0)
300077ec:	fb442783          	lw	a5,-76(s0)
300077f0:	00f707b3          	add	a5,a4,a5
300077f4:	fcf42823          	sw	a5,-48(s0)
300077f8:	fa842783          	lw	a5,-88(s0)
300077fc:	0027d713          	srli	a4,a5,0x2
30007800:	fd042783          	lw	a5,-48(s0)
30007804:	fce7e0e3          	bltu	a5,a4,300077c4 <ip_psram_selftest+0x354>
30007808:	fd442783          	lw	a5,-44(s0)
3000780c:	faf42823          	sw	a5,-80(s0)
30007810:	fc042623          	sw	zero,-52(s0)
30007814:	0580006f          	j	3000786c <ip_psram_selftest+0x3fc>
30007818:	fcc42783          	lw	a5,-52(s0)
3000781c:	00279793          	slli	a5,a5,0x2
30007820:	fc842703          	lw	a4,-56(s0)
30007824:	00f707b3          	add	a5,a4,a5
30007828:	0007a483          	lw	s1,0(a5)
3000782c:	fb040793          	addi	a5,s0,-80
30007830:	00078513          	mv	a0,a5
30007834:	bbdff0ef          	jal	300073f0 <xorshift32>
30007838:	00050793          	mv	a5,a0
3000783c:	02f48063          	beq	s1,a5,3000785c <ip_psram_selftest+0x3ec>
30007840:	fcc42783          	lw	a5,-52(s0)
30007844:	00279793          	slli	a5,a5,0x2
30007848:	00078593          	mv	a1,a5
3000784c:	300197b7          	lui	a5,0x30019
30007850:	fd878513          	addi	a0,a5,-40 # 30018fd8 <img+0x100cc>
30007854:	afdf90ef          	jal	30001350 <printf>
30007858:	0000006f          	j	30007858 <ip_psram_selftest+0x3e8>
3000785c:	fcc42703          	lw	a4,-52(s0)
30007860:	fb442783          	lw	a5,-76(s0)
30007864:	00f707b3          	add	a5,a4,a5
30007868:	fcf42623          	sw	a5,-52(s0)
3000786c:	fa842783          	lw	a5,-88(s0)
30007870:	0027d713          	srli	a4,a5,0x2
30007874:	fcc42783          	lw	a5,-52(s0)
30007878:	fae7e0e3          	bltu	a5,a4,30007818 <ip_psram_selftest+0x3a8>
3000787c:	300197b7          	lui	a5,0x30019
30007880:	ff478513          	addi	a0,a5,-12 # 30018ff4 <img+0x100e8>
30007884:	acdf90ef          	jal	30001350 <printf>
30007888:	fd442783          	lw	a5,-44(s0)
3000788c:	00178793          	addi	a5,a5,1
30007890:	fcf42a23          	sw	a5,-44(s0)
30007894:	fd442703          	lw	a4,-44(s0)
30007898:	fb842783          	lw	a5,-72(s0)
3000789c:	f0e7dce3          	bge	a5,a4,300077b4 <ip_psram_selftest+0x344>
300078a0:	300197b7          	lui	a5,0x30019
300078a4:	ff878513          	addi	a0,a5,-8 # 30018ff8 <img+0x100ec>
300078a8:	aa9f90ef          	jal	30001350 <printf>
300078ac:	300197b7          	lui	a5,0x30019
300078b0:	00c78513          	addi	a0,a5,12 # 3001900c <img+0x10100>
300078b4:	a9df90ef          	jal	30001350 <printf>
300078b8:	05c12083          	lw	ra,92(sp)
300078bc:	05812403          	lw	s0,88(sp)
300078c0:	05412483          	lw	s1,84(sp)
300078c4:	06010113          	addi	sp,sp,96
300078c8:	00008067          	ret

300078cc <tinybench>:
300078cc:	eb010113          	addi	sp,sp,-336
300078d0:	14112623          	sw	ra,332(sp)
300078d4:	14812423          	sw	s0,328(sp)
300078d8:	15010413          	addi	s0,sp,336
300078dc:	00050793          	mv	a5,a0
300078e0:	eab42c23          	sw	a1,-328(s0)
300078e4:	eaf40fa3          	sb	a5,-321(s0)
300078e8:	300197b7          	lui	a5,0x30019
300078ec:	02478513          	addi	a0,a5,36 # 30019024 <img+0x10118>
300078f0:	a61f90ef          	jal	30001350 <printf>
300078f4:	ec040793          	addi	a5,s0,-320
300078f8:	fcf42a23          	sw	a5,-44(s0)
300078fc:	12b9b7b7          	lui	a5,0x12b9b
30007900:	0a178793          	addi	a5,a5,161 # 12b9b0a1 <_ebss+0xeb9b0a1>
30007904:	fef42623          	sw	a5,-20(s0)
30007908:	c00027f3          	rdcycle	a5
3000790c:	fcf42823          	sw	a5,-48(s0)
30007910:	c02027f3          	rdinstret	a5
30007914:	fcf42623          	sw	a5,-52(s0)
30007918:	300197b7          	lui	a5,0x30019
3000791c:	03478513          	addi	a0,a5,52 # 30019034 <img+0x10128>
30007920:	a31f90ef          	jal	30001350 <printf>
30007924:	fe042423          	sw	zero,-24(s0)
30007928:	1200006f          	j	30007a48 <tinybench+0x17c>
3000792c:	fe042223          	sw	zero,-28(s0)
30007930:	0640006f          	j	30007994 <tinybench+0xc8>
30007934:	fec42783          	lw	a5,-20(s0)
30007938:	00d79793          	slli	a5,a5,0xd
3000793c:	fec42703          	lw	a4,-20(s0)
30007940:	00f747b3          	xor	a5,a4,a5
30007944:	fef42623          	sw	a5,-20(s0)
30007948:	fec42783          	lw	a5,-20(s0)
3000794c:	0117d793          	srli	a5,a5,0x11
30007950:	fec42703          	lw	a4,-20(s0)
30007954:	00f747b3          	xor	a5,a4,a5
30007958:	fef42623          	sw	a5,-20(s0)
3000795c:	fec42783          	lw	a5,-20(s0)
30007960:	00579793          	slli	a5,a5,0x5
30007964:	fec42703          	lw	a4,-20(s0)
30007968:	00f747b3          	xor	a5,a4,a5
3000796c:	fef42623          	sw	a5,-20(s0)
30007970:	fec42783          	lw	a5,-20(s0)
30007974:	0ff7f713          	zext.b	a4,a5
30007978:	fe442783          	lw	a5,-28(s0)
3000797c:	ff078793          	addi	a5,a5,-16
30007980:	008787b3          	add	a5,a5,s0
30007984:	ece78823          	sb	a4,-304(a5)
30007988:	fe442783          	lw	a5,-28(s0)
3000798c:	00178793          	addi	a5,a5,1
30007990:	fef42223          	sw	a5,-28(s0)
30007994:	fe442703          	lw	a4,-28(s0)
30007998:	0ff00793          	li	a5,255
3000799c:	f8e7dce3          	bge	a5,a4,30007934 <tinybench+0x68>
300079a0:	fe042023          	sw	zero,-32(s0)
300079a4:	fc042e23          	sw	zero,-36(s0)
300079a8:	0440006f          	j	300079ec <tinybench+0x120>
300079ac:	fe042783          	lw	a5,-32(s0)
300079b0:	ff078793          	addi	a5,a5,-16
300079b4:	008787b3          	add	a5,a5,s0
300079b8:	ed07c783          	lbu	a5,-304(a5)
300079bc:	02078263          	beqz	a5,300079e0 <tinybench+0x114>
300079c0:	fdc42783          	lw	a5,-36(s0)
300079c4:	00178713          	addi	a4,a5,1
300079c8:	fce42e23          	sw	a4,-36(s0)
300079cc:	fe042703          	lw	a4,-32(s0)
300079d0:	0ff77713          	zext.b	a4,a4
300079d4:	ff078793          	addi	a5,a5,-16
300079d8:	008787b3          	add	a5,a5,s0
300079dc:	ece78823          	sb	a4,-304(a5)
300079e0:	fe042783          	lw	a5,-32(s0)
300079e4:	00178793          	addi	a5,a5,1
300079e8:	fef42023          	sw	a5,-32(s0)
300079ec:	fe042703          	lw	a4,-32(s0)
300079f0:	0ff00793          	li	a5,255
300079f4:	fae7dce3          	bge	a5,a4,300079ac <tinybench+0xe0>
300079f8:	fc042c23          	sw	zero,-40(s0)
300079fc:	fc042023          	sw	zero,-64(s0)
30007a00:	0300006f          	j	30007a30 <tinybench+0x164>
30007a04:	fd842783          	lw	a5,-40(s0)
30007a08:	00279793          	slli	a5,a5,0x2
30007a0c:	fd442703          	lw	a4,-44(s0)
30007a10:	00f707b3          	add	a5,a4,a5
30007a14:	0007a783          	lw	a5,0(a5)
30007a18:	fec42703          	lw	a4,-20(s0)
30007a1c:	00f747b3          	xor	a5,a4,a5
30007a20:	fef42623          	sw	a5,-20(s0)
30007a24:	fd842783          	lw	a5,-40(s0)
30007a28:	00178793          	addi	a5,a5,1
30007a2c:	fcf42c23          	sw	a5,-40(s0)
30007a30:	fd842703          	lw	a4,-40(s0)
30007a34:	03f00793          	li	a5,63
30007a38:	fce7d6e3          	bge	a5,a4,30007a04 <tinybench+0x138>
30007a3c:	fe842783          	lw	a5,-24(s0)
30007a40:	00178793          	addi	a5,a5,1
30007a44:	fef42423          	sw	a5,-24(s0)
30007a48:	fe842703          	lw	a4,-24(s0)
30007a4c:	01300793          	li	a5,19
30007a50:	ece7dee3          	bge	a5,a4,3000792c <tinybench+0x60>
30007a54:	c00027f3          	rdcycle	a5
30007a58:	fcf42423          	sw	a5,-56(s0)
30007a5c:	c02027f3          	rdinstret	a5
30007a60:	fcf42223          	sw	a5,-60(s0)
30007a64:	ebf44783          	lbu	a5,-321(s0)
30007a68:	04078663          	beqz	a5,30007ab4 <tinybench+0x1e8>
30007a6c:	fc842703          	lw	a4,-56(s0)
30007a70:	fd042783          	lw	a5,-48(s0)
30007a74:	40f707b3          	sub	a5,a4,a5
30007a78:	00078593          	mv	a1,a5
30007a7c:	300197b7          	lui	a5,0x30019
30007a80:	05478513          	addi	a0,a5,84 # 30019054 <img+0x10148>
30007a84:	8cdf90ef          	jal	30001350 <printf>
30007a88:	fc442703          	lw	a4,-60(s0)
30007a8c:	fcc42783          	lw	a5,-52(s0)
30007a90:	40f707b3          	sub	a5,a4,a5
30007a94:	00078593          	mv	a1,a5
30007a98:	300197b7          	lui	a5,0x30019
30007a9c:	06478513          	addi	a0,a5,100 # 30019064 <img+0x10158>
30007aa0:	8b1f90ef          	jal	30001350 <printf>
30007aa4:	fec42583          	lw	a1,-20(s0)
30007aa8:	300197b7          	lui	a5,0x30019
30007aac:	07478513          	addi	a0,a5,116 # 30019074 <img+0x10168>
30007ab0:	8a1f90ef          	jal	30001350 <printf>
30007ab4:	eb842783          	lw	a5,-328(s0)
30007ab8:	00078c63          	beqz	a5,30007ad0 <tinybench+0x204>
30007abc:	fc442703          	lw	a4,-60(s0)
30007ac0:	fcc42783          	lw	a5,-52(s0)
30007ac4:	40f70733          	sub	a4,a4,a5
30007ac8:	eb842783          	lw	a5,-328(s0)
30007acc:	00e7a023          	sw	a4,0(a5)
30007ad0:	300197b7          	lui	a5,0x30019
30007ad4:	08478513          	addi	a0,a5,132 # 30019084 <img+0x10178>
30007ad8:	879f90ef          	jal	30001350 <printf>
30007adc:	fc842703          	lw	a4,-56(s0)
30007ae0:	fd042783          	lw	a5,-48(s0)
30007ae4:	40f707b3          	sub	a5,a4,a5
30007ae8:	00078513          	mv	a0,a5
30007aec:	14c12083          	lw	ra,332(sp)
30007af0:	14812403          	lw	s0,328(sp)
30007af4:	15010113          	addi	sp,sp,336
30007af8:	00008067          	ret

30007afc <getchar_prompt>:
30007afc:	fd010113          	addi	sp,sp,-48
30007b00:	02112623          	sw	ra,44(sp)
30007b04:	02812423          	sw	s0,40(sp)
30007b08:	03010413          	addi	s0,sp,48
30007b0c:	fca42e23          	sw	a0,-36(s0)
30007b10:	fff00793          	li	a5,-1
30007b14:	fef42623          	sw	a5,-20(s0)
30007b18:	c00027f3          	rdcycle	a5
30007b1c:	fef42423          	sw	a5,-24(s0)
30007b20:	fdc42783          	lw	a5,-36(s0)
30007b24:	06078063          	beqz	a5,30007b84 <getchar_prompt+0x88>
30007b28:	fdc42503          	lw	a0,-36(s0)
30007b2c:	825f90ef          	jal	30001350 <printf>
30007b30:	0540006f          	j	30007b84 <getchar_prompt+0x88>
30007b34:	c00027f3          	rdcycle	a5
30007b38:	fef42223          	sw	a5,-28(s0)
30007b3c:	fe442703          	lw	a4,-28(s0)
30007b40:	fe842783          	lw	a5,-24(s0)
30007b44:	40f707b3          	sub	a5,a4,a5
30007b48:	fef42023          	sw	a5,-32(s0)
30007b4c:	fe042703          	lw	a4,-32(s0)
30007b50:	00b727b7          	lui	a5,0xb72
30007b54:	b0078793          	addi	a5,a5,-1280 # b71b00 <_ebss-0x348e500>
30007b58:	00e7fe63          	bgeu	a5,a4,30007b74 <getchar_prompt+0x78>
30007b5c:	fdc42783          	lw	a5,-36(s0)
30007b60:	00078663          	beqz	a5,30007b6c <getchar_prompt+0x70>
30007b64:	fdc42503          	lw	a0,-36(s0)
30007b68:	fe8f90ef          	jal	30001350 <printf>
30007b6c:	fe442783          	lw	a5,-28(s0)
30007b70:	fef42423          	sw	a5,-24(s0)
30007b74:	030007b7          	lui	a5,0x3000
30007b78:	01478793          	addi	a5,a5,20 # 3000014 <_ebss-0xffffec>
30007b7c:	0007a783          	lw	a5,0(a5)
30007b80:	fef42623          	sw	a5,-20(s0)
30007b84:	fec42703          	lw	a4,-20(s0)
30007b88:	fff00793          	li	a5,-1
30007b8c:	faf704e3          	beq	a4,a5,30007b34 <getchar_prompt+0x38>
30007b90:	fec42783          	lw	a5,-20(s0)
30007b94:	0ff7f793          	zext.b	a5,a5
30007b98:	00078513          	mv	a0,a5
30007b9c:	02c12083          	lw	ra,44(sp)
30007ba0:	02812403          	lw	s0,40(sp)
30007ba4:	03010113          	addi	sp,sp,48
30007ba8:	00008067          	ret

30007bac <tinysh_echo>:
30007bac:	fe010113          	addi	sp,sp,-32
30007bb0:	00112e23          	sw	ra,28(sp)
30007bb4:	00812c23          	sw	s0,24(sp)
30007bb8:	02010413          	addi	s0,sp,32
30007bbc:	300197b7          	lui	a5,0x30019
30007bc0:	09478513          	addi	a0,a5,148 # 30019094 <img+0x10188>
30007bc4:	f8cf90ef          	jal	30001350 <printf>
30007bc8:	0100006f          	j	30007bd8 <tinysh_echo+0x2c>
30007bcc:	fef44783          	lbu	a5,-17(s0)
30007bd0:	00078513          	mv	a0,a5
30007bd4:	da4f80ef          	jal	30000178 <putch>
30007bd8:	00000513          	li	a0,0
30007bdc:	f21ff0ef          	jal	30007afc <getchar_prompt>
30007be0:	00050793          	mv	a5,a0
30007be4:	fef407a3          	sb	a5,-17(s0)
30007be8:	fef44703          	lbu	a4,-17(s0)
30007bec:	02100793          	li	a5,33
30007bf0:	fcf71ee3          	bne	a4,a5,30007bcc <tinysh_echo+0x20>
30007bf4:	00000013          	nop
30007bf8:	00000013          	nop
30007bfc:	01c12083          	lw	ra,28(sp)
30007c00:	01812403          	lw	s0,24(sp)
30007c04:	02010113          	addi	sp,sp,32
30007c08:	00008067          	ret

30007c0c <tinysh>:
30007c0c:	fe010113          	addi	sp,sp,-32
30007c10:	00112e23          	sw	ra,28(sp)
30007c14:	00812c23          	sw	s0,24(sp)
30007c18:	02010413          	addi	s0,sp,32
30007c1c:	00000013          	nop
30007c20:	300197b7          	lui	a5,0x30019
30007c24:	0b478513          	addi	a0,a5,180 # 300190b4 <img+0x101a8>
30007c28:	ed5ff0ef          	jal	30007afc <getchar_prompt>
30007c2c:	00050793          	mv	a5,a0
30007c30:	00078713          	mv	a4,a5
30007c34:	00d00793          	li	a5,13
30007c38:	fef714e3          	bne	a4,a5,30007c20 <tinysh+0x14>
30007c3c:	300197b7          	lui	a5,0x30019
30007c40:	0d078513          	addi	a0,a5,208 # 300190d0 <img+0x101c4>
30007c44:	f0cf90ef          	jal	30001350 <printf>
30007c48:	300197b7          	lui	a5,0x30019
30007c4c:	0e878513          	addi	a0,a5,232 # 300190e8 <img+0x101dc>
30007c50:	f00f90ef          	jal	30001350 <printf>
30007c54:	300197b7          	lui	a5,0x30019
30007c58:	10078513          	addi	a0,a5,256 # 30019100 <img+0x101f4>
30007c5c:	ef4f90ef          	jal	30001350 <printf>
30007c60:	300197b7          	lui	a5,0x30019
30007c64:	11878513          	addi	a0,a5,280 # 30019118 <img+0x1020c>
30007c68:	ee8f90ef          	jal	30001350 <printf>
30007c6c:	300197b7          	lui	a5,0x30019
30007c70:	13c78513          	addi	a0,a5,316 # 3001913c <img+0x10230>
30007c74:	edcf90ef          	jal	30001350 <printf>
30007c78:	300197b7          	lui	a5,0x30019
30007c7c:	15878513          	addi	a0,a5,344 # 30019158 <img+0x1024c>
30007c80:	ed0f90ef          	jal	30001350 <printf>
30007c84:	300197b7          	lui	a5,0x30019
30007c88:	17078513          	addi	a0,a5,368 # 30019170 <img+0x10264>
30007c8c:	ec4f90ef          	jal	30001350 <printf>
30007c90:	300197b7          	lui	a5,0x30019
30007c94:	18878513          	addi	a0,a5,392 # 30019188 <img+0x1027c>
30007c98:	eb8f90ef          	jal	30001350 <printf>
30007c9c:	300197b7          	lui	a5,0x30019
30007ca0:	1a078513          	addi	a0,a5,416 # 300191a0 <img+0x10294>
30007ca4:	eacf90ef          	jal	30001350 <printf>
30007ca8:	300197b7          	lui	a5,0x30019
30007cac:	1b878513          	addi	a0,a5,440 # 300191b8 <img+0x102ac>
30007cb0:	ea0f90ef          	jal	30001350 <printf>
30007cb4:	300197b7          	lui	a5,0x30019
30007cb8:	1d078513          	addi	a0,a5,464 # 300191d0 <img+0x102c4>
30007cbc:	e94f90ef          	jal	30001350 <printf>
30007cc0:	300197b7          	lui	a5,0x30019
30007cc4:	1e878513          	addi	a0,a5,488 # 300191e8 <img+0x102dc>
30007cc8:	e88f90ef          	jal	30001350 <printf>
30007ccc:	300197b7          	lui	a5,0x30019
30007cd0:	20478513          	addi	a0,a5,516 # 30019204 <img+0x102f8>
30007cd4:	e7cf90ef          	jal	30001350 <printf>
30007cd8:	300197b7          	lui	a5,0x30019
30007cdc:	21878513          	addi	a0,a5,536 # 30019218 <img+0x1030c>
30007ce0:	e70f90ef          	jal	30001350 <printf>
30007ce4:	00a00793          	li	a5,10
30007ce8:	fef42623          	sw	a5,-20(s0)
30007cec:	0f80006f          	j	30007de4 <tinysh+0x1d8>
30007cf0:	300197b7          	lui	a5,0x30019
30007cf4:	22c78513          	addi	a0,a5,556 # 3001922c <img+0x10320>
30007cf8:	e58f90ef          	jal	30001350 <printf>
30007cfc:	00000513          	li	a0,0
30007d00:	dfdff0ef          	jal	30007afc <getchar_prompt>
30007d04:	00050793          	mv	a5,a0
30007d08:	fef405a3          	sb	a5,-21(s0)
30007d0c:	feb44703          	lbu	a4,-21(s0)
30007d10:	02000793          	li	a5,32
30007d14:	00e7fe63          	bgeu	a5,a4,30007d30 <tinysh+0x124>
30007d18:	feb44703          	lbu	a4,-21(s0)
30007d1c:	07e00793          	li	a5,126
30007d20:	00e7e863          	bltu	a5,a4,30007d30 <tinysh+0x124>
30007d24:	feb44783          	lbu	a5,-21(s0)
30007d28:	00078513          	mv	a0,a5
30007d2c:	c4cf80ef          	jal	30000178 <putch>
30007d30:	300197b7          	lui	a5,0x30019
30007d34:	23878513          	addi	a0,a5,568 # 30019238 <img+0x1032c>
30007d38:	e18f90ef          	jal	30001350 <printf>
30007d3c:	feb44783          	lbu	a5,-21(s0)
30007d40:	f9f78793          	addi	a5,a5,-97
30007d44:	01400713          	li	a4,20
30007d48:	08f76663          	bltu	a4,a5,30007dd4 <tinysh+0x1c8>
30007d4c:	00279713          	slli	a4,a5,0x2
30007d50:	300197b7          	lui	a5,0x30019
30007d54:	23c78793          	addi	a5,a5,572 # 3001923c <img+0x10330>
30007d58:	00f707b3          	add	a5,a4,a5
30007d5c:	0007a783          	lw	a5,0(a5)
30007d60:	00078067          	jr	a5
30007d64:	b44fa0ef          	jal	300020a8 <ip_tim_test>
30007d68:	0680006f          	j	30007dd0 <tinysh+0x1c4>
30007d6c:	f99f90ef          	jal	30001d04 <ip_gpio_test>
30007d70:	0600006f          	j	30007dd0 <tinysh+0x1c4>
30007d74:	9a0fa0ef          	jal	30001f14 <ip_hk_spi_test>
30007d78:	0580006f          	j	30007dd0 <tinysh+0x1c4>
30007d7c:	cdcfa0ef          	jal	30002258 <ip_archinfo_test>
30007d80:	0500006f          	j	30007dd0 <tinysh+0x1c4>
30007d84:	d54fa0ef          	jal	300022d8 <ip_rng_test>
30007d88:	0480006f          	j	30007dd0 <tinysh+0x1c4>
30007d8c:	e4cfa0ef          	jal	300023d8 <ip_hpuart_test>
30007d90:	0400006f          	j	30007dd0 <tinysh+0x1c4>
30007d94:	fa4fa0ef          	jal	30002538 <ip_pwm_test>
30007d98:	0380006f          	j	30007dd0 <tinysh+0x1c4>
30007d9c:	92dfa0ef          	jal	300026c8 <ip_ps2_test>
30007da0:	0300006f          	j	30007dd0 <tinysh+0x1c4>
30007da4:	a7cfb0ef          	jal	30003020 <ip_i2c_test>
30007da8:	0280006f          	j	30007dd0 <tinysh+0x1c4>
30007dac:	dc0ff0ef          	jal	3000736c <ip_lcd_test>
30007db0:	0200006f          	j	30007dd0 <tinysh+0x1c4>
30007db4:	00000593          	li	a1,0
30007db8:	00100513          	li	a0,1
30007dbc:	b11ff0ef          	jal	300078cc <tinybench>
30007dc0:	0100006f          	j	30007dd0 <tinysh+0x1c4>
30007dc4:	de9ff0ef          	jal	30007bac <tinysh_echo>
30007dc8:	0080006f          	j	30007dd0 <tinysh+0x1c4>
30007dcc:	00000013          	nop
30007dd0:	01c0006f          	j	30007dec <tinysh+0x1e0>
30007dd4:	00000013          	nop
30007dd8:	fec42783          	lw	a5,-20(s0)
30007ddc:	fff78793          	addi	a5,a5,-1
30007de0:	fef42623          	sw	a5,-20(s0)
30007de4:	fec42783          	lw	a5,-20(s0)
30007de8:	f0f044e3          	bgtz	a5,30007cf0 <tinysh+0xe4>
30007dec:	e51ff06f          	j	30007c3c <tinysh+0x30>

30007df0 <welcome_screen>:
30007df0:	ff010113          	addi	sp,sp,-16
30007df4:	00112623          	sw	ra,12(sp)
30007df8:	00812423          	sw	s0,8(sp)
30007dfc:	01010413          	addi	s0,sp,16
30007e00:	300197b7          	lui	a5,0x30019
30007e04:	29078513          	addi	a0,a5,656 # 30019290 <img+0x10384>
30007e08:	d48f90ef          	jal	30001350 <printf>
30007e0c:	300197b7          	lui	a5,0x30019
30007e10:	2a078513          	addi	a0,a5,672 # 300192a0 <img+0x10394>
30007e14:	d3cf90ef          	jal	30001350 <printf>
30007e18:	3001a7b7          	lui	a5,0x3001a
30007e1c:	d2878593          	addi	a1,a5,-728 # 30019d28 <_etext>
30007e20:	300197b7          	lui	a5,0x30019
30007e24:	2cc78513          	addi	a0,a5,716 # 300192cc <img+0x103c0>
30007e28:	d28f90ef          	jal	30001350 <printf>
30007e2c:	040007b7          	lui	a5,0x4000
30007e30:	00078593          	mv	a1,a5
30007e34:	300197b7          	lui	a5,0x30019
30007e38:	2e078513          	addi	a0,a5,736 # 300192e0 <img+0x103d4>
30007e3c:	d14f90ef          	jal	30001350 <printf>
30007e40:	040007b7          	lui	a5,0x4000
30007e44:	00078593          	mv	a1,a5
30007e48:	300197b7          	lui	a5,0x30019
30007e4c:	2f478513          	addi	a0,a5,756 # 300192f4 <img+0x103e8>
30007e50:	d00f90ef          	jal	30001350 <printf>
30007e54:	040007b7          	lui	a5,0x4000
30007e58:	00078593          	mv	a1,a5
30007e5c:	300197b7          	lui	a5,0x30019
30007e60:	30878513          	addi	a0,a5,776 # 30019308 <img+0x103fc>
30007e64:	cecf90ef          	jal	30001350 <printf>
30007e68:	040007b7          	lui	a5,0x4000
30007e6c:	00078593          	mv	a1,a5
30007e70:	300197b7          	lui	a5,0x30019
30007e74:	31c78513          	addi	a0,a5,796 # 3001931c <img+0x10410>
30007e78:	cd8f90ef          	jal	30001350 <printf>
30007e7c:	040007b7          	lui	a5,0x4000
30007e80:	00078593          	mv	a1,a5
30007e84:	300197b7          	lui	a5,0x30019
30007e88:	33078513          	addi	a0,a5,816 # 30019330 <img+0x10424>
30007e8c:	cc4f90ef          	jal	30001350 <printf>
30007e90:	0001c7b7          	lui	a5,0x1c
30007e94:	20078593          	addi	a1,a5,512 # 1c200 <_ebss-0x3fe3e00>
30007e98:	300197b7          	lui	a5,0x30019
30007e9c:	34878513          	addi	a0,a5,840 # 30019348 <img+0x1043c>
30007ea0:	cb0f90ef          	jal	30001350 <printf>
30007ea4:	300197b7          	lui	a5,0x30019
30007ea8:	36078513          	addi	a0,a5,864 # 30019360 <img+0x10454>
30007eac:	ca4f90ef          	jal	30001350 <printf>
30007eb0:	300197b7          	lui	a5,0x30019
30007eb4:	37078513          	addi	a0,a5,880 # 30019370 <img+0x10464>
30007eb8:	c98f90ef          	jal	30001350 <printf>
30007ebc:	300197b7          	lui	a5,0x30019
30007ec0:	37478513          	addi	a0,a5,884 # 30019374 <img+0x10468>
30007ec4:	c8cf90ef          	jal	30001350 <printf>
30007ec8:	300197b7          	lui	a5,0x30019
30007ecc:	3a478513          	addi	a0,a5,932 # 300193a4 <img+0x10498>
30007ed0:	c80f90ef          	jal	30001350 <printf>
30007ed4:	300197b7          	lui	a5,0x30019
30007ed8:	3d478513          	addi	a0,a5,980 # 300193d4 <img+0x104c8>
30007edc:	c74f90ef          	jal	30001350 <printf>
30007ee0:	300197b7          	lui	a5,0x30019
30007ee4:	40478513          	addi	a0,a5,1028 # 30019404 <img+0x104f8>
30007ee8:	c68f90ef          	jal	30001350 <printf>
30007eec:	300197b7          	lui	a5,0x30019
30007ef0:	42c78513          	addi	a0,a5,1068 # 3001942c <img+0x10520>
30007ef4:	c5cf90ef          	jal	30001350 <printf>
30007ef8:	300197b7          	lui	a5,0x30019
30007efc:	45c78513          	addi	a0,a5,1116 # 3001945c <img+0x10550>
30007f00:	c50f90ef          	jal	30001350 <printf>
30007f04:	300197b7          	lui	a5,0x30019
30007f08:	48c78513          	addi	a0,a5,1164 # 3001948c <img+0x10580>
30007f0c:	c44f90ef          	jal	30001350 <printf>
30007f10:	300197b7          	lui	a5,0x30019
30007f14:	4bc78513          	addi	a0,a5,1212 # 300194bc <img+0x105b0>
30007f18:	c38f90ef          	jal	30001350 <printf>
30007f1c:	300197b7          	lui	a5,0x30019
30007f20:	4e878513          	addi	a0,a5,1256 # 300194e8 <img+0x105dc>
30007f24:	c2cf90ef          	jal	30001350 <printf>
30007f28:	300197b7          	lui	a5,0x30019
30007f2c:	52478513          	addi	a0,a5,1316 # 30019524 <img+0x10618>
30007f30:	c20f90ef          	jal	30001350 <printf>
30007f34:	300197b7          	lui	a5,0x30019
30007f38:	56478513          	addi	a0,a5,1380 # 30019564 <img+0x10658>
30007f3c:	c14f90ef          	jal	30001350 <printf>
30007f40:	300197b7          	lui	a5,0x30019
30007f44:	58878513          	addi	a0,a5,1416 # 30019588 <img+0x1067c>
30007f48:	c08f90ef          	jal	30001350 <printf>
30007f4c:	300197b7          	lui	a5,0x30019
30007f50:	5ac78513          	addi	a0,a5,1452 # 300195ac <img+0x106a0>
30007f54:	bfcf90ef          	jal	30001350 <printf>
30007f58:	300197b7          	lui	a5,0x30019
30007f5c:	5b878513          	addi	a0,a5,1464 # 300195b8 <img+0x106ac>
30007f60:	bf0f90ef          	jal	30001350 <printf>
30007f64:	300197b7          	lui	a5,0x30019
30007f68:	5d878513          	addi	a0,a5,1496 # 300195d8 <img+0x106cc>
30007f6c:	be4f90ef          	jal	30001350 <printf>
30007f70:	04800593          	li	a1,72
30007f74:	300197b7          	lui	a5,0x30019
30007f78:	5f878513          	addi	a0,a5,1528 # 300195f8 <img+0x106ec>
30007f7c:	bd4f90ef          	jal	30001350 <printf>
30007f80:	300197b7          	lui	a5,0x30019
30007f84:	61878513          	addi	a0,a5,1560 # 30019618 <img+0x1070c>
30007f88:	bc8f90ef          	jal	30001350 <printf>
30007f8c:	08000693          	li	a3,128
30007f90:	00020637          	lui	a2,0x20
30007f94:	00000593          	li	a1,0
30007f98:	300197b7          	lui	a5,0x30019
30007f9c:	63078513          	addi	a0,a5,1584 # 30019630 <img+0x10724>
30007fa0:	bb0f90ef          	jal	30001350 <printf>
30007fa4:	00100713          	li	a4,1
30007fa8:	00800693          	li	a3,8
30007fac:	04800637          	lui	a2,0x4800
30007fb0:	040005b7          	lui	a1,0x4000
30007fb4:	300197b7          	lui	a5,0x30019
30007fb8:	66478513          	addi	a0,a5,1636 # 30019664 <img+0x10758>
30007fbc:	b94f90ef          	jal	30001350 <printf>
30007fc0:	01000693          	li	a3,16
30007fc4:	31000637          	lui	a2,0x31000
30007fc8:	300005b7          	lui	a1,0x30000
30007fcc:	300197b7          	lui	a5,0x30019
30007fd0:	69878513          	addi	a0,a5,1688 # 30019698 <img+0x1078c>
30007fd4:	b7cf90ef          	jal	30001350 <printf>
30007fd8:	300197b7          	lui	a5,0x30019
30007fdc:	6c478513          	addi	a0,a5,1732 # 300196c4 <img+0x107b8>
30007fe0:	b70f90ef          	jal	30001350 <printf>
30007fe4:	020005b7          	lui	a1,0x2000
30007fe8:	300197b7          	lui	a5,0x30019
30007fec:	6dc78513          	addi	a0,a5,1756 # 300196dc <img+0x107d0>
30007ff0:	b60f90ef          	jal	30001350 <printf>
30007ff4:	030005b7          	lui	a1,0x3000
30007ff8:	300197b7          	lui	a5,0x30019
30007ffc:	70c78513          	addi	a0,a5,1804 # 3001970c <img+0x10800>
30008000:	b50f90ef          	jal	30001350 <printf>
30008004:	030007b7          	lui	a5,0x3000
30008008:	01078593          	addi	a1,a5,16 # 3000010 <_ebss-0xfffff0>
3000800c:	300197b7          	lui	a5,0x30019
30008010:	73c78513          	addi	a0,a5,1852 # 3001973c <img+0x10830>
30008014:	b3cf90ef          	jal	30001350 <printf>
30008018:	030007b7          	lui	a5,0x3000
3000801c:	01878593          	addi	a1,a5,24 # 3000018 <_ebss-0xffffe8>
30008020:	300197b7          	lui	a5,0x30019
30008024:	76c78513          	addi	a0,a5,1900 # 3001976c <img+0x10860>
30008028:	b28f90ef          	jal	30001350 <printf>
3000802c:	030007b7          	lui	a5,0x3000
30008030:	03478593          	addi	a1,a5,52 # 3000034 <_ebss-0xffffcc>
30008034:	300197b7          	lui	a5,0x30019
30008038:	79c78513          	addi	a0,a5,1948 # 3001979c <img+0x10890>
3000803c:	b14f90ef          	jal	30001350 <printf>
30008040:	030007b7          	lui	a5,0x3000
30008044:	06878613          	addi	a2,a5,104 # 3000068 <_ebss-0xffff98>
30008048:	030007b7          	lui	a5,0x3000
3000804c:	05c78593          	addi	a1,a5,92 # 300005c <_ebss-0xffffa4>
30008050:	300197b7          	lui	a5,0x30019
30008054:	7cc78513          	addi	a0,a5,1996 # 300197cc <img+0x108c0>
30008058:	af8f90ef          	jal	30001350 <printf>
3000805c:	030015b7          	lui	a1,0x3001
30008060:	3001a7b7          	lui	a5,0x3001a
30008064:	80478513          	addi	a0,a5,-2044 # 30019804 <img+0x108f8>
30008068:	ae8f90ef          	jal	30001350 <printf>
3000806c:	030025b7          	lui	a1,0x3002
30008070:	3001a7b7          	lui	a5,0x3001a
30008074:	83478513          	addi	a0,a5,-1996 # 30019834 <img+0x10928>
30008078:	ad8f90ef          	jal	30001350 <printf>
3000807c:	030035b7          	lui	a1,0x3003
30008080:	3001a7b7          	lui	a5,0x3001a
30008084:	86478513          	addi	a0,a5,-1948 # 30019864 <img+0x10958>
30008088:	ac8f90ef          	jal	30001350 <printf>
3000808c:	030045b7          	lui	a1,0x3004
30008090:	3001a7b7          	lui	a5,0x3001a
30008094:	89478513          	addi	a0,a5,-1900 # 30019894 <img+0x10988>
30008098:	ab8f90ef          	jal	30001350 <printf>
3000809c:	030055b7          	lui	a1,0x3005
300080a0:	3001a7b7          	lui	a5,0x3001a
300080a4:	8c478513          	addi	a0,a5,-1852 # 300198c4 <img+0x109b8>
300080a8:	aa8f90ef          	jal	30001350 <printf>
300080ac:	030065b7          	lui	a1,0x3006
300080b0:	3001a7b7          	lui	a5,0x3001a
300080b4:	8f478513          	addi	a0,a5,-1804 # 300198f4 <img+0x109e8>
300080b8:	a98f90ef          	jal	30001350 <printf>
300080bc:	030075b7          	lui	a1,0x3007
300080c0:	3001a7b7          	lui	a5,0x3001a
300080c4:	92478513          	addi	a0,a5,-1756 # 30019924 <img+0x10a18>
300080c8:	a88f90ef          	jal	30001350 <printf>
300080cc:	030007b7          	lui	a5,0x3000
300080d0:	08078593          	addi	a1,a5,128 # 3000080 <_ebss-0xffff80>
300080d4:	3001a7b7          	lui	a5,0x3001a
300080d8:	95478513          	addi	a0,a5,-1708 # 30019954 <img+0x10a48>
300080dc:	a74f90ef          	jal	30001350 <printf>
300080e0:	3001a7b7          	lui	a5,0x3001a
300080e4:	98478513          	addi	a0,a5,-1660 # 30019984 <img+0x10a78>
300080e8:	a68f90ef          	jal	30001350 <printf>
300080ec:	00000013          	nop
300080f0:	00c12083          	lw	ra,12(sp)
300080f4:	00812403          	lw	s0,8(sp)
300080f8:	01010113          	addi	sp,sp,16
300080fc:	00008067          	ret

30008100 <app_system_boot>:
30008100:	fb010113          	addi	sp,sp,-80
30008104:	04112623          	sw	ra,76(sp)
30008108:	04812423          	sw	s0,72(sp)
3000810c:	05010413          	addi	s0,sp,80
30008110:	ce1ff0ef          	jal	30007df0 <welcome_screen>
30008114:	3001a7b7          	lui	a5,0x3001a
30008118:	9b878513          	addi	a0,a5,-1608 # 300199b8 <img+0x10aac>
3000811c:	a34f90ef          	jal	30001350 <printf>
30008120:	00100793          	li	a5,1
30008124:	fef407a3          	sb	a5,-17(s0)
30008128:	08500593          	li	a1,133
3000812c:	3001a7b7          	lui	a5,0x3001a
30008130:	9cc78513          	addi	a0,a5,-1588 # 300199cc <img+0x10ac0>
30008134:	a1cf90ef          	jal	30001350 <printf>
30008138:	3001a7b7          	lui	a5,0x3001a
3000813c:	9fc78513          	addi	a0,a5,-1540 # 300199fc <img+0x10af0>
30008140:	a10f90ef          	jal	30001350 <printf>
30008144:	3001a7b7          	lui	a5,0x3001a
30008148:	a1878513          	addi	a0,a5,-1512 # 30019a18 <img+0x10b0c>
3000814c:	a04f90ef          	jal	30001350 <printf>
30008150:	3001a7b7          	lui	a5,0x3001a
30008154:	a3878513          	addi	a0,a5,-1480 # 30019a38 <img+0x10b2c>
30008158:	9f8f90ef          	jal	30001350 <printf>
3000815c:	02400593          	li	a1,36
30008160:	3001a7b7          	lui	a5,0x3001a
30008164:	a5878513          	addi	a0,a5,-1448 # 30019a58 <img+0x10b4c>
30008168:	9e8f90ef          	jal	30001350 <printf>
3000816c:	fe042423          	sw	zero,-24(s0)
30008170:	fe042223          	sw	zero,-28(s0)
30008174:	3001a7b7          	lui	a5,0x3001a
30008178:	cf078793          	addi	a5,a5,-784 # 30019cf0 <img+0x10de4>
3000817c:	0007a583          	lw	a1,0(a5)
30008180:	0047a603          	lw	a2,4(a5)
30008184:	0087a683          	lw	a3,8(a5)
30008188:	00c7a703          	lw	a4,12(a5)
3000818c:	fcb42823          	sw	a1,-48(s0)
30008190:	fcc42a23          	sw	a2,-44(s0)
30008194:	fcd42c23          	sw	a3,-40(s0)
30008198:	fce42e23          	sw	a4,-36(s0)
3000819c:	0107d783          	lhu	a5,16(a5)
300081a0:	fef41023          	sh	a5,-32(s0)
300081a4:	fe041123          	sh	zero,-30(s0)
300081a8:	3001a7b7          	lui	a5,0x3001a
300081ac:	d0478793          	addi	a5,a5,-764 # 30019d04 <img+0x10df8>
300081b0:	0007a583          	lw	a1,0(a5)
300081b4:	0047a603          	lw	a2,4(a5)
300081b8:	0087a683          	lw	a3,8(a5)
300081bc:	00c7a703          	lw	a4,12(a5)
300081c0:	fab42e23          	sw	a1,-68(s0)
300081c4:	fcc42023          	sw	a2,-64(s0)
300081c8:	fcd42223          	sw	a3,-60(s0)
300081cc:	fce42423          	sw	a4,-56(s0)
300081d0:	0107d783          	lhu	a5,16(a5)
300081d4:	fcf41623          	sh	a5,-52(s0)
300081d8:	fc041723          	sh	zero,-50(s0)
300081dc:	030007b7          	lui	a5,0x3000
300081e0:	08078793          	addi	a5,a5,128 # 3000080 <_ebss-0xffff80>
300081e4:	0007a783          	lw	a5,0(a5)
300081e8:	00078593          	mv	a1,a5
300081ec:	3001a7b7          	lui	a5,0x3001a
300081f0:	a7478513          	addi	a0,a5,-1420 # 30019a74 <img+0x10b68>
300081f4:	95cf90ef          	jal	30001350 <printf>
300081f8:	030007b7          	lui	a5,0x3000
300081fc:	08478793          	addi	a5,a5,132 # 3000084 <_ebss-0xffff7c>
30008200:	0007a783          	lw	a5,0(a5)
30008204:	00078593          	mv	a1,a5
30008208:	3001a7b7          	lui	a5,0x3001a
3000820c:	a9c78513          	addi	a0,a5,-1380 # 30019a9c <img+0x10b90>
30008210:	940f90ef          	jal	30001350 <printf>
30008214:	3001a7b7          	lui	a5,0x3001a
30008218:	ac478513          	addi	a0,a5,-1340 # 30019ac4 <img+0x10bb8>
3000821c:	934f90ef          	jal	30001350 <printf>
30008220:	00700793          	li	a5,7
30008224:	fef42423          	sw	a5,-24(s0)
30008228:	01b00793          	li	a5,27
3000822c:	fef42223          	sw	a5,-28(s0)
30008230:	fe842583          	lw	a1,-24(s0)
30008234:	3001a7b7          	lui	a5,0x3001a
30008238:	adc78513          	addi	a0,a5,-1316 # 30019adc <img+0x10bd0>
3000823c:	914f90ef          	jal	30001350 <printf>
30008240:	fe442583          	lw	a1,-28(s0)
30008244:	3001a7b7          	lui	a5,0x3001a
30008248:	afc78513          	addi	a0,a5,-1284 # 30019afc <img+0x10bf0>
3000824c:	904f90ef          	jal	30001350 <printf>
30008250:	fef44783          	lbu	a5,-17(s0)
30008254:	fe442683          	lw	a3,-28(s0)
30008258:	fe842703          	lw	a4,-24(s0)
3000825c:	00e6b733          	sltu	a4,a3,a4
30008260:	00173713          	seqz	a4,a4
30008264:	0ff77713          	zext.b	a4,a4
30008268:	00e7f7b3          	and	a5,a5,a4
3000826c:	fef407a3          	sb	a5,-17(s0)
30008270:	fef44783          	lbu	a5,-17(s0)
30008274:	0017f793          	andi	a5,a5,1
30008278:	fef407a3          	sb	a5,-17(s0)
3000827c:	fef44783          	lbu	a5,-17(s0)
30008280:	00078663          	beqz	a5,3000828c <app_system_boot+0x18c>
30008284:	fd040793          	addi	a5,s0,-48
30008288:	0080006f          	j	30008290 <app_system_boot+0x190>
3000828c:	fbc40793          	addi	a5,s0,-68
30008290:	00078593          	mv	a1,a5
30008294:	3001a7b7          	lui	a5,0x3001a
30008298:	b1878513          	addi	a0,a5,-1256 # 30019b18 <img+0x10c0c>
3000829c:	8b4f90ef          	jal	30001350 <printf>
300082a0:	3001a7b7          	lui	a5,0x3001a
300082a4:	b1c78513          	addi	a0,a5,-1252 # 30019b1c <img+0x10c10>
300082a8:	8a8f90ef          	jal	30001350 <printf>
300082ac:	3001a7b7          	lui	a5,0x3001a
300082b0:	b4878513          	addi	a0,a5,-1208 # 30019b48 <img+0x10c3c>
300082b4:	89cf90ef          	jal	30001350 <printf>
300082b8:	fd040793          	addi	a5,s0,-48
300082bc:	00078593          	mv	a1,a5
300082c0:	3001a7b7          	lui	a5,0x3001a
300082c4:	b1878513          	addi	a0,a5,-1256 # 30019b18 <img+0x10c0c>
300082c8:	888f90ef          	jal	30001350 <printf>
300082cc:	3001a7b7          	lui	a5,0x3001a
300082d0:	b7078513          	addi	a0,a5,-1168 # 30019b70 <img+0x10c64>
300082d4:	87cf90ef          	jal	30001350 <printf>
300082d8:	3001a7b7          	lui	a5,0x3001a
300082dc:	b9078513          	addi	a0,a5,-1136 # 30019b90 <img+0x10c84>
300082e0:	870f90ef          	jal	30001350 <printf>
300082e4:	fd040793          	addi	a5,s0,-48
300082e8:	00078593          	mv	a1,a5
300082ec:	3001a7b7          	lui	a5,0x3001a
300082f0:	b1878513          	addi	a0,a5,-1256 # 30019b18 <img+0x10c0c>
300082f4:	85cf90ef          	jal	30001350 <printf>
300082f8:	03200793          	li	a5,50
300082fc:	fef42423          	sw	a5,-24(s0)
30008300:	030007b7          	lui	a5,0x3000
30008304:	08078793          	addi	a5,a5,128 # 3000080 <_ebss-0xffff80>
30008308:	0007a783          	lw	a5,0(a5)
3000830c:	0017d713          	srli	a4,a5,0x1
30008310:	00070793          	mv	a5,a4
30008314:	00379793          	slli	a5,a5,0x3
30008318:	40e787b3          	sub	a5,a5,a4
3000831c:	00279793          	slli	a5,a5,0x2
30008320:	40e787b3          	sub	a5,a5,a4
30008324:	fef42223          	sw	a5,-28(s0)
30008328:	fe842583          	lw	a1,-24(s0)
3000832c:	3001a7b7          	lui	a5,0x3001a
30008330:	bac78513          	addi	a0,a5,-1108 # 30019bac <img+0x10ca0>
30008334:	81cf90ef          	jal	30001350 <printf>
30008338:	fe442583          	lw	a1,-28(s0)
3000833c:	3001a7b7          	lui	a5,0x3001a
30008340:	afc78513          	addi	a0,a5,-1284 # 30019afc <img+0x10bf0>
30008344:	80cf90ef          	jal	30001350 <printf>
30008348:	fef44783          	lbu	a5,-17(s0)
3000834c:	fe442683          	lw	a3,-28(s0)
30008350:	fe842703          	lw	a4,-24(s0)
30008354:	00e6b733          	sltu	a4,a3,a4
30008358:	00173713          	seqz	a4,a4
3000835c:	0ff77713          	zext.b	a4,a4
30008360:	00e7f7b3          	and	a5,a5,a4
30008364:	fef407a3          	sb	a5,-17(s0)
30008368:	fef44783          	lbu	a5,-17(s0)
3000836c:	0017f793          	andi	a5,a5,1
30008370:	fef407a3          	sb	a5,-17(s0)
30008374:	fef44783          	lbu	a5,-17(s0)
30008378:	00078663          	beqz	a5,30008384 <app_system_boot+0x284>
3000837c:	fd040793          	addi	a5,s0,-48
30008380:	0080006f          	j	30008388 <app_system_boot+0x288>
30008384:	fbc40793          	addi	a5,s0,-68
30008388:	00078593          	mv	a1,a5
3000838c:	3001a7b7          	lui	a5,0x3001a
30008390:	b1878513          	addi	a0,a5,-1256 # 30019b18 <img+0x10c0c>
30008394:	fbdf80ef          	jal	30001350 <printf>
30008398:	00800793          	li	a5,8
3000839c:	fef42423          	sw	a5,-24(s0)
300083a0:	fe042223          	sw	zero,-28(s0)
300083a4:	fe842583          	lw	a1,-24(s0)
300083a8:	3001a7b7          	lui	a5,0x3001a
300083ac:	bcc78513          	addi	a0,a5,-1076 # 30019bcc <img+0x10cc0>
300083b0:	fa1f80ef          	jal	30001350 <printf>
300083b4:	fe442583          	lw	a1,-28(s0)
300083b8:	3001a7b7          	lui	a5,0x3001a
300083bc:	bec78513          	addi	a0,a5,-1044 # 30019bec <img+0x10ce0>
300083c0:	f91f80ef          	jal	30001350 <printf>
300083c4:	fef44783          	lbu	a5,-17(s0)
300083c8:	fe442683          	lw	a3,-28(s0)
300083cc:	fe842703          	lw	a4,-24(s0)
300083d0:	00d73733          	sltu	a4,a4,a3
300083d4:	00173713          	seqz	a4,a4
300083d8:	0ff77713          	zext.b	a4,a4
300083dc:	00e7f7b3          	and	a5,a5,a4
300083e0:	fef407a3          	sb	a5,-17(s0)
300083e4:	fef44783          	lbu	a5,-17(s0)
300083e8:	0017f793          	andi	a5,a5,1
300083ec:	fef407a3          	sb	a5,-17(s0)
300083f0:	fef44783          	lbu	a5,-17(s0)
300083f4:	00078663          	beqz	a5,30008400 <app_system_boot+0x300>
300083f8:	fd040793          	addi	a5,s0,-48
300083fc:	0080006f          	j	30008404 <app_system_boot+0x304>
30008400:	fbc40793          	addi	a5,s0,-68
30008404:	00078593          	mv	a1,a5
30008408:	3001a7b7          	lui	a5,0x3001a
3000840c:	b1878513          	addi	a0,a5,-1256 # 30019b18 <img+0x10c0c>
30008410:	f41f80ef          	jal	30001350 <printf>
30008414:	00200793          	li	a5,2
30008418:	fef42423          	sw	a5,-24(s0)
3000841c:	00d00793          	li	a5,13
30008420:	fef42223          	sw	a5,-28(s0)
30008424:	fe842583          	lw	a1,-24(s0)
30008428:	3001a7b7          	lui	a5,0x3001a
3000842c:	c0878513          	addi	a0,a5,-1016 # 30019c08 <img+0x10cfc>
30008430:	f21f80ef          	jal	30001350 <printf>
30008434:	fe442583          	lw	a1,-28(s0)
30008438:	3001a7b7          	lui	a5,0x3001a
3000843c:	afc78513          	addi	a0,a5,-1284 # 30019afc <img+0x10bf0>
30008440:	f11f80ef          	jal	30001350 <printf>
30008444:	fef44783          	lbu	a5,-17(s0)
30008448:	fe442683          	lw	a3,-28(s0)
3000844c:	fe842703          	lw	a4,-24(s0)
30008450:	00e6b733          	sltu	a4,a3,a4
30008454:	00173713          	seqz	a4,a4
30008458:	0ff77713          	zext.b	a4,a4
3000845c:	00e7f7b3          	and	a5,a5,a4
30008460:	fef407a3          	sb	a5,-17(s0)
30008464:	fef44783          	lbu	a5,-17(s0)
30008468:	0017f793          	andi	a5,a5,1
3000846c:	fef407a3          	sb	a5,-17(s0)
30008470:	fef44783          	lbu	a5,-17(s0)
30008474:	00078663          	beqz	a5,30008480 <app_system_boot+0x380>
30008478:	fd040793          	addi	a5,s0,-48
3000847c:	0080006f          	j	30008484 <app_system_boot+0x384>
30008480:	fbc40793          	addi	a5,s0,-68
30008484:	00078593          	mv	a1,a5
30008488:	3001a7b7          	lui	a5,0x3001a
3000848c:	b1878513          	addi	a0,a5,-1256 # 30019b18 <img+0x10c0c>
30008490:	ec1f80ef          	jal	30001350 <printf>
30008494:	01400793          	li	a5,20
30008498:	fef42423          	sw	a5,-24(s0)
3000849c:	030007b7          	lui	a5,0x3000
300084a0:	08478793          	addi	a5,a5,132 # 3000084 <_ebss-0xffff7c>
300084a4:	0007a783          	lw	a5,0(a5)
300084a8:	0017d793          	srli	a5,a5,0x1
300084ac:	00178713          	addi	a4,a5,1
300084b0:	00070793          	mv	a5,a4
300084b4:	00379793          	slli	a5,a5,0x3
300084b8:	40e787b3          	sub	a5,a5,a4
300084bc:	00279793          	slli	a5,a5,0x2
300084c0:	40e787b3          	sub	a5,a5,a4
300084c4:	fef42223          	sw	a5,-28(s0)
300084c8:	fe842583          	lw	a1,-24(s0)
300084cc:	3001a7b7          	lui	a5,0x3001a
300084d0:	c2878513          	addi	a0,a5,-984 # 30019c28 <img+0x10d1c>
300084d4:	e7df80ef          	jal	30001350 <printf>
300084d8:	fe442583          	lw	a1,-28(s0)
300084dc:	3001a7b7          	lui	a5,0x3001a
300084e0:	afc78513          	addi	a0,a5,-1284 # 30019afc <img+0x10bf0>
300084e4:	e6df80ef          	jal	30001350 <printf>
300084e8:	fef44783          	lbu	a5,-17(s0)
300084ec:	fe442683          	lw	a3,-28(s0)
300084f0:	fe842703          	lw	a4,-24(s0)
300084f4:	00e6b733          	sltu	a4,a3,a4
300084f8:	00173713          	seqz	a4,a4
300084fc:	0ff77713          	zext.b	a4,a4
30008500:	00e7f7b3          	and	a5,a5,a4
30008504:	fef407a3          	sb	a5,-17(s0)
30008508:	fef44783          	lbu	a5,-17(s0)
3000850c:	0017f793          	andi	a5,a5,1
30008510:	fef407a3          	sb	a5,-17(s0)
30008514:	fef44783          	lbu	a5,-17(s0)
30008518:	00078663          	beqz	a5,30008524 <app_system_boot+0x424>
3000851c:	fd040793          	addi	a5,s0,-48
30008520:	0080006f          	j	30008528 <app_system_boot+0x428>
30008524:	fbc40793          	addi	a5,s0,-68
30008528:	00078593          	mv	a1,a5
3000852c:	3001a7b7          	lui	a5,0x3001a
30008530:	b1878513          	addi	a0,a5,-1256 # 30019b18 <img+0x10c0c>
30008534:	e1df80ef          	jal	30001350 <printf>
30008538:	00200793          	li	a5,2
3000853c:	fef42423          	sw	a5,-24(s0)
30008540:	00d00793          	li	a5,13
30008544:	fef42223          	sw	a5,-28(s0)
30008548:	fe842583          	lw	a1,-24(s0)
3000854c:	3001a7b7          	lui	a5,0x3001a
30008550:	c4878513          	addi	a0,a5,-952 # 30019c48 <img+0x10d3c>
30008554:	dfdf80ef          	jal	30001350 <printf>
30008558:	fe442583          	lw	a1,-28(s0)
3000855c:	3001a7b7          	lui	a5,0x3001a
30008560:	afc78513          	addi	a0,a5,-1284 # 30019afc <img+0x10bf0>
30008564:	dedf80ef          	jal	30001350 <printf>
30008568:	fef44783          	lbu	a5,-17(s0)
3000856c:	fe442683          	lw	a3,-28(s0)
30008570:	fe842703          	lw	a4,-24(s0)
30008574:	00e6b733          	sltu	a4,a3,a4
30008578:	00173713          	seqz	a4,a4
3000857c:	0ff77713          	zext.b	a4,a4
30008580:	00e7f7b3          	and	a5,a5,a4
30008584:	fef407a3          	sb	a5,-17(s0)
30008588:	fef44783          	lbu	a5,-17(s0)
3000858c:	0017f793          	andi	a5,a5,1
30008590:	fef407a3          	sb	a5,-17(s0)
30008594:	fef44783          	lbu	a5,-17(s0)
30008598:	00078663          	beqz	a5,300085a4 <app_system_boot+0x4a4>
3000859c:	fd040793          	addi	a5,s0,-48
300085a0:	0080006f          	j	300085a8 <app_system_boot+0x4a8>
300085a4:	fbc40793          	addi	a5,s0,-68
300085a8:	00078593          	mv	a1,a5
300085ac:	3001a7b7          	lui	a5,0x3001a
300085b0:	b1878513          	addi	a0,a5,-1256 # 30019b18 <img+0x10c0c>
300085b4:	d9df80ef          	jal	30001350 <printf>
300085b8:	fef44783          	lbu	a5,-17(s0)
300085bc:	0017c793          	xori	a5,a5,1
300085c0:	0ff7f793          	zext.b	a5,a5
300085c4:	00078a63          	beqz	a5,300085d8 <app_system_boot+0x4d8>
300085c8:	3001a7b7          	lui	a5,0x3001a
300085cc:	c6878513          	addi	a0,a5,-920 # 30019c68 <img+0x10d5c>
300085d0:	d81f80ef          	jal	30001350 <printf>
300085d4:	0000006f          	j	300085d4 <app_system_boot+0x4d4>
300085d8:	030007b7          	lui	a5,0x3000
300085dc:	08078793          	addi	a5,a5,128 # 3000080 <_ebss-0xffff80>
300085e0:	00800713          	li	a4,8
300085e4:	00e7a023          	sw	a4,0(a5)
300085e8:	030007b7          	lui	a5,0x3000
300085ec:	08078793          	addi	a5,a5,128 # 3000080 <_ebss-0xffff80>
300085f0:	0007a783          	lw	a5,0(a5)
300085f4:	00078593          	mv	a1,a5
300085f8:	3001a7b7          	lui	a5,0x3001a
300085fc:	c8478513          	addi	a0,a5,-892 # 30019c84 <img+0x10d78>
30008600:	d51f80ef          	jal	30001350 <printf>
30008604:	030007b7          	lui	a5,0x3000
30008608:	08478793          	addi	a5,a5,132 # 3000084 <_ebss-0xffff7c>
3000860c:	0007a023          	sw	zero,0(a5)
30008610:	030007b7          	lui	a5,0x3000
30008614:	08478793          	addi	a5,a5,132 # 3000084 <_ebss-0xffff7c>
30008618:	0007a783          	lw	a5,0(a5)
3000861c:	00078593          	mv	a1,a5
30008620:	3001a7b7          	lui	a5,0x3001a
30008624:	ca478513          	addi	a0,a5,-860 # 30019ca4 <img+0x10d98>
30008628:	d29f80ef          	jal	30001350 <printf>
3000862c:	3001a7b7          	lui	a5,0x3001a
30008630:	cc478513          	addi	a0,a5,-828 # 30019cc4 <img+0x10db8>
30008634:	d1df80ef          	jal	30001350 <printf>
30008638:	3001a7b7          	lui	a5,0x3001a
3000863c:	cdc78513          	addi	a0,a5,-804 # 30019cdc <img+0x10dd0>
30008640:	d11f80ef          	jal	30001350 <printf>
30008644:	00000013          	nop
30008648:	04c12083          	lw	ra,76(sp)
3000864c:	04812403          	lw	s0,72(sp)
30008650:	05010113          	addi	sp,sp,80
30008654:	00008067          	ret

30008658 <main>:
30008658:	ff010113          	addi	sp,sp,-16
3000865c:	00112623          	sw	ra,12(sp)
30008660:	00812423          	sw	s0,8(sp)
30008664:	01010413          	addi	s0,sp,16
30008668:	030007b7          	lui	a5,0x3000
3000866c:	01078793          	addi	a5,a5,16 # 3000010 <_ebss-0xfffff0>
30008670:	27100713          	li	a4,625
30008674:	00e7a023          	sw	a4,0(a5)
30008678:	a89ff0ef          	jal	30008100 <app_system_boot>
3000867c:	a2df90ef          	jal	300020a8 <ip_tim_test>
30008680:	e84f90ef          	jal	30001d04 <ip_gpio_test>
30008684:	891f90ef          	jal	30001f14 <ip_hk_spi_test>
30008688:	bd1f90ef          	jal	30002258 <ip_archinfo_test>
3000868c:	c4df90ef          	jal	300022d8 <ip_rng_test>
30008690:	d49f90ef          	jal	300023d8 <ip_hpuart_test>
30008694:	ea5f90ef          	jal	30002538 <ip_pwm_test>
30008698:	830fa0ef          	jal	300026c8 <ip_ps2_test>
3000869c:	985fa0ef          	jal	30003020 <ip_i2c_test>
300086a0:	ccdfe0ef          	jal	3000736c <ip_lcd_test>
300086a4:	00000593          	li	a1,0
300086a8:	00100513          	li	a0,1
300086ac:	a20ff0ef          	jal	300078cc <tinybench>
300086b0:	d5cff0ef          	jal	30007c0c <tinysh>
300086b4:	00000013          	nop
300086b8:	00c12083          	lw	ra,12(sp)
300086bc:	00812403          	lw	s0,8(sp)
300086c0:	01010113          	addi	sp,sp,16
300086c4:	00008067          	ret
300086c8:	3130                	.insn	2, 0x3130
300086ca:	3332                	.insn	2, 0x3332
300086cc:	3534                	.insn	2, 0x3534
300086ce:	3736                	.insn	2, 0x3736
300086d0:	3938                	.insn	2, 0x3938
300086d2:	6261                	.insn	2, 0x6261
300086d4:	66656463          	bltu	a0,t1,30008d3c <main+0x6e4>
300086d8:	0000                	.insn	2, 0x0000
300086da:	0000                	.insn	2, 0x0000
300086dc:	6e28                	.insn	2, 0x6e28
300086de:	6c69                	.insn	2, 0x6c69
300086e0:	0029                	.insn	2, 0x0029
300086e2:	0000                	.insn	2, 0x0000
300086e4:	7830                	.insn	2, 0x7830
300086e6:	0000                	.insn	2, 0x0000
300086e8:	0c1c                	.insn	2, 0x0c1c
300086ea:	3000                	.insn	2, 0x3000
300086ec:	1314                	.insn	2, 0x1314
300086ee:	3000                	.insn	2, 0x3000
300086f0:	1314                	.insn	2, 0x1314
300086f2:	3000                	.insn	2, 0x3000
300086f4:	12e8                	.insn	2, 0x12e8
300086f6:	3000                	.insn	2, 0x3000
300086f8:	1314                	.insn	2, 0x1314
300086fa:	3000                	.insn	2, 0x3000
300086fc:	12d0                	.insn	2, 0x12d0
300086fe:	3000                	.insn	2, 0x3000
30008700:	1314                	.insn	2, 0x1314
30008702:	3000                	.insn	2, 0x3000
30008704:	1314                	.insn	2, 0x1314
30008706:	3000                	.insn	2, 0x3000
30008708:	1314                	.insn	2, 0x1314
3000870a:	3000                	.insn	2, 0x3000
3000870c:	1314                	.insn	2, 0x1314
3000870e:	3000                	.insn	2, 0x3000
30008710:	1314                	.insn	2, 0x1314
30008712:	3000                	.insn	2, 0x3000
30008714:	0c44                	.insn	2, 0x0c44
30008716:	3000                	.insn	2, 0x3000
30008718:	1314                	.insn	2, 0x1314
3000871a:	3000                	.insn	2, 0x3000
3000871c:	0bf4                	.insn	2, 0x0bf4
3000871e:	3000                	.insn	2, 0x3000
30008720:	0d00                	.insn	2, 0x0d00
30008722:	3000                	.insn	2, 0x3000
30008724:	1314                	.insn	2, 0x1314
30008726:	3000                	.insn	2, 0x3000
30008728:	0c08                	.insn	2, 0x0c08
3000872a:	3000                	.insn	2, 0x3000
3000872c:	0c58                	.insn	2, 0x0c58
3000872e:	3000                	.insn	2, 0x3000
30008730:	0c58                	.insn	2, 0x0c58
30008732:	3000                	.insn	2, 0x3000
30008734:	0c58                	.insn	2, 0x0c58
30008736:	3000                	.insn	2, 0x3000
30008738:	0c58                	.insn	2, 0x0c58
3000873a:	3000                	.insn	2, 0x3000
3000873c:	0c58                	.insn	2, 0x0c58
3000873e:	3000                	.insn	2, 0x3000
30008740:	0c58                	.insn	2, 0x0c58
30008742:	3000                	.insn	2, 0x3000
30008744:	0c58                	.insn	2, 0x0c58
30008746:	3000                	.insn	2, 0x3000
30008748:	0c58                	.insn	2, 0x0c58
3000874a:	3000                	.insn	2, 0x3000
3000874c:	0c58                	.insn	2, 0x0c58
3000874e:	3000                	.insn	2, 0x3000
30008750:	1314                	.insn	2, 0x1314
30008752:	3000                	.insn	2, 0x3000
30008754:	1314                	.insn	2, 0x1314
30008756:	3000                	.insn	2, 0x3000
30008758:	1314                	.insn	2, 0x1314
3000875a:	3000                	.insn	2, 0x3000
3000875c:	1314                	.insn	2, 0x1314
3000875e:	3000                	.insn	2, 0x3000
30008760:	1314                	.insn	2, 0x1314
30008762:	3000                	.insn	2, 0x3000
30008764:	1314                	.insn	2, 0x1314
30008766:	3000                	.insn	2, 0x3000
30008768:	1314                	.insn	2, 0x1314
3000876a:	3000                	.insn	2, 0x3000
3000876c:	1314                	.insn	2, 0x1314
3000876e:	3000                	.insn	2, 0x3000
30008770:	1314                	.insn	2, 0x1314
30008772:	3000                	.insn	2, 0x3000
30008774:	1314                	.insn	2, 0x1314
30008776:	3000                	.insn	2, 0x3000
30008778:	1314                	.insn	2, 0x1314
3000877a:	3000                	.insn	2, 0x3000
3000877c:	1314                	.insn	2, 0x1314
3000877e:	3000                	.insn	2, 0x3000
30008780:	1314                	.insn	2, 0x1314
30008782:	3000                	.insn	2, 0x3000
30008784:	1314                	.insn	2, 0x1314
30008786:	3000                	.insn	2, 0x3000
30008788:	1314                	.insn	2, 0x1314
3000878a:	3000                	.insn	2, 0x3000
3000878c:	1314                	.insn	2, 0x1314
3000878e:	3000                	.insn	2, 0x3000
30008790:	1314                	.insn	2, 0x1314
30008792:	3000                	.insn	2, 0x3000
30008794:	1314                	.insn	2, 0x1314
30008796:	3000                	.insn	2, 0x3000
30008798:	1314                	.insn	2, 0x1314
3000879a:	3000                	.insn	2, 0x3000
3000879c:	1314                	.insn	2, 0x1314
3000879e:	3000                	.insn	2, 0x3000
300087a0:	1314                	.insn	2, 0x1314
300087a2:	3000                	.insn	2, 0x3000
300087a4:	1314                	.insn	2, 0x1314
300087a6:	3000                	.insn	2, 0x3000
300087a8:	1314                	.insn	2, 0x1314
300087aa:	3000                	.insn	2, 0x3000
300087ac:	1314                	.insn	2, 0x1314
300087ae:	3000                	.insn	2, 0x3000
300087b0:	1314                	.insn	2, 0x1314
300087b2:	3000                	.insn	2, 0x3000
300087b4:	1314                	.insn	2, 0x1314
300087b6:	3000                	.insn	2, 0x3000
300087b8:	1314                	.insn	2, 0x1314
300087ba:	3000                	.insn	2, 0x3000
300087bc:	1314                	.insn	2, 0x1314
300087be:	3000                	.insn	2, 0x3000
300087c0:	1314                	.insn	2, 0x1314
300087c2:	3000                	.insn	2, 0x3000
300087c4:	1314                	.insn	2, 0x1314
300087c6:	3000                	.insn	2, 0x3000
300087c8:	0dbc                	.insn	2, 0x0dbc
300087ca:	3000                	.insn	2, 0x3000
300087cc:	1314                	.insn	2, 0x1314
300087ce:	3000                	.insn	2, 0x3000
300087d0:	1314                	.insn	2, 0x1314
300087d2:	3000                	.insn	2, 0x3000
300087d4:	1314                	.insn	2, 0x1314
300087d6:	3000                	.insn	2, 0x3000
300087d8:	1314                	.insn	2, 0x1314
300087da:	3000                	.insn	2, 0x3000
300087dc:	1314                	.insn	2, 0x1314
300087de:	3000                	.insn	2, 0x3000
300087e0:	1314                	.insn	2, 0x1314
300087e2:	3000                	.insn	2, 0x3000
300087e4:	1314                	.insn	2, 0x1314
300087e6:	3000                	.insn	2, 0x3000
300087e8:	1314                	.insn	2, 0x1314
300087ea:	3000                	.insn	2, 0x3000
300087ec:	1314                	.insn	2, 0x1314
300087ee:	3000                	.insn	2, 0x3000
300087f0:	1314                	.insn	2, 0x1314
300087f2:	3000                	.insn	2, 0x3000
300087f4:	11f4                	.insn	2, 0x11f4
300087f6:	3000                	.insn	2, 0x3000
300087f8:	0da8                	.insn	2, 0x0da8
300087fa:	3000                	.insn	2, 0x3000
300087fc:	1314                	.insn	2, 0x1314
300087fe:	3000                	.insn	2, 0x3000
30008800:	1314                	.insn	2, 0x1314
30008802:	3000                	.insn	2, 0x3000
30008804:	1314                	.insn	2, 0x1314
30008806:	3000                	.insn	2, 0x3000
30008808:	0d38                	.insn	2, 0x0d38
3000880a:	3000                	.insn	2, 0x3000
3000880c:	0da8                	.insn	2, 0x0da8
3000880e:	3000                	.insn	2, 0x3000
30008810:	1314                	.insn	2, 0x1314
30008812:	3000                	.insn	2, 0x3000
30008814:	1314                	.insn	2, 0x1314
30008816:	3000                	.insn	2, 0x3000
30008818:	0d70                	.insn	2, 0x0d70
3000881a:	3000                	.insn	2, 0x3000
3000881c:	1314                	.insn	2, 0x1314
3000881e:	3000                	.insn	2, 0x3000
30008820:	1314                	.insn	2, 0x1314
30008822:	3000                	.insn	2, 0x3000
30008824:	0dc8                	.insn	2, 0x0dc8
30008826:	3000                	.insn	2, 0x3000
30008828:	1194                	.insn	2, 0x1194
3000882a:	3000                	.insn	2, 0x3000
3000882c:	1314                	.insn	2, 0x1314
3000882e:	3000                	.insn	2, 0x3000
30008830:	1314                	.insn	2, 0x1314
30008832:	3000                	.insn	2, 0x3000
30008834:	1220                	.insn	2, 0x1220
30008836:	3000                	.insn	2, 0x3000
30008838:	1314                	.insn	2, 0x1314
3000883a:	3000                	.insn	2, 0x3000
3000883c:	0db0                	.insn	2, 0x0db0
3000883e:	3000                	.insn	2, 0x3000
30008840:	1314                	.insn	2, 0x1314
30008842:	3000                	.insn	2, 0x3000
30008844:	1314                	.insn	2, 0x1314
30008846:	3000                	.insn	2, 0x3000
30008848:	0dbc                	.insn	2, 0x0dbc
3000884a:	3000                	.insn	2, 0x3000
3000884c:	0eb8                	.insn	2, 0x0eb8
3000884e:	3000                	.insn	2, 0x3000
30008850:	0dfc                	.insn	2, 0x0dfc
30008852:	3000                	.insn	2, 0x3000
30008854:	0e58                	.insn	2, 0x0e58
30008856:	3000                	.insn	2, 0x3000
30008858:	0f0c                	.insn	2, 0x0f0c
3000885a:	3000                	.insn	2, 0x3000
3000885c:	0f60                	.insn	2, 0x0f60
3000885e:	3000                	.insn	2, 0x3000
30008860:	2520                	.insn	2, 0x2520
30008862:	0078                	.insn	2, 0x0078
30008864:	000a                	.insn	2, 0x000a
30008866:	0000                	.insn	2, 0x0000
30008868:	20495053          	.insn	4, 0x20495053
3000886c:	74617453          	.insn	4, 0x74617453
30008870:	3a65                	.insn	2, 0x3a65
30008872:	2020                	.insn	2, 0x2020
30008874:	414c                	.insn	2, 0x414c
30008876:	4554                	.insn	2, 0x4554
30008878:	434e                	.insn	2, 0x434e
3000887a:	2059                	.insn	2, 0x2059
3000887c:	6425                	.insn	2, 0x6425
3000887e:	000a                	.insn	2, 0x000a
30008880:	2020                	.insn	2, 0x2020
30008882:	4444                	.insn	2, 0x4444
30008884:	2052                	.insn	2, 0x2052
30008886:	0000                	.insn	2, 0x0000
30008888:	000a4e4f          	.insn	4, 0x000a4e4f
3000888c:	0a46464f          	.insn	4, 0x0a46464f
30008890:	0000                	.insn	2, 0x0000
30008892:	0000                	.insn	2, 0x0000
30008894:	2020                	.insn	2, 0x2020
30008896:	5351                	.insn	2, 0x5351
30008898:	4950                	.insn	2, 0x4950
3000889a:	0020                	.insn	2, 0x0020
3000889c:	2020                	.insn	2, 0x2020
3000889e:	204d5243          	.insn	4, 0x204d5243
300088a2:	0000                	.insn	2, 0x0000
300088a4:	28203053          	.insn	4, 0x28203053
300088a8:	5542                	.insn	2, 0x5542
300088aa:	20295953          	.insn	4, 0x20295953
300088ae:	203a                	.insn	2, 0x203a
300088b0:	6425                	.insn	2, 0x6425
300088b2:	000a                	.insn	2, 0x000a
300088b4:	28203153          	.insn	4, 0x28203153
300088b8:	294c4557          	.insn	4, 0x294c4557
300088bc:	2020                	.insn	2, 0x2020
300088be:	203a                	.insn	2, 0x203a
300088c0:	6425                	.insn	2, 0x6425
300088c2:	000a                	.insn	2, 0x000a
300088c4:	28203253          	.insn	4, 0x28203253
300088c8:	5042                	.insn	2, 0x5042
300088ca:	2930                	.insn	2, 0x2930
300088cc:	2020                	.insn	2, 0x2020
300088ce:	203a                	.insn	2, 0x203a
300088d0:	6425                	.insn	2, 0x6425
300088d2:	000a                	.insn	2, 0x000a
300088d4:	28203353          	.insn	4, 0x28203353
300088d8:	5042                	.insn	2, 0x5042
300088da:	2931                	.insn	2, 0x2931
300088dc:	2020                	.insn	2, 0x2020
300088de:	203a                	.insn	2, 0x203a
300088e0:	6425                	.insn	2, 0x6425
300088e2:	000a                	.insn	2, 0x000a
300088e4:	28203453          	.insn	4, 0x28203453
300088e8:	5042                	.insn	2, 0x5042
300088ea:	2932                	.insn	2, 0x2932
300088ec:	2020                	.insn	2, 0x2020
300088ee:	203a                	.insn	2, 0x203a
300088f0:	6425                	.insn	2, 0x6425
300088f2:	000a                	.insn	2, 0x000a
300088f4:	28203553          	.insn	4, 0x28203553
300088f8:	4254                	.insn	2, 0x4254
300088fa:	2029                	.insn	2, 0x2029
300088fc:	2020                	.insn	2, 0x2020
300088fe:	203a                	.insn	2, 0x203a
30008900:	6425                	.insn	2, 0x6425
30008902:	000a                	.insn	2, 0x000a
30008904:	28203653          	.insn	4, 0x28203653
30008908:	29434553          	.insn	4, 0x29434553
3000890c:	2020                	.insn	2, 0x2020
3000890e:	203a                	.insn	2, 0x203a
30008910:	6425                	.insn	2, 0x6425
30008912:	000a                	.insn	2, 0x000a
30008914:	28203753          	.insn	4, 0x28203753
30008918:	29505253          	.insn	4, 0x29505253
3000891c:	2020                	.insn	2, 0x2020
3000891e:	203a                	.insn	2, 0x203a
30008920:	6425                	.insn	2, 0x6425
30008922:	0a0a                	.insn	2, 0x0a0a
30008924:	0000                	.insn	2, 0x0000
30008926:	0000                	.insn	2, 0x0000
30008928:	20203853          	.insn	4, 0x20203853
3000892c:	5328                	.insn	2, 0x5328
3000892e:	4c52                	.insn	2, 0x4c52
30008930:	2029                	.insn	2, 0x2029
30008932:	203a                	.insn	2, 0x203a
30008934:	6425                	.insn	2, 0x6425
30008936:	000a                	.insn	2, 0x000a
30008938:	20203953          	.insn	4, 0x20203953
3000893c:	5128                	.insn	2, 0x5128
3000893e:	2945                	.insn	2, 0x2945
30008940:	2020                	.insn	2, 0x2020
30008942:	203a                	.insn	2, 0x203a
30008944:	6425                	.insn	2, 0x6425
30008946:	000a                	.insn	2, 0x000a
30008948:	20303153          	.insn	4, 0x20303153
3000894c:	2d2d                	.insn	2, 0x2d2d
3000894e:	2d2d                	.insn	2, 0x2d2d
30008950:	2020                	.insn	2, 0x2020
30008952:	203a                	.insn	2, 0x203a
30008954:	6425                	.insn	2, 0x6425
30008956:	000a                	.insn	2, 0x000a
30008958:	20313153          	.insn	4, 0x20313153
3000895c:	4c28                	.insn	2, 0x4c28
3000895e:	3142                	.insn	2, 0x3142
30008960:	2029                	.insn	2, 0x2029
30008962:	203a                	.insn	2, 0x203a
30008964:	6425                	.insn	2, 0x6425
30008966:	000a                	.insn	2, 0x000a
30008968:	20323153          	.insn	4, 0x20323153
3000896c:	4c28                	.insn	2, 0x4c28
3000896e:	3242                	.insn	2, 0x3242
30008970:	2029                	.insn	2, 0x2029
30008972:	203a                	.insn	2, 0x203a
30008974:	6425                	.insn	2, 0x6425
30008976:	000a                	.insn	2, 0x000a
30008978:	20333153          	.insn	4, 0x20333153
3000897c:	4c28                	.insn	2, 0x4c28
3000897e:	3342                	.insn	2, 0x3342
30008980:	2029                	.insn	2, 0x2029
30008982:	203a                	.insn	2, 0x203a
30008984:	6425                	.insn	2, 0x6425
30008986:	000a                	.insn	2, 0x000a
30008988:	20343153          	.insn	4, 0x20343153
3000898c:	4328                	.insn	2, 0x4328
3000898e:	504d                	.insn	2, 0x504d
30008990:	2029                	.insn	2, 0x2029
30008992:	203a                	.insn	2, 0x203a
30008994:	6425                	.insn	2, 0x6425
30008996:	000a                	.insn	2, 0x000a
30008998:	20353153          	.insn	4, 0x20353153
3000899c:	5328                	.insn	2, 0x5328
3000899e:	5355                	.insn	2, 0x5355
300089a0:	2029                	.insn	2, 0x2029
300089a2:	203a                	.insn	2, 0x203a
300089a4:	6425                	.insn	2, 0x6425
300089a6:	0a0a                	.insn	2, 0x0a0a
300089a8:	0000                	.insn	2, 0x0000
300089aa:	0000                	.insn	2, 0x0000
300089ac:	20363153          	.insn	4, 0x20363153
300089b0:	2d2d                	.insn	2, 0x2d2d
300089b2:	2d2d                	.insn	2, 0x2d2d
300089b4:	2020                	.insn	2, 0x2020
300089b6:	203a                	.insn	2, 0x203a
300089b8:	6425                	.insn	2, 0x6425
300089ba:	000a                	.insn	2, 0x000a
300089bc:	20373153          	.insn	4, 0x20373153
300089c0:	2d2d                	.insn	2, 0x2d2d
300089c2:	2d2d                	.insn	2, 0x2d2d
300089c4:	2020                	.insn	2, 0x2020
300089c6:	203a                	.insn	2, 0x203a
300089c8:	6425                	.insn	2, 0x6425
300089ca:	000a                	.insn	2, 0x000a
300089cc:	20383153          	.insn	4, 0x20383153
300089d0:	5728                	.insn	2, 0x5728
300089d2:	5350                	.insn	2, 0x5350
300089d4:	2029                	.insn	2, 0x2029
300089d6:	203a                	.insn	2, 0x203a
300089d8:	6425                	.insn	2, 0x6425
300089da:	000a                	.insn	2, 0x000a
300089dc:	20393153          	.insn	4, 0x20393153
300089e0:	2d2d                	.insn	2, 0x2d2d
300089e2:	2d2d                	.insn	2, 0x2d2d
300089e4:	2020                	.insn	2, 0x2020
300089e6:	203a                	.insn	2, 0x203a
300089e8:	6425                	.insn	2, 0x6425
300089ea:	000a                	.insn	2, 0x000a
300089ec:	20303253          	.insn	4, 0x20303253
300089f0:	2d2d                	.insn	2, 0x2d2d
300089f2:	2d2d                	.insn	2, 0x2d2d
300089f4:	2020                	.insn	2, 0x2020
300089f6:	203a                	.insn	2, 0x203a
300089f8:	6425                	.insn	2, 0x6425
300089fa:	000a                	.insn	2, 0x000a
300089fc:	20313253          	.insn	4, 0x20313253
30008a00:	4428                	.insn	2, 0x4428
30008a02:	5652                	.insn	2, 0x5652
30008a04:	2930                	.insn	2, 0x2930
30008a06:	203a                	.insn	2, 0x203a
30008a08:	6425                	.insn	2, 0x6425
30008a0a:	000a                	.insn	2, 0x000a
30008a0c:	20323253          	.insn	4, 0x20323253
30008a10:	4428                	.insn	2, 0x4428
30008a12:	5652                	.insn	2, 0x5652
30008a14:	2931                	.insn	2, 0x2931
30008a16:	203a                	.insn	2, 0x203a
30008a18:	6425                	.insn	2, 0x6425
30008a1a:	000a                	.insn	2, 0x000a
30008a1c:	20333253          	.insn	4, 0x20333253
30008a20:	4828                	.insn	2, 0x4828
30008a22:	29444c4f          	.insn	4, 0x29444c4f
30008a26:	203a                	.insn	2, 0x203a
30008a28:	6425                	.insn	2, 0x6425
30008a2a:	0a0a                	.insn	2, 0x0a0a
30008a2c:	0000                	.insn	2, 0x0000
30008a2e:	0000                	.insn	2, 0x0000
30008a30:	5d50495b          	.insn	4, 0x5d50495b
30008a34:	6720                	.insn	2, 0x6720
30008a36:	6970                	.insn	2, 0x6970
30008a38:	6574206f          	j	3004b88e <_etext+0x31b66>
30008a3c:	000a7473          	.insn	4, 0x000a7473
30008a40:	4950475b          	.insn	4, 0x4950475b
30008a44:	4e45204f          	.insn	4, 0x4e45204f
30008a48:	5d42                	.insn	2, 0x5d42
30008a4a:	2520                	.insn	2, 0x2520
30008a4c:	0a78                	.insn	2, 0x0a78
30008a4e:	0000                	.insn	2, 0x0000
30008a50:	4950475b          	.insn	4, 0x4950475b
30008a54:	4144204f          	.insn	4, 0x4144204f
30008a58:	4154                	.insn	2, 0x4154
30008a5a:	205d                	.insn	2, 0x205d
30008a5c:	7825                	.insn	2, 0x7825
30008a5e:	000a                	.insn	2, 0x000a
30008a60:	656c                	.insn	2, 0x656c
30008a62:	2064                	.insn	2, 0x2064
30008a64:	7074756f          	jal	a0,3005096a <_etext+0x36c42>
30008a68:	7475                	.insn	2, 0x7475
30008a6a:	7420                	.insn	2, 0x7420
30008a6c:	7365                	.insn	2, 0x7365
30008a6e:	0a74                	.insn	2, 0x0a74
30008a70:	0000                	.insn	2, 0x0000
30008a72:	0000                	.insn	2, 0x0000
30008a74:	2079656b          	.insn	4, 0x2079656b
30008a78:	6e69                	.insn	2, 0x6e69
30008a7a:	7570                	.insn	2, 0x7570
30008a7c:	2074                	.insn	2, 0x2074
30008a7e:	6574                	.insn	2, 0x6574
30008a80:	000a7473          	.insn	4, 0x000a7473
30008a84:	2079656b          	.insn	4, 0x2079656b
30008a88:	6564                	.insn	2, 0x6564
30008a8a:	6574                	.insn	2, 0x6574
30008a8c:	000a7463          	bgeu	s4,zero,30008a94 <main+0x43c>
30008a90:	5d50495b          	.insn	4, 0x5d50495b
30008a94:	6820                	.insn	2, 0x6820
30008a96:	6573756f          	jal	a0,300408ec <_etext+0x26bc4>
30008a9a:	7065656b          	.insn	4, 0x7065656b
30008a9e:	6e69                	.insn	2, 0x6e69
30008aa0:	70732067          	.insn	4, 0x70732067
30008aa4:	2069                	.insn	2, 0x2069
30008aa6:	6574                	.insn	2, 0x6574
30008aa8:	000a7473          	.insn	4, 0x000a7473
30008aac:	204b485b          	.insn	4, 0x204b485b
30008ab0:	464e4f43          	.insn	4, 0x464e4f43
30008ab4:	4749                	.insn	2, 0x4749
30008ab6:	205d                	.insn	2, 0x205d
30008ab8:	2020                	.insn	2, 0x2020
30008aba:	7825                	.insn	2, 0x7825
30008abc:	000a                	.insn	2, 0x000a
30008abe:	0000                	.insn	2, 0x0000
30008ac0:	204b485b          	.insn	4, 0x204b485b
30008ac4:	4e45                	.insn	2, 0x4e45
30008ac6:	5d42                	.insn	2, 0x5d42
30008ac8:	2020                	.insn	2, 0x2020
30008aca:	2020                	.insn	2, 0x2020
30008acc:	2020                	.insn	2, 0x2020
30008ace:	7825                	.insn	2, 0x7825
30008ad0:	000a                	.insn	2, 0x000a
30008ad2:	0000                	.insn	2, 0x0000
30008ad4:	204b485b          	.insn	4, 0x204b485b
30008ad8:	4c50                	.insn	2, 0x4c50
30008ada:	5d4c                	.insn	2, 0x5d4c
30008adc:	2020                	.insn	2, 0x2020
30008ade:	2020                	.insn	2, 0x2020
30008ae0:	2020                	.insn	2, 0x2020
30008ae2:	7825                	.insn	2, 0x7825
30008ae4:	000a                	.insn	2, 0x000a
30008ae6:	0000                	.insn	2, 0x0000
30008ae8:	204b485b          	.insn	4, 0x204b485b
30008aec:	464d                	.insn	2, 0x464d
30008aee:	49205247          	.insn	4, 0x49205247
30008af2:	5d44                	.insn	2, 0x5d44
30008af4:	2020                	.insn	2, 0x2020
30008af6:	7825                	.insn	2, 0x7825
30008af8:	000a                	.insn	2, 0x000a
30008afa:	0000                	.insn	2, 0x0000
30008afc:	204b485b          	.insn	4, 0x204b485b
30008b00:	5250                	.insn	2, 0x5250
30008b02:	4920444f          	.insn	4, 0x4920444f
30008b06:	5d44                	.insn	2, 0x5d44
30008b08:	2020                	.insn	2, 0x2020
30008b0a:	7825                	.insn	2, 0x7825
30008b0c:	000a                	.insn	2, 0x000a
30008b0e:	0000                	.insn	2, 0x0000
30008b10:	204b485b          	.insn	4, 0x204b485b
30008b14:	414d                	.insn	2, 0x414d
30008b16:	52204b53          	.insn	4, 0x52204b53
30008b1a:	5645                	.insn	2, 0x5645
30008b1c:	205d                	.insn	2, 0x205d
30008b1e:	7825                	.insn	2, 0x7825
30008b20:	000a                	.insn	2, 0x000a
30008b22:	0000                	.insn	2, 0x0000
30008b24:	204b485b          	.insn	4, 0x204b485b
30008b28:	4c50                	.insn	2, 0x4c50
30008b2a:	204c                	.insn	2, 0x204c
30008b2c:	5942                	.insn	2, 0x5942
30008b2e:	5d50                	.insn	2, 0x5d50
30008b30:	2020                	.insn	2, 0x2020
30008b32:	7825                	.insn	2, 0x7825
30008b34:	000a                	.insn	2, 0x000a
30008b36:	0000                	.insn	2, 0x0000
30008b38:	5d50495b          	.insn	4, 0x5d50495b
30008b3c:	6320                	.insn	2, 0x6320
30008b3e:	746e756f          	jal	a0,300f0284 <_etext+0xd655c>
30008b42:	7265                	.insn	2, 0x7265
30008b44:	7420                	.insn	2, 0x7420
30008b46:	6d69                	.insn	2, 0x6d69
30008b48:	7265                	.insn	2, 0x7265
30008b4a:	7420                	.insn	2, 0x7420
30008b4c:	7365                	.insn	2, 0x7365
30008b4e:	0a74                	.insn	2, 0x0a74
30008b50:	0000                	.insn	2, 0x0000
30008b52:	0000                	.insn	2, 0x0000
30008b54:	4d49545b          	.insn	4, 0x4d49545b
30008b58:	2030                	.insn	2, 0x2030
30008b5a:	4156                	.insn	2, 0x4156
30008b5c:	554c                	.insn	2, 0x554c
30008b5e:	5d45                	.insn	2, 0x5d45
30008b60:	2020                	.insn	2, 0x2020
30008b62:	7825                	.insn	2, 0x7825
30008b64:	000a                	.insn	2, 0x000a
30008b66:	0000                	.insn	2, 0x0000
30008b68:	4d49545b          	.insn	4, 0x4d49545b
30008b6c:	2030                	.insn	2, 0x2030
30008b6e:	464e4f43          	.insn	4, 0x464e4f43
30008b72:	4749                	.insn	2, 0x4749
30008b74:	205d                	.insn	2, 0x205d
30008b76:	7825                	.insn	2, 0x7825
30008b78:	000a                	.insn	2, 0x000a
30008b7a:	0000                	.insn	2, 0x0000
30008b7c:	4d49545b          	.insn	4, 0x4d49545b
30008b80:	2031                	.insn	2, 0x2031
30008b82:	4156                	.insn	2, 0x4156
30008b84:	554c                	.insn	2, 0x554c
30008b86:	5d45                	.insn	2, 0x5d45
30008b88:	2020                	.insn	2, 0x2020
30008b8a:	7825                	.insn	2, 0x7825
30008b8c:	000a                	.insn	2, 0x000a
30008b8e:	0000                	.insn	2, 0x0000
30008b90:	4d49545b          	.insn	4, 0x4d49545b
30008b94:	2031                	.insn	2, 0x2031
30008b96:	464e4f43          	.insn	4, 0x464e4f43
30008b9a:	4749                	.insn	2, 0x4749
30008b9c:	205d                	.insn	2, 0x205d
30008b9e:	7825                	.insn	2, 0x7825
30008ba0:	000a                	.insn	2, 0x000a
30008ba2:	0000                	.insn	2, 0x0000
30008ba4:	4d49545b          	.insn	4, 0x4d49545b
30008ba8:	2030                	.insn	2, 0x2030
30008baa:	4144                	.insn	2, 0x4144
30008bac:	4154                	.insn	2, 0x4154
30008bae:	205d                	.insn	2, 0x205d
30008bb0:	7825                	.insn	2, 0x7825
30008bb2:	000a                	.insn	2, 0x000a
30008bb4:	4d49545b          	.insn	4, 0x4d49545b
30008bb8:	2031                	.insn	2, 0x2031
30008bba:	4144                	.insn	2, 0x4144
30008bbc:	4154                	.insn	2, 0x4154
30008bbe:	205d                	.insn	2, 0x205d
30008bc0:	7825                	.insn	2, 0x7825
30008bc2:	000a                	.insn	2, 0x000a
30008bc4:	5355435b          	.insn	4, 0x5355435b
30008bc8:	2054                	.insn	2, 0x2054
30008bca:	5049                	.insn	2, 0x5049
30008bcc:	205d                	.insn	2, 0x205d
30008bce:	7261                	.insn	2, 0x7261
30008bd0:	6e696863          	bltu	s2,t1,300092c0 <img+0x3b4>
30008bd4:	6f66                	.insn	2, 0x6f66
30008bd6:	7420                	.insn	2, 0x7420
30008bd8:	7365                	.insn	2, 0x7365
30008bda:	0a74                	.insn	2, 0x0a74
30008bdc:	0000                	.insn	2, 0x0000
30008bde:	0000                	.insn	2, 0x0000
30008be0:	4352415b          	.insn	4, 0x4352415b
30008be4:	4948                	.insn	2, 0x4948
30008be6:	464e                	.insn	2, 0x464e
30008be8:	5953204f          	.insn	4, 0x5953204f
30008bec:	25205d53          	.insn	4, 0x25205d53
30008bf0:	0a78                	.insn	2, 0x0a78
30008bf2:	0000                	.insn	2, 0x0000
30008bf4:	4352415b          	.insn	4, 0x4352415b
30008bf8:	4948                	.insn	2, 0x4948
30008bfa:	464e                	.insn	2, 0x464e
30008bfc:	4449204f          	.insn	4, 0x4449204f
30008c00:	5d4c                	.insn	2, 0x5d4c
30008c02:	2520                	.insn	2, 0x2520
30008c04:	0a78                	.insn	2, 0x0a78
30008c06:	0000                	.insn	2, 0x0000
30008c08:	4352415b          	.insn	4, 0x4352415b
30008c0c:	4948                	.insn	2, 0x4948
30008c0e:	464e                	.insn	2, 0x464e
30008c10:	4449204f          	.insn	4, 0x4449204f
30008c14:	5d48                	.insn	2, 0x5d48
30008c16:	2520                	.insn	2, 0x2520
30008c18:	0a78                	.insn	2, 0x0a78
30008c1a:	0000                	.insn	2, 0x0000
30008c1c:	5355435b          	.insn	4, 0x5355435b
30008c20:	2054                	.insn	2, 0x2054
30008c22:	5049                	.insn	2, 0x5049
30008c24:	205d                	.insn	2, 0x205d
30008c26:	6e72                	.insn	2, 0x6e72
30008c28:	65742067          	.insn	4, 0x65742067
30008c2c:	000a7473          	.insn	4, 0x000a7473
30008c30:	474e525b          	.insn	4, 0x474e525b
30008c34:	5320                	.insn	2, 0x5320
30008c36:	4545                	.insn	2, 0x4545
30008c38:	5d44                	.insn	2, 0x5d44
30008c3a:	2520                	.insn	2, 0x2520
30008c3c:	0a78                	.insn	2, 0x0a78
30008c3e:	0000                	.insn	2, 0x0000
30008c40:	474e525b          	.insn	4, 0x474e525b
30008c44:	5620                	.insn	2, 0x5620
30008c46:	4c41                	.insn	2, 0x4c41
30008c48:	205d                	.insn	2, 0x205d
30008c4a:	7825                	.insn	2, 0x7825
30008c4c:	000a                	.insn	2, 0x000a
30008c4e:	0000                	.insn	2, 0x0000
30008c50:	474e525b          	.insn	4, 0x474e525b
30008c54:	205d                	.insn	2, 0x205d
30008c56:	6572                	.insn	2, 0x6572
30008c58:	20746573          	.insn	4, 0x20746573
30008c5c:	6874                	.insn	2, 0x6874
30008c5e:	2065                	.insn	2, 0x2065
30008c60:	64656573          	.insn	4, 0x64656573
30008c64:	000a                	.insn	2, 0x000a
30008c66:	0000                	.insn	2, 0x0000
30008c68:	5355435b          	.insn	4, 0x5355435b
30008c6c:	2054                	.insn	2, 0x2054
30008c6e:	5049                	.insn	2, 0x5049
30008c70:	205d                	.insn	2, 0x205d
30008c72:	6175                	.insn	2, 0x6175
30008c74:	7472                	.insn	2, 0x7472
30008c76:	7420                	.insn	2, 0x7420
30008c78:	7365                	.insn	2, 0x7365
30008c7a:	0a74                	.insn	2, 0x0a74
30008c7c:	0000                	.insn	2, 0x0000
30008c7e:	0000                	.insn	2, 0x0000
30008c80:	5241555b          	.insn	4, 0x5241555b
30008c84:	2054                	.insn	2, 0x2054
30008c86:	4944                	.insn	2, 0x4944
30008c88:	5d56                	.insn	2, 0x5d56
30008c8a:	2520                	.insn	2, 0x2520
30008c8c:	0a78                	.insn	2, 0x0a78
30008c8e:	0000                	.insn	2, 0x0000
30008c90:	5241555b          	.insn	4, 0x5241555b
30008c94:	2054                	.insn	2, 0x2054
30008c96:	434c                	.insn	2, 0x434c
30008c98:	5d52                	.insn	2, 0x5d52
30008c9a:	2520                	.insn	2, 0x2520
30008c9c:	0a78                	.insn	2, 0x0a78
30008c9e:	0000                	.insn	2, 0x0000
30008ca0:	6175                	.insn	2, 0x6175
30008ca2:	7472                	.insn	2, 0x7472
30008ca4:	7420                	.insn	2, 0x7420
30008ca6:	2078                	.insn	2, 0x2078
30008ca8:	6574                	.insn	2, 0x6574
30008caa:	000a7473          	.insn	4, 0x000a7473
30008cae:	0000                	.insn	2, 0x0000
30008cb0:	6175                	.insn	2, 0x6175
30008cb2:	7472                	.insn	2, 0x7472
30008cb4:	7420                	.insn	2, 0x7420
30008cb6:	2078                	.insn	2, 0x2078
30008cb8:	6574                	.insn	2, 0x6574
30008cba:	64207473          	.insn	4, 0x64207473
30008cbe:	0a656e6f          	jal	t3,3005ed64 <_etext+0x4503c>
30008cc2:	0000                	.insn	2, 0x0000
30008cc4:	6175                	.insn	2, 0x6175
30008cc6:	7472                	.insn	2, 0x7472
30008cc8:	7220                	.insn	2, 0x7220
30008cca:	2078                	.insn	2, 0x2078
30008ccc:	6574                	.insn	2, 0x6574
30008cce:	000a7473          	.insn	4, 0x000a7473
30008cd2:	0000                	.insn	2, 0x0000
30008cd4:	6175                	.insn	2, 0x6175
30008cd6:	7472                	.insn	2, 0x7472
30008cd8:	6420                	.insn	2, 0x6420
30008cda:	0a656e6f          	jal	t3,3005ed80 <_etext+0x45058>
30008cde:	0000                	.insn	2, 0x0000
30008ce0:	7770                	.insn	2, 0x7770
30008ce2:	206d                	.insn	2, 0x206d
30008ce4:	6574                	.insn	2, 0x6574
30008ce6:	000a7473          	.insn	4, 0x000a7473
30008cea:	0000                	.insn	2, 0x0000
30008cec:	6572                	.insn	2, 0x6572
30008cee:	75635f67          	.insn	4, 0x75635f67
30008cf2:	705f7473          	.insn	4, 0x705f7473
30008cf6:	635f6d77          	.insn	4, 0x635f6d77
30008cfa:	7274                	.insn	2, 0x7274
30008cfc:	3a6c                	.insn	2, 0x3a6c
30008cfe:	2520                	.insn	2, 0x2520
30008d00:	2064                	.insn	2, 0x2064
30008d02:	6572                	.insn	2, 0x6572
30008d04:	75635f67          	.insn	4, 0x75635f67
30008d08:	705f7473          	.insn	4, 0x705f7473
30008d0c:	705f6d77          	.insn	4, 0x705f6d77
30008d10:	3a726373          	.insn	4, 0x3a726373
30008d14:	2520                	.insn	2, 0x2520
30008d16:	2064                	.insn	2, 0x2064
30008d18:	6572                	.insn	2, 0x6572
30008d1a:	75635f67          	.insn	4, 0x75635f67
30008d1e:	705f7473          	.insn	4, 0x705f7473
30008d22:	635f6d77          	.insn	4, 0x635f6d77
30008d26:	706d                	.insn	2, 0x706d
30008d28:	203a                	.insn	2, 0x203a
30008d2a:	6425                	.insn	2, 0x6425
30008d2c:	000a                	.insn	2, 0x000a
30008d2e:	0000                	.insn	2, 0x0000
30008d30:	4d57505b          	.insn	4, 0x4d57505b
30008d34:	3a5d                	.insn	2, 0x3a5d
30008d36:	2520                	.insn	2, 0x2520
30008d38:	2f64                	.insn	2, 0x2f64
30008d3a:	000a3633          	sltu	a2,s4,zero
30008d3e:	0000                	.insn	2, 0x0000
30008d40:	5355435b          	.insn	4, 0x5355435b
30008d44:	2054                	.insn	2, 0x2054
30008d46:	5049                	.insn	2, 0x5049
30008d48:	205d                	.insn	2, 0x205d
30008d4a:	7370                	.insn	2, 0x7370
30008d4c:	2032                	.insn	2, 0x2032
30008d4e:	6574                	.insn	2, 0x6574
30008d50:	000a7473          	.insn	4, 0x000a7473
30008d54:	3253505b          	.insn	4, 0x3253505b
30008d58:	4420                	.insn	2, 0x4420
30008d5a:	5441                	.insn	2, 0x5441
30008d5c:	205d                	.insn	2, 0x205d
30008d5e:	7825                	.insn	2, 0x7825
30008d60:	000a                	.insn	2, 0x000a
30008d62:	0000                	.insn	2, 0x0000
30008d64:	4c525443          	.insn	4, 0x4c525443
30008d68:	203a                	.insn	2, 0x203a
30008d6a:	6425                	.insn	2, 0x6425
30008d6c:	5020                	.insn	2, 0x5020
30008d6e:	3a524353          	.insn	4, 0x3a524353
30008d72:	2520                	.insn	2, 0x2520
30008d74:	0a64                	.insn	2, 0x0a64
30008d76:	0000                	.insn	2, 0x0000
30008d78:	2072775b          	.insn	4, 0x2072775b
30008d7c:	72617473          	.insn	4, 0x72617473
30008d80:	5d74                	.insn	2, 0x5d74
30008d82:	6f6e                	.insn	2, 0x6f6e
30008d84:	6120                	.insn	2, 0x6120
30008d86:	72206b63          	bltu	zero,sp,300094bc <img+0x5b0>
30008d8a:	6365                	.insn	2, 0x6365
30008d8c:	0a76                	.insn	2, 0x0a76
30008d8e:	0000                	.insn	2, 0x0000
30008d90:	6332695b          	.insn	4, 0x6332695b
30008d94:	7720                	.insn	2, 0x7720
30008d96:	6972                	.insn	2, 0x6972
30008d98:	6574                	.insn	2, 0x6574
30008d9a:	6e5d                	.insn	2, 0x6e5d
30008d9c:	6361206f          	j	3001b3d2 <_etext+0x16aa>
30008da0:	6572206b          	.insn	4, 0x6572206b
30008da4:	000a7663          	bgeu	s4,zero,30008db0 <main+0x758>
30008da8:	6332695b          	.insn	4, 0x6332695b
30008dac:	7220                	.insn	2, 0x7220
30008dae:	6165                	.insn	2, 0x6165
30008db0:	5d64                	.insn	2, 0x5d64
30008db2:	6f6e                	.insn	2, 0x6f6e
30008db4:	6120                	.insn	2, 0x6120
30008db6:	72206b63          	bltu	zero,sp,300094ec <img+0x5e0>
30008dba:	6365                	.insn	2, 0x6365
30008dbc:	0a76                	.insn	2, 0x0a76
30008dbe:	0000                	.insn	2, 0x0000
30008dc0:	3269                	.insn	2, 0x3269
30008dc2:	65742063          	.insn	4, 0x65742063
30008dc6:	000a7473          	.insn	4, 0x000a7473
30008dca:	0000                	.insn	2, 0x0000
30008dcc:	5441                	.insn	2, 0x5441
30008dce:	3432                	.insn	2, 0x3432
30008dd0:	20343643          	.insn	4, 0x20343643
30008dd4:	722f7277          	.insn	4, 0x722f7277
30008dd8:	2064                	.insn	2, 0x2064
30008dda:	6574                	.insn	2, 0x6574
30008ddc:	000a7473          	.insn	4, 0x000a7473
30008de0:	5441                	.insn	2, 0x5441
30008de2:	3432                	.insn	2, 0x3432
30008de4:	20343643          	.insn	4, 0x20343643
30008de8:	722f7277          	.insn	4, 0x722f7277
30008dec:	2064                	.insn	2, 0x2064
30008dee:	6574                	.insn	2, 0x6574
30008df0:	64207473          	.insn	4, 0x64207473
30008df4:	0a656e6f          	jal	t3,3005ee9a <_etext+0x45172>
30008df8:	0000                	.insn	2, 0x0000
30008dfa:	0000                	.insn	2, 0x0000
30008dfc:	4350                	.insn	2, 0x4350
30008dfe:	3846                	.insn	2, 0x3846
30008e00:	3635                	.insn	2, 0x3635
30008e02:	74204233          	.insn	4, 0x74204233
30008e06:	7365                	.insn	2, 0x7365
30008e08:	0a74                	.insn	2, 0x0a74
30008e0a:	0000                	.insn	2, 0x0000
30008e0c:	4643505b          	.insn	4, 0x4643505b
30008e10:	3538                	.insn	2, 0x3538
30008e12:	3336                	.insn	2, 0x3336
30008e14:	5d42                	.insn	2, 0x5d42
30008e16:	2520                	.insn	2, 0x2520
30008e18:	2d64                	.insn	2, 0x2d64
30008e1a:	6425                	.insn	2, 0x6425
30008e1c:	252d                	.insn	2, 0x252d
30008e1e:	2064                	.insn	2, 0x2064
30008e20:	6425                	.insn	2, 0x6425
30008e22:	2520                	.insn	2, 0x2520
30008e24:	3a64                	.insn	2, 0x3a64
30008e26:	6425                	.insn	2, 0x6425
30008e28:	253a                	.insn	2, 0x253a
30008e2a:	0a64                	.insn	2, 0x0a64
30008e2c:	0000                	.insn	2, 0x0000
30008e2e:	0000                	.insn	2, 0x0000
30008e30:	4350                	.insn	2, 0x4350
30008e32:	3846                	.insn	2, 0x3846
30008e34:	3635                	.insn	2, 0x3635
30008e36:	74204233          	.insn	4, 0x74204233
30008e3a:	7365                	.insn	2, 0x7365
30008e3c:	2074                	.insn	2, 0x2074
30008e3e:	6f64                	.insn	2, 0x6f64
30008e40:	656e                	.insn	2, 0x656e
30008e42:	000a                	.insn	2, 0x000a
30008e44:	6574                	.insn	2, 0x6574
30008e46:	64207473          	.insn	4, 0x64207473
30008e4a:	0a656e6f          	jal	t3,3005eef0 <_etext+0x451c8>
30008e4e:	0000                	.insn	2, 0x0000
30008e50:	6f697067          	.insn	4, 0x6f697067
30008e54:	655f 626e 203a      	.insn	6, 0x203a626e655f
30008e5a:	7825                	.insn	2, 0x7825
30008e5c:	000a                	.insn	2, 0x000a
30008e5e:	0000                	.insn	2, 0x0000
30008e60:	7371                	.insn	2, 0x7371
30008e62:	6970                	.insn	2, 0x6970
30008e64:	735f 6174 7574      	.insn	6, 0x75746174735f
30008e6a:	25203a73          	.insn	4, 0x25203a73
30008e6e:	0a78                	.insn	2, 0x0a78
30008e70:	0000                	.insn	2, 0x0000
30008e72:	0000                	.insn	2, 0x0000
30008e74:	7371                	.insn	2, 0x7371
30008e76:	6970                	.insn	2, 0x6970
30008e78:	695f 746e 6663      	.insn	6, 0x6663746e695f
30008e7e:	25203a67          	.insn	4, 0x25203a67
30008e82:	0a78                	.insn	2, 0x0a78
30008e84:	0000                	.insn	2, 0x0000
30008e86:	0000                	.insn	2, 0x0000
30008e88:	7371                	.insn	2, 0x7371
30008e8a:	6970                	.insn	2, 0x6970
30008e8c:	645f 6d75 203a      	.insn	6, 0x203a6d75645f
30008e92:	7825                	.insn	2, 0x7825
30008e94:	000a                	.insn	2, 0x000a
30008e96:	0000                	.insn	2, 0x0000
30008e98:	7371                	.insn	2, 0x7371
30008e9a:	6970                	.insn	2, 0x6970
30008e9c:	635f 6b6c 6964      	.insn	6, 0x69646b6c635f
30008ea2:	3a76                	.insn	2, 0x3a76
30008ea4:	2520                	.insn	2, 0x2520
30008ea6:	0a78                	.insn	2, 0x0a78
30008ea8:	0000                	.insn	2, 0x0000
30008eaa:	0000                	.insn	2, 0x0000
30008eac:	6661                	.insn	2, 0x6661
30008eae:	6574                	.insn	2, 0x6574
30008eb0:	2072                	.insn	2, 0x2072
30008eb2:	7266                	.insn	2, 0x7266
30008eb4:	6d61                	.insn	2, 0x6d61
30008eb6:	2065                	.insn	2, 0x2065
30008eb8:	6172                	.insn	2, 0x6172
30008eba:	6574                	.insn	2, 0x6574
30008ebc:	6920                	.insn	2, 0x6920
30008ebe:	696e                	.insn	2, 0x696e
30008ec0:	0a74                	.insn	2, 0x0a74
30008ec2:	0000                	.insn	2, 0x0000
30008ec4:	6661                	.insn	2, 0x6661
30008ec6:	6574                	.insn	2, 0x6574
30008ec8:	2072                	.insn	2, 0x2072
30008eca:	6f70                	.insn	2, 0x6f70
30008ecc:	20726577          	.insn	4, 0x20726577
30008ed0:	75716573          	.insn	4, 0x75716573
30008ed4:	6e65                	.insn	2, 0x6e65
30008ed6:	69206563          	bltu	zero,s2,30009560 <img+0x654>
30008eda:	696e                	.insn	2, 0x696e
30008edc:	0a74                	.insn	2, 0x0a74
30008ede:	0000                	.insn	2, 0x0000
30008ee0:	6661                	.insn	2, 0x6661
30008ee2:	6574                	.insn	2, 0x6574
30008ee4:	2072                	.insn	2, 0x2072
30008ee6:	6d6d6167          	.insn	4, 0x6d6d6167
30008eea:	2061                	.insn	2, 0x2061
30008eec:	75716573          	.insn	4, 0x75716573
30008ef0:	6e65                	.insn	2, 0x6e65
30008ef2:	69206563          	bltu	zero,s2,3000957c <img+0x670>
30008ef6:	696e                	.insn	2, 0x696e
30008ef8:	0a74                	.insn	2, 0x0a74
30008efa:	0000                	.insn	2, 0x0000
30008efc:	4654                	.insn	2, 0x4654
30008efe:	2054                	.insn	2, 0x2054
30008f00:	6e69                	.insn	2, 0x6e69
30008f02:	7469                	.insn	2, 0x7469
30008f04:	6420                	.insn	2, 0x6420
30008f06:	0a656e6f          	jal	t3,3005efac <_etext+0x45284>
	...

30008f0c <img>:
30008f0c:	ffffffff ffffffff ffffffff ffffffff     ................
30008f1c:	ffffffff ffffffff ffffffff ffffffff     ................
30008f2c:	ffffffff ffffffff ffffffff ffffffff     ................
30008f3c:	ffffffff ffffffff ffffffff ffffffff     ................
30008f4c:	ffffffff ffffffff ffffffff ffffffff     ................
30008f5c:	ffffffff ffffffff ffffffff ffffffff     ................
30008f6c:	ffffffff ffffffff ffffffff ffffffff     ................
30008f7c:	ffffffff ffffffff ffffffff ffffffff     ................
30008f8c:	ffffffff ffffffff ffffffff ffffffff     ................
30008f9c:	ffffffff ffffffff ffffffff ffffffff     ................
30008fac:	ffffffff ffffffff ffffffff ffffffff     ................
30008fbc:	ffffffff ffffffff ffffffff ffffffff     ................
30008fcc:	ffffffff ffffffff ffffffff ffffffff     ................
30008fdc:	ffffffff ffffffff ffffffff ffffffff     ................
30008fec:	ffffffff ffffffff ffffffff ffffffff     ................
30008ffc:	ffffffff ffffffff ffffffff ffffffff     ................
3000900c:	ffffffff ffffffff ffffffff ffffffff     ................
3000901c:	ffffffff ffffffff ffffffff ffffffff     ................
3000902c:	ffffffff ffffffff ffffffff ffffffff     ................
3000903c:	ffffffff ffffffff ffffffff ffffffff     ................
3000904c:	ffffffff ffffffff ffffffff ffffffff     ................
3000905c:	ffffffff ffffffff ffffffff ffffffff     ................
3000906c:	ffffffff ffffffff ffffffff ffffffff     ................
3000907c:	ffffffff ffffffff ffffffff ffffffff     ................
3000908c:	ffffffff ffffffff ffffffff ffffffff     ................
3000909c:	ffffffff ffffffff ffffffff ffffffff     ................
300090ac:	ffffffff ffffffff ffffffff ffffffff     ................
300090bc:	ffffffff ffffffff ffffffff ffffffff     ................
300090cc:	ffffffff ffffffff ffffffff ffffffff     ................
300090dc:	ffffffff ffffffff ffffffff ffffffff     ................
300090ec:	ffffffff ffffffff ffffffff ffffffff     ................
300090fc:	ffffffff ffffffff ffffffff ffffffff     ................
3000910c:	ffffffff ffffffff ffffffff ffffffff     ................
3000911c:	ffffffff ffffffff ffffffff ffffffff     ................
3000912c:	ffffffff ffffffff ffffffff ffffffff     ................
3000913c:	ffffffff ffffffff ffffffff ffffffff     ................
3000914c:	ffffffff ffffffff ffffffff ffffffff     ................
3000915c:	ffffffff ffffffff ffffffff ffffffff     ................
3000916c:	ffffffff ffffffff ffffffff ffffffff     ................
3000917c:	ffffffff ffffffff ffffffff ffffffff     ................
3000918c:	ffffffff ffffffff ffffffff ffffffff     ................
3000919c:	ffffffff ffffffff ffffffff ffffffff     ................
300091ac:	0a301231 121111f1 ffffffff ffffffff     1.0.............
300091bc:	ffffffff ffffffff ffffffff ffffffff     ................
300091cc:	ffffffff ffffffff ffffffff ffffffff     ................
300091dc:	ffffffff ffffffff ffffffff ffffffff     ................
300091ec:	ffffffff ffffffff ffffffff ffffffff     ................
300091fc:	ffffffff ffffffff ffffffff ffffffff     ................
3000920c:	ffffffff ffffffff ffffffff ffffffff     ................
3000921c:	ffffffff ffffffff ffffffff ffffffff     ................
3000922c:	ffffffff ffffffff ffffffff ffffffff     ................
3000923c:	ffffffff ffffffff ffffffff ffffffff     ................
3000924c:	ffffffff ffffffff ffffffff ffffffff     ................
3000925c:	ffffffff ffffffff ffffffff ffffffff     ................
3000926c:	ffffffff ffffffff ffffffff ffffffff     ................
3000927c:	ffffffff ffffffff ffffffff ffffffff     ................
3000928c:	ffffffff ffffffff ffffffff ffffffff     ................
3000929c:	ffffffff ffffffff ffffffff 01930a10     ................
300092ac:	12311252 12311231 12101230 018cffff     R.1.1.1.0.......
300092bc:	ffffffff ffffffff ffffffff ffffffff     ................
300092cc:	ffffffff ffffffff ffffffff ffffffff     ................
300092dc:	ffffffff ffffffff ffffffff ffffffff     ................
300092ec:	ffffffff ffffffff ffffffff ffffffff     ................
300092fc:	ffffffff ffffffff ffffffff ffffffff     ................
3000930c:	ffffffff ffffffff ffffffff ffffffff     ................
3000931c:	ffffffff ffffffff ffffffff ffffffff     ................
3000932c:	ffffffff ffffffff ffffffff ffffffff     ................
3000933c:	ffffffff ffffffff ffffffff ffffffff     ................
3000934c:	ffffffff ffffffff ffffffff ffffffff     ................
3000935c:	ffffffff ffffffff ffffffff ffffffff     ................
3000936c:	ffffffff ffffffff ffffffff ffffffff     ................
3000937c:	ffffffff ffffffff ffffffff ffffffff     ................
3000938c:	ffffffff ffffffff ffffffff ffffffff     ................
3000939c:	ffffffff ffffffff ffffffff 01ef1210     ................
300093ac:	12531252 12311252 12311252 0a10ffff     R.S.R.1.R.1.....
300093bc:	ffffffff ffffffff ffffffff ffffffff     ................
300093cc:	ffffffff ffffffff ffffffff ffffffff     ................
300093dc:	ffffffff ffffffff ffffffff ffffffff     ................
300093ec:	ffffffff ffffffff ffffffff ffffffff     ................
300093fc:	ffffffff ffffffff ffffffff ffffffff     ................
3000940c:	ffffffff ffffffff ffffffff ffffffff     ................
3000941c:	ffffffff ffffffff ffffffff ffffffff     ................
3000942c:	ffffffff ffffffff ffffffff ffffffff     ................
3000943c:	ffffffff ffffffff ffffffff ffffffff     ................
3000944c:	ffffffff ffffffff ffffffff ffffffff     ................
3000945c:	ffffffff ffffffff ffffffff ffffffff     ................
3000946c:	ffffffff ffffffff ffffffff ffffffff     ................
3000947c:	ffffffff ffffffff ffffffff ffffffff     ................
3000948c:	ffffffff ffffffff ffffffff ffffffff     ................
3000949c:	ffffffff ffffffff ffffffff 02aa1231     ............1...
300094ac:	12311231 12101210 12311253 121111af     1.1.....S.1.....
300094bc:	ffffffff ffffffff ffffffff ffffffff     ................
300094cc:	ffffffff ffffffff ffffffff ffffffff     ................
300094dc:	ffffffff ffffffff ffffffff ffffffff     ................
300094ec:	ffffffff ffffffff ffffffff ffffffff     ................
300094fc:	ffffffff ffffffff ffffffff ffffffff     ................
3000950c:	ffffffff ffffffff ffffffff ffffffff     ................
3000951c:	ffffffff ffffffff ffffffff ffffffff     ................
3000952c:	ffffffff ffffffff ffffffff ffffffff     ................
3000953c:	ffffffff ffffffff ffffffff ffffffff     ................
3000954c:	ffffffff ffffffff ffffffff ffffffff     ................
3000955c:	ffffffff ffffffff ffffffff ffffffff     ................
3000956c:	ffffffff ffffffff ffffffff ffffffff     ................
3000957c:	ffffffff ffffffff ffff07ff 11f011ef     ................
3000958c:	ffffffff ffffffff ffffffff ffffffff     ................
3000959c:	ffffffff ffffffff ffffffff ffff01f7     ................
300095ac:	0a101231 12111210 12101211 12311211     1.............1.
300095bc:	09f1ffff ffffffff ffffffff ffffffff     ................
300095cc:	ffffffff ffffffff ffffffff ffffffff     ................
300095dc:	ffffffff ffffffff ffffffff ffffffff     ................
300095ec:	ffffffff ffffffff ffffffff ffffffff     ................
300095fc:	ffffffff ffffffff ffffffff ffffffff     ................
3000960c:	ffffffff ffffffff ffffffff ffffffff     ................
3000961c:	ffffffff ffffffff ffffffff ffffffff     ................
3000962c:	ffffffff ffffffff ffffffff ffffffff     ................
3000963c:	ffffffff ffffffff ffffffff ffffffff     ................
3000964c:	ffffffff ffffffff ffffffff ffffffff     ................
3000965c:	ffffffff ffffffff ffffffff ffffffff     ................
3000966c:	ffffffff ffffffff ffffffff ffffffff     ................
3000967c:	ffffffff ffffffff ffff1a2f 12101231     ......../...1...
3000968c:	11f0ffff ffffffff ffffffff ffffffff     ................
3000969c:	ffffffff ffffffff ffffffff ffffffff     ................
300096ac:	09f01211 12311210 12101210 12311232     ......1.....2.1.
300096bc:	1210ff0a 120f0a30 01d1ffff ffffffff     ....0...........
300096cc:	ffffffff ffffffff ffffffff ffffffff     ................
300096dc:	ffffffff ffffffff ffffffff ffffffff     ................
300096ec:	ffffffff ffffffff ffffffff ffffffff     ................
300096fc:	ffffffff ffffffff ffffffff ffffffff     ................
3000970c:	ffffffff ffffffff ffffffff ffffffff     ................
3000971c:	ffffffff ffffffff ffffffff ffffffff     ................
3000972c:	ffffffff ffffffff ffffffff ffffffff     ................
3000973c:	ffffffff ffffffff ffffffff ffffffff     ................
3000974c:	ffffffff ffffffff ffffffff ffffffff     ................
3000975c:	ffffffff ffffffff ffffffff ffffffff     ................
3000976c:	ffffffff ffffffff ffffffff ffffffff     ................
3000977c:	ffffffff ffffffff ffff1210 12311252     ............R.1.
3000978c:	1210318c ffffffff ffffffff ffffffff     .1..............
3000979c:	ffffffff ffffffff ffffffff ffffffff     ................
300097ac:	ffff1210 12311211 12101210 12101231     ......1.....1...
300097bc:	12101210 12311232 0a11ffff ffffffff     ....2.1.........
300097cc:	ffffffff ffffffff ffffffff ffffffff     ................
300097dc:	ffffffff ffffffff ffffffff ffffffff     ................
300097ec:	ffffffff ffffffff ffffffff ffffffff     ................
300097fc:	ffffffff ffffffff ffffffff ffffffff     ................
3000980c:	ffffffff ffffffff ffffffff ffffffff     ................
3000981c:	ffffffff ffffffff ffffffff ffffffff     ................
3000982c:	ffffffff ffffffff ffffffff ffffffff     ................
3000983c:	ffffffff ffffffff ffffffff ffffffff     ................
3000984c:	ffffffff ffffffff ffffffff ffffffff     ................
3000985c:	ffffffff ffffffff ffffffff ffffffff     ................
3000986c:	ffffffff ffffffff ffffffff ffffffff     ................
3000987c:	ffffffff ffffffff ff0f1210 12521231     ............1.R.
3000988c:	12111211 ffffffff ffffffff ffffffff     ................
3000989c:	ffffffff ffffffff ffffffff ffffffff     ................
300098ac:	11d11210 12311211 12101210 12101210     ......1.........
300098bc:	12111210 12521252 1211ff0f ffffffff     ....R.R.........
300098cc:	ffffffff ffffffff ffffffff ffffffff     ................
300098dc:	ffffffff ffffffff ffffffff ffffffff     ................
300098ec:	ffffffff ffffffff ffffffff ffffffff     ................
300098fc:	ffffffff ffffffff ffffffff ffffffff     ................
3000990c:	ffffffff ffffffff ffffffff ffffffff     ................
3000991c:	ffffffff ffffffff ffffffff ffffffff     ................
3000992c:	ffffffff ffffffff ffffffff ffffffff     ................
3000993c:	ffffffff ffffffff ffffffff ffffffff     ................
3000994c:	ffffffff ffffffff ffffffff ffffffff     ................
3000995c:	ffffffff ffffffff ffffffff ffffffff     ................
3000996c:	ffffffff ffffffff ffffffff ffffffff     ................
3000997c:	ffffffff ffffffff 12101210 12311231     ............1.1.
3000998c:	12321211 018cffff ffffffff ffffffff     ..2.............
3000999c:	ffffffff ffffffff ffffffff 11af09f0     ................
300099ac:	12111231 12111210 12101210 12101210     1...............
300099bc:	12101211 12311231 1210022e ffffffff     ....1.1.........
300099cc:	ffffffff ffffffff ffffffff ffffffff     ................
300099dc:	ffffffff ffffffff ffffffff ffffffff     ................
300099ec:	ffffffff ffffffff ffffffff ffffffff     ................
300099fc:	ffffffff ffffffff ffffffff ffffffff     ................
30009a0c:	ffffffff ffffffff ffffffff ffffffff     ................
30009a1c:	ffffffff ffffffff ffffffff ffffffff     ................
30009a2c:	ffffffff ffffffff ffffffff ffffffff     ................
30009a3c:	ffffffff ffffffff ffffffff ffffffff     ................
30009a4c:	ffffffff ffffffff ffffffff ffffffff     ................
30009a5c:	ffffffff ffffffff ffffffff ffffffff     ................
30009a6c:	ffffffff ffffffff ffffffff ffffffff     ................
30009a7c:	ffffffff ffffff0f 12111231 12111211     ........1.......
30009a8c:	12311210 198fffff ffffffff ffffffff     ..1.............
30009a9c:	ffffffff 19ef198f 0a2f1231 12111211     ........1./.....
30009aac:	12321211 12101210 12101210 12101210     ..2.............
30009abc:	12111231 12311232 121011f0 ffffffff     1...2.1.........
30009acc:	ffffffff ffffffff ffffffff ffffffff     ................
30009adc:	ffffffff ffffffff ffffffff ffffffff     ................
30009aec:	ffffffff ffffffff ffffffff ffffffff     ................
30009afc:	ffffffff ffffffff ffffffff ffffffff     ................
30009b0c:	ffffffff ffffffff ffffffff ffffffff     ................
30009b1c:	ffffffff ffffffff ffffffff ffffffff     ................
30009b2c:	ffffffff ffffffff ffffffff ffffffff     ................
30009b3c:	ffffffff ffffffff ffffffff ffffffff     ................
30009b4c:	ffffffff ffffffff ffffffff ffffffff     ................
30009b5c:	ffffffff ffffffff ffffffff ffffffff     ................
30009b6c:	ffffffff ffffffff ffffffff ffffffff     ................
30009b7c:	ffffffff ffff19ef 12101231 12111210     ........1.......
30009b8c:	12311210 11efffff ffffffff ffffffff     ..1.............
30009b9c:	03ef1231 12111210 12101231 12321231     1.......1...1.2.
30009bac:	12311210 12101210 12101210 12101211     ..1.............
30009bbc:	12311231 12101231 1210122e ffffffff     1.1.1...........
30009bcc:	ffffffff ffffffff ffffffff ffffffff     ................
30009bdc:	ffffffff ffffffff ffffffff ffffffff     ................
30009bec:	ffffffff ffffffff ffffffff ffffffff     ................
30009bfc:	ffffffff ffffffff ffffffff ffffffff     ................
30009c0c:	ffffffff ffffffff ffffffff ffffffff     ................
30009c1c:	ffffffff ffffffff ffffffff ffffffff     ................
30009c2c:	ffffffff ffffffff ffffffff ffffffff     ................
30009c3c:	ffffffff ffffffff ffffffff ffffffff     ................
30009c4c:	ffffffff ffffffff ffffffff ffffffff     ................
30009c5c:	ffffffff ffffffff ffffffff ffffffff     ................
30009c6c:	ffffffff ffffffff ffffffff ffffffff     ................
30009c7c:	ffffffff ffff1a10 12101231 12101211     ........1.......
30009c8c:	12311210 122effff ffffffff 02aa1211     ..1.............
30009c9c:	12301231 12321231 12311231 12311210     1.0.1.2.1.1...1.
30009cac:	12101210 12101210 12101210 12111211     ................
30009cbc:	12311211 0a111231 0a31ff1f ffffffff     ..1.1.....1.....
30009ccc:	ffffffff ffffffff ffffffff ffffffff     ................
30009cdc:	ffffffff ffffffff ffffffff ffffffff     ................
30009cec:	ffffffff ffffffff ffffffff ffffffff     ................
30009cfc:	ffffffff ffffffff ffffffff ffffffff     ................
30009d0c:	ffffffff ffffffff ffffffff ffffffff     ................
30009d1c:	ffffffff ffffffff ffffffff ffffffff     ................
30009d2c:	ffffffff ffffffff ffffffff ffffffff     ................
30009d3c:	ffffffff ffffffff ffffffff ffffffff     ................
30009d4c:	ffffffff ffffffff ffffffff ffffffff     ................
30009d5c:	ffffffff ffffffff ffffffff ffffffff     ................
30009d6c:	ffffffff ffffffff ffffffff ffffffff     ................
30009d7c:	ffffffff 03ef1231 12311211 12101211     ....1.....1.....
30009d8c:	12311210 01e7ffff 09f01210 12101211     ..1.............
30009d9c:	12311231 12311231 12311210 12101210     1.1.1.1...1.....
30009dac:	12101210 12101210 12101210 12521211     ..............R.
30009dbc:	1210198f ffffffff ffffffff ffffffff     ................
30009dcc:	ffffffff ffffffff ffffffff ffffffff     ................
30009ddc:	ffffffff ffffffff ffffffff ffffffff     ................
30009dec:	ffffffff ffffffff ffffffff ffffffff     ................
30009dfc:	ffffffff ffffffff ffffffff ffffffff     ................
30009e0c:	ffffffff ffffffff ffffffff ffffffff     ................
30009e1c:	ffffffff ffffffff ffffffff ffffffff     ................
30009e2c:	ffffffff ffffffff ffffffff ffffffff     ................
30009e3c:	ffffffff ffffffff ffffffff ffffffff     ................
30009e4c:	ffffffff ffffffff ffffffff 02b51271     ............q...
30009e5c:	12311231 1210ffff ffffffff ffffffff     1.1.............
30009e6c:	ffffffff ffffffff ffffffff ffffffff     ................
30009e7c:	ffffffff 024d1210 12311211 12101210     ......M...1.....
30009e8c:	12311210 11f01210 12311231 12311232     ..1.....1.1.2.1.
30009e9c:	12311210 12101210 12101210 12101210     ..1.............
30009eac:	12101210 12101210 12101231 12311210     ........1.....1.
30009ebc:	ffffffff ffffffff ffffffff ffffffff     ................
30009ecc:	ffffffff ffffffff ffffffff ffffffff     ................
30009edc:	ffffffff ffffffff ffffffff ffffffff     ................
30009eec:	ffffffff ffffffff ffffffff ffffffff     ................
30009efc:	ffffffff ffffffff ffffffff ffffffff     ................
30009f0c:	ffffffff ffffffff ffffffff ffffffff     ................
30009f1c:	ffffffff ffffffff ffffffff ffffffff     ................
30009f2c:	ffffffff ffffffff ffffffff ffffffff     ................
30009f3c:	ffffffff ffffffff ffffffff ffffffff     ................
30009f4c:	ffff09f0 09f11211 12101210 12111210     ................
30009f5c:	12111231 12311211 11f0ffff ffffffff     1.....1.........
30009f6c:	ffffffff ffffffff ffffffff ffffffff     ................
30009f7c:	ffffffff 12101211 12311210 12101210     ..........1.....
30009f8c:	12101210 12311231 12521232 12311210     ....1.1.2.R...1.
30009f9c:	12101210 12101210 12101210 12311232     ............2.1.
30009fac:	12521231 12101210 12311231 121009cf     1.R.....1.1.....
30009fbc:	ffffffff ffffffff ffffffff ffffffff     ................
30009fcc:	ffffffff ffffffff ffffffff ffffffff     ................
30009fdc:	ffffffff ffffffff ffffffff ffffffff     ................
30009fec:	ffffffff ffffffff ffffffff ffffffff     ................
30009ffc:	ffffffff ffffffff ffffffff ffffffff     ................
3000a00c:	ffffffff ffffffff ffffffff ffffffff     ................
3000a01c:	ffffffff ffffffff ffffffff ffffffff     ................
3000a02c:	ffffffff ffffffff ffffffff ffffffff     ................
3000a03c:	ffffffff ff0f09f0 121111f0 12101210     ................
3000a04c:	12101231 12311231 12311211 12311232     1...1.1...1.2.1.
3000a05c:	12521232 12321231 12310a10 19ceffff     2.R.1.2...1.....
3000a06c:	ffffffff ffffffff ffffffff ffffffff     ................
3000a07c:	02af0a10 12101211 12111210 12101210     ................
3000a08c:	12101211 12321231 12101210 12101210     ....1.2.........
3000a09c:	12101210 12101210 12311232 12311231     ........2.1.1.1.
3000a0ac:	12311211 12111210 12311231 0a10ffff     ..1.....1.1.....
3000a0bc:	ffffffff ffffffff ffffffff ffffffff     ................
3000a0cc:	ffffffff ffffffff ffffffff ffffffff     ................
3000a0dc:	ffffffff ffffffff ffffffff ffffffff     ................
3000a0ec:	ffffffff ffffffff ffffffff ffffffff     ................
3000a0fc:	ffffffff ffffffff ffffffff ffffffff     ................
3000a10c:	ffffffff ffffffff ffffffff ffff11d1     ................
3000a11c:	09f1ffff ffffffff ffffffff ffffffff     ................
3000a12c:	ffffffff ffffffff 11f11210 09f011f0     ................
3000a13c:	12101231 12101231 12311231 12111211     1...1...1.1.....
3000a14c:	12311252 12521252 12311231 12111210     R.1.R.R.1.1.....
3000a15c:	12101210 12101231 12521231 1231ffff     ....1...1.R...1.
3000a16c:	ffffffff ffffffff ffffffff ffffffff     ................
3000a17c:	11f11211 12311231 12101210 12101210     ....1.1.........
3000a18c:	12101210 12101210 12101210 12101210     ................
3000a19c:	12101210 12311232 12311231 121011f0     ....2.1.1.1.....
3000a1ac:	0a0f0a10 12311211 12111231 12100252     ......1.1...R...
3000a1bc:	ffffffff ffffffff ffffffff ffffffff     ................
3000a1cc:	ffffffff ffffffff ffffffff ffffffff     ................
3000a1dc:	ffffffff ffffffff ffffffff ffffffff     ................
3000a1ec:	ffffffff ffffffff ffffffff ffffffff     ................
3000a1fc:	ffffffff ffffffff ffffffff ffffffff     ................
3000a20c:	ffffffff ffffffff 02af0a31 12111231     ........1...1...
3000a21c:	12520a11 018cffff ffffffff ffff0a10     ..R.............
3000a22c:	12100a11 09f01210 12311231 12311211     ........1.1...1.
3000a23c:	12311231 12311252 12321232 12311231     1.1.R.1.2.2.1.1.
3000a24c:	12111210 12101210 12101210 12101210     ................
3000a25c:	12101210 12101210 12311232 1231ffff     ........2.1...1.
3000a26c:	ffffffff ffffffff ffffffff ffffffff     ................
3000a27c:	11f11211 12321210 12101210 12101210     ......2.........
3000a28c:	12101210 12101210 12101210 12101231     ............1...
3000a29c:	12311232 12311210 12111210 ffffffff     2.1...1.........
3000a2ac:	ffff1230 12321211 12111231 1210ffff     0.....2.1.......
3000a2bc:	ffffffff ffffffff ffffffff ffffffff     ................
3000a2cc:	ffffffff ffffffff ffffffff ffffffff     ................
3000a2dc:	ffffffff ffffffff ffffffff ffffffff     ................
3000a2ec:	ffffffff ffffffff ffffffff ffffffff     ................
3000a2fc:	ffffffff ffffffff ffffffff ffffffff     ................
3000a30c:	ffffffff ffff1210 12101231 12311232     ........1...2.1.
3000a31c:	12521211 121011f0 12101210 09f01231     ..R.........1...
3000a32c:	12311231 12111211 12521252 12321231     1.1.....R.R.1.2.
3000a33c:	12311231 12111210 12101210 12101210     1.1.............
3000a34c:	12101210 12101210 12101210 12101210     ................
3000a35c:	12101210 12111231 12311210 19d1ffff     ....1.....1.....
3000a36c:	ffffffff ffffffff ffffffff ffffffff     ................
3000a37c:	1a101211 12311210 12101210 12101210     ......1.........
3000a38c:	12101210 12101210 12101231 12311231     ........1...1.1.
3000a39c:	12321231 121111f0 ffffffff ffffffff     1.2.............
3000a3ac:	03ef1211 12311231 12311211 0a1009cf     ....1.1...1.....
3000a3bc:	122e1a6f 01efffff ffffffff ffffffff     o...............
3000a3cc:	ffffffff ffffffff ffffffff 03ef0a10     ................
3000a3dc:	123111f0 11f011f0 11f011f0 11f01210     ..1.............
3000a3ec:	12101210 12101210 12101251 0a1002aa     ........Q.......
3000a3fc:	ffffffff ffffffff ffffffff ffffffff     ................
3000a40c:	ffff03ef 12111231 12311232 12311210     ....1...2.1...1.
3000a41c:	12101231 12101210 12101210 12101232     1...........2...
3000a42c:	12321231 12311211 12101210 12101210     1.2...1.........
3000a43c:	12101210 12101210 12101210 12101210     ................
3000a44c:	12101210 12101210 12101210 12311231     ............1.1.
3000a45c:	12311231 12311232 123109f0 ffffffff     1.1.2.1...1.....
3000a46c:	ffffffff ffffffff ffffffff ffffffff     ................
3000a47c:	12101231 12311210 12101210 12101210     1.....1.........
3000a48c:	12101210 12101231 12311231 12110a11     ....1...1.1.....
3000a49c:	12311211 ffffffff ffffffff ffffffff     ..1.............
3000a4ac:	03ef1231 12311231 12111210 12311211     1...1.1.......1.
3000a4bc:	12311231 12311231 0a10ffff ffffffff     1.1.1.1.........
3000a4cc:	ffffffff ffffffff ffffffff 0a101210     ................
3000a4dc:	12311210 12101210 12101210 12101210     ..1.............
3000a4ec:	12101210 12101210 12101231 1210122e     ........1.......
3000a4fc:	ffffffff ffffffff ffffffff ffffffff     ................
3000a50c:	ffff1a6f 12101252 12311210 12101210     o...R.....1.....
3000a51c:	12101210 12311231 12311231 12311211     ....1.1.1.1...1.
3000a52c:	12111210 12101210 12101210 12101210     ................
3000a53c:	12101210 12101210 12101210 12101210     ................
3000a54c:	12101211 12311231 12311231 12311231     ....1.1.1.1.1.1.
3000a55c:	12101210 12111211 11efffff ffffffff     ................
3000a56c:	ffffffff ffffffff ffffffff ffffffff     ................
3000a57c:	12111231 12311210 12101210 12101210     1.....1.........
3000a58c:	12101211 12311231 12111231 12300155     ....1.1.1...U.0.
3000a59c:	02b5ffff ffffffff ffffffff ffffffff     ................
3000a5ac:	018c1210 12311211 12101210 12311231     ......1.....1.1.
3000a5bc:	12311231 12311211 12101231 ffffffff     1.1...1.1.......
3000a5cc:	ffffffff ffffffff ffffffff 11f01211     ................
3000a5dc:	12521252 12321232 12321232 12321232     R.R.2.2.2.2.2.2.
3000a5ec:	12321232 12321232 12521252 121011ce     2.2.2.2.R.R.....
3000a5fc:	ffffffff ffffffff ffffffff ffffffff     ................
3000a60c:	ffff2252 12101232 12111210 12101210     R"..2...........
3000a61c:	12101210 12101210 12101210 12101210     ................
3000a62c:	12101210 12101210 12101210 12101210     ................
3000a63c:	12101210 12101210 12101210 12101211     ................
3000a64c:	12311231 12311210 12101231 12111211     1.1...1.1.......
3000a65c:	12100a30 11f111ef ffffffff ffffffff     0...............
3000a66c:	ffffffff ffffffff ffffffff ffffffff     ................
3000a67c:	12101231 12311210 12101210 12101211     1.....1.........
3000a68c:	12111231 12111231 12111231 ffffffff     1...1...1.......
3000a69c:	ffffffff ffffffff ffffffff ffffffff     ................
3000a6ac:	01ef11f0 12311211 12101210 12111231     ......1.....1...
3000a6bc:	12311231 12311232 1231120f ffffffff     1.1.2.1...1.....
3000a6cc:	ffffffff ffffffff ffffffff 11af1210     ................
3000a6dc:	12311210 12101210 12101210 12101231     ..1.........1...
3000a6ec:	12311231 12311231 12311252 12101231     1.1.1.1.R.1.1...
3000a6fc:	ffffffff ffffffff ffffffff ffffffff     ................
3000a70c:	ffffff1f 12101211 12311210 12101210     ..........1.....
3000a71c:	12101210 12101210 12101210 12101210     ................
3000a72c:	12101210 12101210 12101210 12101210     ................
3000a73c:	12101210 12101210 12101210 12111231     ............1...
3000a74c:	12101211 12311230 12311230 122effff     ....0.1.0.1.....
3000a75c:	ffffffff ffffffff ffffffff ffffffff     ................
3000a76c:	ffffffff ffffffff ffffffff ffff01ef     ................
3000a77c:	12111232 12311210 12101210 12111231     2.....1.....1...
3000a78c:	12311211 0a3109f0 ffffffff ffffffff     ..1...1.........
3000a79c:	ffffffff ffffffff ffffffff ffffffff     ................
3000a7ac:	333311f0 12311211 12101210 12101210     ..33..1.........
3000a7bc:	12101210 12101231 12101210 ffffffff     ....1...........
3000a7cc:	ffffffff ffffffff ffffffff ffff11cf     ................
3000a7dc:	12511210 11f011f0 11f011f0 0a101211     ..Q.............
3000a7ec:	12111211 12111211 12111252 123102b5     ........R.....1.
3000a7fc:	ffffffff ffffffff ffffffff ffffffff     ................
3000a80c:	ffffffff 09ef1210 12311210 12101210     ..........1.....
3000a81c:	12101210 12101210 12101210 12101210     ................
3000a82c:	12101210 12101210 12101210 12101210     ................
3000a83c:	12101210 12101210 12101231 12101231     ........1...1...
3000a84c:	123111f0 09f0ffff ffffffff ffffffff     ..1.............
3000a85c:	ffffffff ffffffff ffffffff ffffffff     ................
3000a86c:	ffffffff ffffffff ffffffff ffff014f     ............O...
3000a87c:	12101232 12311210 12101231 12321231     2.....1.1...1.2.
3000a88c:	123109ef ffffffff ffffffff ffffffff     ..1.............
3000a89c:	ffffffff ffffffff ffffffff ffffffff     ................
3000a8ac:	33331210 12311210 12101210 12111210     ..33..1.........
3000a8bc:	12101210 12311232 12110252 ffffffff     ....2.1.R.......
3000a8cc:	ffffffff ffffffff ffffffff 22711210     ..............q"
3000a8dc:	121011f0 11f011f0 11f011f0 12100a10     ................
3000a8ec:	0a100a10 0a101210 12101231 121003ef     ........1.......
3000a8fc:	ffffffff ffffffff ffffffff ffffffff     ................
3000a90c:	ffffffff 01ef1210 12521231 12101210     ........1.R.....
3000a91c:	12101210 12101210 12101210 12101210     ................
3000a92c:	12101210 12101210 12101210 12101210     ................
3000a93c:	12101210 12101210 12111231 121009ef     ........1.......
3000a94c:	ffffffff ffffffff ffffffff ffffffff     ................
3000a95c:	ffffffff ffffffff ffffffff ffffffff     ................
3000a96c:	ffffffff ffffffff ffffffff ffffff0f     ................
3000a97c:	12101231 12111231 12311252 12311210     1...1...R.1...1.
3000a98c:	018cffff ffffffff ffffffff ffffffff     ................
3000a99c:	ffffffff ffffffff ffffffff ffff0a31     ............1...
3000a9ac:	12101231 12311210 12101210 12101210     1.....1.........
3000a9bc:	12101210 12311231 1230ffff ffffffff     ....1.1...0.....
3000a9cc:	ffffffff ffffffff ffffffff 12111231     ............1...
3000a9dc:	12521231 12311231 12311231 12311231     1.R.1.1.1.1.1.1.
3000a9ec:	12311231 12321232 12321252 1211198f     1.1.2.2.R.2.....
3000a9fc:	ffffffff ffffffff ffffffff ffffffff     ................
3000aa0c:	ffffffff ffff1231 12311231 12101210     ....1...1.1.....
3000aa1c:	12101210 12101210 12101210 12101210     ................
3000aa2c:	12101210 12101210 12101210 12101210     ................
3000aa3c:	12101210 12101210 12311211 1210ffff     ..........1.....
3000aa4c:	ffffffff ffffffff ffffffff ffffffff     ................
3000aa5c:	ffffffff ffffffff ffffffff ffffffff     ................
3000aa6c:	ffffffff ffffffff ffffffff ffffffff     ................
3000aa7c:	ffff19ce 12111273 12311231 1210ffff     ....s...1.1.....
3000aa8c:	ffffffff ffffffff ffffffff ffffffff     ................
3000aa9c:	ffffffff ffffffff ffff39ef 12101231     .........9..1...
3000aaac:	12311231 12101210 12111210 12101231     1.1.........1...
3000aabc:	12101211 12311210 11afffff ffffffff     ......1.........
3000aacc:	ffffffff ffffffff ffffffff 0a311231     ............1.1.
3000aadc:	12531252 12521252 12521252 12321232     R.S.R.R.R.R.2.2.
3000aaec:	12321232 12321232 12521273 121011ce     2.2.2.2.s.R.....
3000aafc:	ffffffff ffffffff ffffffff ffffffff     ................
3000ab0c:	ffffffff ffffffff 11f01231 12311210     ........1.....1.
3000ab1c:	12101210 12101210 12101210 12101210     ................
3000ab2c:	12101210 12101210 12101210 12101210     ................
3000ab3c:	12101210 12101211 12111210 19efffff     ................
3000ab4c:	ffffffff ffffffff ffffffff ffffffff     ................
3000ab5c:	ffffffff ffffffff ffffffff ffffffff     ................
3000ab6c:	ffffffff ffffffff ffffffff ffffffff     ................
3000ab7c:	ffffffff 0a311252 1231120f ffffffff     ....R.1...1.....
3000ab8c:	ffffffff ffffffff ffffffff ffffffff     ................
3000ab9c:	ffffffff ffffffff ffff1231 12101252     ........1...R...
3000abac:	12321210 12101211 12311210 12101231     ..2.......1.1...
3000abbc:	12111211 12311210 212dffff ffffffff     ......1...-!....
3000abcc:	ffffffff ffffffff ffffffff 12101211     ................
3000abdc:	12311210 12101210 12101211 12311231     ..1.........1.1.
3000abec:	12101210 12101210 12101231 121011ef     ........1.......
3000abfc:	ffffffff ffffffff ffffffff ffffffff     ................
3000ac0c:	ffffffff ffffffff 122e1210 12321210     ..............2.
3000ac1c:	12101210 12101210 12101210 12101210     ................
3000ac2c:	12101210 12101210 12101210 12101210     ................
3000ac3c:	12101210 12101231 12311210 ffffffff     ....1.....1.....
3000ac4c:	ffffffff ffffffff ffffffff ffffffff     ................
3000ac5c:	ffffffff ffffffff ffffffff ffffffff     ................
3000ac6c:	ffffffff ffffffff ffffffff ffffffff     ................
3000ac7c:	ffffffff ffff19ef ffffffff ffffffff     ................
3000ac8c:	ffffffff ffffffff ffffffff ffffffff     ................
3000ac9c:	ffffffff ffffffff ff0f1211 12311231     ............1.1.
3000acac:	12101210 12101210 12101211 12101210     ................
3000acbc:	12101211 12311210 11afffff ffffffff     ......1.........
3000accc:	ffffffff ffffffff ffffffff 122e1230     ............0...
3000acdc:	12111210 11f011f0 11f01210 12101210     ................
3000acec:	12111210 12101210 12111231 121011ef     ........1.......
3000acfc:	ffffffff ffffffff ffffffff ffffffff     ................
3000ad0c:	ffffffff ffffffff 02aa1210 12311211     ..............1.
3000ad1c:	12101210 12101210 12101210 12101210     ................
3000ad2c:	12101210 12101210 12101210 12101210     ................
3000ad3c:	12101210 12311252 12321231 01efffff     ....R.1.1.2.....
3000ad4c:	ffffffff ffffffff ffffffff ffffffff     ................
3000ad5c:	ffffffff ffffffff ffffffff ffffffff     ................
3000ad6c:	ffffffff ffffffff ffffffff ffffffff     ................
3000ad7c:	ffffffff ffffffff ffffffff ffffffff     ................
3000ad8c:	ffffffff ffffffff ffffffff ffffffff     ................
3000ad9c:	ffffffff ffffffff 19ce1210 12321210     ..............2.
3000adac:	12101210 12101210 12101231 12311210     ........1.....1.
3000adbc:	12101210 12311210 19f1ffff ffffffff     ......1.........
3000adcc:	ffffffff ffffffff ffffffff ffffffff     ................
3000addc:	ffffffff ffffffff ffffffff 198f1210     ................
3000adec:	12311211 12101210 12111231 121011ef     ..1.....1.......
3000adfc:	ffffffff ffffffff ffffffff ffffffff     ................
3000ae0c:	ffffffff ffffffff ffff11f1 12111231     ............1...
3000ae1c:	12101210 12101210 12101210 12101210     ................
3000ae2c:	12101210 12101210 12101210 12101210     ................
3000ae3c:	12311231 12311231 12311211 07ffffff     1.1.1.1...1.....
3000ae4c:	ffffffff ffffffff ffffffff ffffffff     ................
3000ae5c:	ffffffff ffffffff ffffffff ffffffff     ................
3000ae6c:	ffffffff ffffffff ffffffff ffffffff     ................
3000ae7c:	ffffffff ffffffff ffffffff ffffffff     ................
3000ae8c:	ffffffff ffffffff ffffffff ffffffff     ................
3000ae9c:	ffffffff ffffffff 12101211 12311210     ..............1.
3000aeac:	12101210 12101210 12101210 12101210     ................
3000aebc:	12101210 12311210 1271ffff ffffffff     ......1...q.....
3000aecc:	ffffffff ffffffff ffffffff ffffffff     ................
3000aedc:	ffffffff ffffffff ffffffff ff0f1210     ................
3000aeec:	12311211 12101210 12111231 121011ef     ..1.....1.......
3000aefc:	ffffffff ffffffff ffffffff ffffffff     ................
3000af0c:	ffffffff ffffffff ffffff0a 12101232     ............2...
3000af1c:	12311210 12101210 12101210 12101210     ..1.............
3000af2c:	12101210 12101210 12101211 12311231     ............1.1.
3000af3c:	12311232 12310a10 ffffffff ffffffff     2.1...1.........
3000af4c:	ffffffff ffffffff ffffffff ffffffff     ................
3000af5c:	ffffffff ffffffff ffffffff ffffffff     ................
3000af6c:	ffffffff ffffffff ffffffff ffffffff     ................
3000af7c:	ffffffff ffffffff ffffffff ffffffff     ................
3000af8c:	ffffffff ffffffff ffffffff ffffffff     ................
3000af9c:	ffffffff ffff1171 12101231 12101210     ....q...1.......
3000afac:	12101210 12101210 12101210 12101210     ................
3000afbc:	12101231 12311231 ffffffff ffffffff     1...1.1.........
3000afcc:	ffffffff ffffffff ffffffff ffffffff     ................
3000afdc:	ffffffff ffffffff ffffffff 018c1210     ................
3000afec:	12311211 12101210 12111231 121011ef     ..1.....1.......
3000affc:	ffffffff ffffffff ffffffff ffffffff     ................
3000b00c:	ffffffff ffffffff ffffffff 09f01231     ............1...
3000b01c:	12521231 12101210 12101210 12101210     1.R.............
3000b02c:	12101210 12101211 12311231 12311211     ........1.1...1.
3000b03c:	12111231 1230ffff ffffffff ffffffff     1.....0.........
3000b04c:	ffffffff ffffffff ffffffff ffffffff     ................
3000b05c:	ffffffff ffffffff ffffffff ffffffff     ................
3000b06c:	ffffffff ffffffff ffffffff ffffffff     ................
3000b07c:	ffffffff ffffffff ffffffff ffffffff     ................
3000b08c:	ffffffff ffffffff ffffffff ffffffff     ................
3000b09c:	ffffffff ffff1210 12311231 12101210     ........1.1.....
3000b0ac:	12101210 12101210 12101210 12101210     ................
3000b0bc:	12101231 12102233 ffffffff ffffffff     1...3"..........
3000b0cc:	ffffffff ffffffff ffffffff ffffffff     ................
3000b0dc:	ffffffff ffffffff ffffffff 018c1210     ................
3000b0ec:	12311211 12101210 12111231 121011ef     ..1.....1.......
3000b0fc:	ffffffff ffffffff ffffffff ffffffff     ................
3000b10c:	ffffffff ffffffff ffffffff ffff1210     ................
3000b11c:	12311231 12311210 12101210 12101210     1.1...1.........
3000b12c:	12101211 12311231 12311211 12101230     ....1.1...1.0...
3000b13c:	11ef018c ffffffff ffffffff ffffffff     ................
3000b14c:	ffffffff ffffffff ffffffff ffffffff     ................
3000b15c:	ffffffff ffffffff ffffffff ffffffff     ................
3000b16c:	ffffffff ffffffff ffffffff ffffffff     ................
3000b17c:	ffffffff ffffffff ffffffff ffffffff     ................
3000b18c:	ffffffff ffffffff ffffffff ffffffff     ................
3000b19c:	ffffffff 018c1230 12311211 12101210     ....0.....1.....
3000b1ac:	12101210 12101210 12101210 12101210     ................
3000b1bc:	12311211 11f0ffff ffffffff ffffffff     ..1.............
3000b1cc:	ffffffff ffffffff ffffffff ffffffff     ................
3000b1dc:	ffffffff ffffffff ffffffff 018c1210     ................
3000b1ec:	12311211 12101210 12111231 121011ef     ..1.....1.......
3000b1fc:	ffffffff ffffffff ffffffff ffffffff     ................
3000b20c:	ffffffff ffffffff ffffffff ffffffff     ................
3000b21c:	11ef1211 12311231 12111211 12311231     ....1.1.....1.1.
3000b22c:	12311231 12111211 0a311211 11d1ffff     1.1.......1.....
3000b23c:	ffffffff ffffffff ffffffff ffffffff     ................
3000b24c:	ffffffff ffffffff ffffffff ffffffff     ................
3000b25c:	ffffffff ffffffff ffffffff ffffffff     ................
3000b26c:	ffffffff ffffffff ffffffff ffffffff     ................
3000b27c:	ffffffff ffffffff ffffffff ffffffff     ................
3000b28c:	ffffffff ffffffff ffffffff ffffffff     ................
3000b29c:	ffffffff 09f01210 12311210 12101210     ..........1.....
3000b2ac:	12101210 12101210 12101210 12101211     ................
3000b2bc:	12321211 01efffff ffffffff ffffffff     ..2.............
3000b2cc:	ffffffff ffffffff ffffffff ffffffff     ................
3000b2dc:	ffffffff ffffffff ffffffff 018c1210     ................
3000b2ec:	12311211 12101210 12111231 121011ef     ..1.....1.......
3000b2fc:	ffffffff ffffffff ffffffff ffffffff     ................
3000b30c:	ffffffff ffffffff ffffffff ffffffff     ................
3000b31c:	ffff11cf 12111231 12521232 12311210     ....1...2.R...1.
3000b32c:	12111231 123111f1 02afffff ffffffff     1.....1.........
3000b33c:	ffffffff ffffffff ffffffff ffffffff     ................
3000b34c:	ffffffff ffffffff ffffffff ffffffff     ................
3000b35c:	ffffffff ffffffff ffffffff ffffffff     ................
3000b36c:	ffffffff ffffffff ffffffff ffffffff     ................
3000b37c:	ffffffff ffffffff ffffffff ffffffff     ................
3000b38c:	ffffffff ffffffff ffffffff ffffffff     ................
3000b39c:	ffffffff 12511210 12311210 12101210     ......Q...1.....
3000b3ac:	12101210 12101210 12101210 12101210     ................
3000b3bc:	12311211 0a311230 ffffffff ffffffff     ..1.0.1.........
3000b3cc:	ffffffff ffffffff ffffffff ffffffff     ................
3000b3dc:	ffffffff ffffffff ffffffff 018c1210     ................
3000b3ec:	12311211 12101210 12111231 121011ef     ..1.....1.......
3000b3fc:	ffffffff ffffffff ffffffff ffffffff     ................
3000b40c:	ffffffff ffffffff ffffffff ffffffff     ................
3000b41c:	ffffffff 12301211 12311231 12311210     ......0.1.1...1.
3000b42c:	0a3111f1 ffffffff ffffffff ffffffff     ..1.............
3000b43c:	ffffffff ffffffff ffffffff ffffffff     ................
3000b44c:	ffffffff ffffffff ffffffff ffffffff     ................
3000b45c:	ffffffff ffffffff ffffffff ffffffff     ................
3000b46c:	ffffffff ffffffff ffffffff ffffffff     ................
3000b47c:	ffffffff ffffffff ffffffff ffffffff     ................
3000b48c:	ffffffff ffffffff ffffffff ffffffff     ................
3000b49c:	ffffffff 12501231 12311210 12101210     ....1.P...1.....
3000b4ac:	12101210 12101210 12101210 12101211     ................
3000b4bc:	12311210 12311210 01efffff ffffffff     ..1...1.........
3000b4cc:	ffffffff ffffffff ffffffff ffffffff     ................
3000b4dc:	ffffffff ffffffff ffffffff ffff1210     ................
3000b4ec:	12311231 12101210 12111231 121011ef     1.1.....1.......
3000b4fc:	ffffffff ffffffff ffffffff ffffffff     ................
3000b50c:	ffffffff ffffffff ffffffff ffffffff     ................
3000b51c:	ffffffff ffff012d 0a3111f0 02b5ffff     ....-.....1.....
3000b52c:	ffffffff ffffffff ffffffff ffffffff     ................
3000b53c:	ffffffff ffffffff ffffffff ffffffff     ................
3000b54c:	ffffffff ffffffff ffffffff ffffffff     ................
3000b55c:	ffffffff ffffffff ffffffff ffffffff     ................
3000b56c:	ffffffff ffffffff ffffffff ffffffff     ................
3000b57c:	ffffffff ffffffff ffffffff ffffffff     ................
3000b58c:	ffffffff ffffffff ffffffff ffffffff     ................
3000b59c:	ffffffff 12101210 12311210 12101210     ..........1.....
3000b5ac:	12101210 12101210 12101210 12321232     ............2.2.
3000b5bc:	12111210 12320a10 ff1fffff ffffffff     ......2.........
3000b5cc:	ffffffff ffffffff ffffffff ffffffff     ................
3000b5dc:	ffffffff ffffffff ffffffff ffff1210     ................
3000b5ec:	12311231 12101210 12111231 121011ef     1.1.....1.......
3000b5fc:	ffffffff ffffffff ffffffff ffffffff     ................
3000b60c:	ffffffff ffffffff ffffffff ffffffff     ................
3000b61c:	ffffffff ffffffff ffffffff ffffffff     ................
3000b62c:	ffffffff ffffffff ffffffff ffffffff     ................
3000b63c:	ffffffff ffffffff ffffffff ffffffff     ................
3000b64c:	ffffffff ffffffff ffffffff ffffffff     ................
3000b65c:	ffffffff ffffffff ffffffff ffffffff     ................
3000b66c:	ffffffff ffffffff ffffffff ffffffff     ................
3000b67c:	ffffffff ffffffff ffffffff ffffffff     ................
3000b68c:	ffffffff ffffffff ffffffff ffffffff     ................
3000b69c:	ffffffff 02af1210 12311211 12101210     ..........1.....
3000b6ac:	12101210 12101210 12111211 12311211     ..............1.
3000b6bc:	1210ffff ffffffff ffffffff ffffffff     ................
3000b6cc:	ffffffff ffffffff ffffffff ffffffff     ................
3000b6dc:	ffffffff ffffffff ffffffff ffff1210     ................
3000b6ec:	12311231 12101210 12111231 121011ef     1.1.....1.......
3000b6fc:	ffffffff ffffffff ffffffff ffffffff     ................
3000b70c:	ffffffff ffffffff ffffffff ffffffff     ................
3000b71c:	ffffffff ffffffff ffffffff ffffffff     ................
3000b72c:	ffffffff ffffffff ffffffff ffffffff     ................
3000b73c:	ffffffff ffffffff ffffffff ffffffff     ................
3000b74c:	ffffffff ffffffff ffffffff ffffffff     ................
3000b75c:	ffffffff ffffffff ffffffff ffffffff     ................
3000b76c:	ffffffff ffffffff ffffffff ffffffff     ................
3000b77c:	ffffffff ffffffff ffffffff ffffffff     ................
3000b78c:	ffffffff ffffffff ffffffff ffffffff     ................
3000b79c:	ffffffff 01e71231 12321211 12101210     ....1.....2.....
3000b7ac:	12101210 12101210 12311211 1210ffff     ..........1.....
3000b7bc:	ffffffff ffffffff ffffffff ffffffff     ................
3000b7cc:	ffffffff ffffffff ffffffff ffffffff     ................
3000b7dc:	ffffffff ffffffff ffffffff ffff1210     ................
3000b7ec:	12311231 12101210 12111231 121011ef     1.1.....1.......
3000b7fc:	ffffffff ffffffff ffffffff ffffffff     ................
3000b80c:	ffffffff ffffffff ffffffff ffffffff     ................
3000b81c:	ffffffff ffffffff ffffffff ffffffff     ................
3000b82c:	ffffffff ffffffff ffffffff ffffffff     ................
3000b83c:	ffffffff ffffffff ffffffff ffffffff     ................
3000b84c:	ffffffff ffffffff ffffffff ffffffff     ................
3000b85c:	ffffffff ffffffff ffffffff ffffffff     ................
3000b86c:	ffffffff ffffffff ffffffff ffffffff     ................
3000b87c:	ffffffff ffffffff ffffffff ffffffff     ................
3000b88c:	ffffffff ffffffff ffffffff ffffffff     ................
3000b89c:	ffffffff ffff1231 12311231 12101210     ....1...1.1.....
3000b8ac:	12101210 12101210 12311211 0193ffff     ..........1.....
3000b8bc:	ffffffff ffffffff ffffffff ffffffff     ................
3000b8cc:	ffffffff ffffffff ffffffff ffffffff     ................
3000b8dc:	ffffffff ffffffff ffffffff ffff1210     ................
3000b8ec:	12311231 12101210 12111231 121011ef     1.1.....1.......
3000b8fc:	ffffffff ffffffff ffffffff ffffffff     ................
3000b90c:	ffffffff ffffffff ffffffff ffffffff     ................
3000b91c:	ffffffff ffffffff ffffffff ffffffff     ................
3000b92c:	ffffffff ffffffff ffffffff ffffffff     ................
3000b93c:	ffffffff ffffffff ffffffff ffffffff     ................
3000b94c:	ffffffff ffffffff ffffffff ffffffff     ................
3000b95c:	ffffffff ffffffff ffffffff ffffffff     ................
3000b96c:	ffffffff ffffffff ffffffff ffffffff     ................
3000b97c:	ffffffff ffffffff ffffffff ffffffff     ................
3000b98c:	ffffffff ffffffff ffffffff ffffffff     ................
3000b99c:	ffffffff ffff78ff 12101231 12111210     .....x..1.......
3000b9ac:	12101210 12101211 12311231 018c01ef     ........1.1.....
3000b9bc:	02aaffff ffffffff ffffffff ffffffff     ................
3000b9cc:	ffffffff ffffffff ffffffff ffffffff     ................
3000b9dc:	ffffffff ffffffff ffffffff ffff1210     ................
3000b9ec:	12311231 12101210 12111231 121011ef     1.1.....1.......
3000b9fc:	ffffffff ffffffff ffffffff ffffffff     ................
3000ba0c:	ffffffff ffffffff ffffffff ffffffff     ................
3000ba1c:	ffffffff ffffffff ffffffff ffffffff     ................
3000ba2c:	ffffffff ffffffff ffffffff ffffffff     ................
3000ba3c:	ffffffff ffffffff ffffffff ffffffff     ................
3000ba4c:	ffffffff ffffffff ffffffff ffffffff     ................
3000ba5c:	ffffffff ffffffff ffffffff ffffffff     ................
3000ba6c:	ffffffff ffffffff ffffffff ffffffff     ................
3000ba7c:	ffffffff ffffffff ffffffff ffffffff     ................
3000ba8c:	ffffffff ffffffff ffffffff ffffffff     ................
3000ba9c:	ffffffff 11ef09f0 12101231 12111210     ........1.......
3000baac:	12101210 12101211 12311211 12101210     ..........1.....
3000babc:	12111211 11f0ffff ffffffff ffffffff     ................
3000bacc:	ffffffff ffffffff ffffffff ffffffff     ................
3000badc:	ffffffff ffffffff ffffffff ffff1210     ................
3000baec:	12311231 12101210 12111231 121011ef     1.1.....1.......
3000bafc:	ffffffff ffffffff ffffffff ffffffff     ................
3000bb0c:	ffffffff ffffffff ffffffff ffffffff     ................
3000bb1c:	ffffffff ffffffff ffffffff ffffffff     ................
3000bb2c:	ffffffff ffffffff ffffffff ffffffff     ................
3000bb3c:	ffffffff ffffffff ffffffff ffffffff     ................
3000bb4c:	ffffffff ffffffff ffffffff ffffffff     ................
3000bb5c:	ffffffff ffffffff ffffffff ffffffff     ................
3000bb6c:	ffffffff ffffffff ffffffff ffffffff     ................
3000bb7c:	ffffffff ffffffff ffffffff ffffffff     ................
3000bb8c:	ffffffff ffffffff ffffffff ffffffff     ................
3000bb9c:	ff0f0a11 12311231 12101211 12101210     ....1.1.........
3000bbac:	12101210 12101210 12101231 12311231     ........1...1.1.
3000bbbc:	12311211 121111f1 19ef09ef 1231ffff     ..1...........1.
3000bbcc:	ffffffff ffffffff ffffffff ffffffff     ................
3000bbdc:	ffffffff ffffffff ffffffff ffff1211     ................
3000bbec:	12311231 12101210 12111252 1211224d     1.1.....R...M"..
3000bbfc:	ffffffff ffffffff ffffffff ffffffff     ................
3000bc0c:	ffffffff ffffffff ffffffff ffffffff     ................
3000bc1c:	ffffffff ffffffff ffffffff ffffffff     ................
3000bc2c:	ffffffff ffffffff ffffffff ffffffff     ................
3000bc3c:	ffffffff ffffffff ffffffff ffffffff     ................
3000bc4c:	ffffffff ffffffff ffffffff ffffffff     ................
3000bc5c:	ffffffff ffffffff ffffffff ffffffff     ................
3000bc6c:	ffffffff ffffffff ffffffff ffffffff     ................
3000bc7c:	ffffffff ffffffff ffffffff ffffffff     ................
3000bc8c:	ffffffff ffffffff ffffffff ffffffff     ................
3000bc9c:	19ef1211 12521232 12101210 12101210     ....2.R.........
3000bcac:	12101210 12101210 12101211 12111211     ................
3000bcbc:	12111231 12311211 12101231 121001ed     1.....1.1.......
3000bccc:	ffffffff ffffffff ffffffff ffffffff     ................
3000bcdc:	ffffffff ffffffff ffffffff ffff1231     ............1...
3000bcec:	12521231 12101210 12111252 121119ef     1.R.....R.......
3000bcfc:	122eff1f ffffffff ffffffff ffffffff     ................
3000bd0c:	ffffffff ffffffff ffffffff ffffffff     ................
3000bd1c:	ffffffff ffffffff ffffffff ffffffff     ................
3000bd2c:	ffffffff ffffffff ffffffff ffffffff     ................
3000bd3c:	ffffffff ffffffff ffffffff ffffffff     ................
3000bd4c:	ffffffff ffffffff ffffffff ffffffff     ................
3000bd5c:	ffffffff ffffffff ffffffff ffffffff     ................
3000bd6c:	ffffffff ffffffff ffffffff ffffffff     ................
3000bd7c:	ffffffff ffffffff ffffffff ffffffff     ................
3000bd8c:	ffffffff ffffffff ffffffff ffffffff     ................
3000bd9c:	024d1211 12321231 12101210 12101210     ..M.1.2.........
3000bdac:	12101210 12101210 12101210 12101210     ................
3000bdbc:	12101210 12111231 12311252 12100a0f     ....1...R.1.....
3000bdcc:	ffffffff ffffffff ffffffff ffffffff     ................
3000bddc:	ffffffff ffffffff ff0a2252 ffff1252     ........R"..R...
3000bdec:	12111210 12311231 12111231 12311210     ....1.1.1.....1.
3000bdfc:	12311231 ffffffff ffffffff ffffffff     1.1.............
3000be0c:	ffffffff ffffffff ffffffff ffffffff     ................
3000be1c:	ffffffff ffffffff ffffffff ffffffff     ................
3000be2c:	ffffffff ffffffff ffffffff ffffffff     ................
3000be3c:	ffffffff ffffffff ffffffff ffffffff     ................
3000be4c:	ffffffff ffffffff ffffffff ffffffff     ................
3000be5c:	ffffffff ffffffff ffffffff ffffffff     ................
3000be6c:	ffffffff ffffffff ffffffff ffffffff     ................
3000be7c:	ffffffff ffffffff ffffffff ffffffff     ................
3000be8c:	ffffffff ffffffff ffffffff ffffffff     ................
3000be9c:	014f1211 12311211 12101210 12101210     ..O...1.........
3000beac:	12101210 12101210 12111211 12101210     ................
3000bebc:	12101210 12101231 12321252 12311211     ....1...R.2...1.
3000becc:	ffffffff ffffffff ffffffff ffffffff     ................
3000bedc:	ffffffff ffffffff 11f01210 122effff     ................
3000beec:	096f1210 12311231 121009d1 0a4f1210     ..o.1.1.......O.
3000befc:	12521231 ffffffff ffffffff ffffffff     1.R.............
3000bf0c:	ffffffff ffffffff ffffffff ffffffff     ................
3000bf1c:	ffffffff ffffffff ffffffff ffffffff     ................
3000bf2c:	ffffffff ffffffff ffffffff ffffffff     ................
3000bf3c:	ffffffff ffffffff ffffffff ffffffff     ................
3000bf4c:	ffffffff ffffffff ffffffff ffffffff     ................
3000bf5c:	ffffffff ffffffff ffffffff ffffffff     ................
3000bf6c:	ffffffff ffffffff ffffffff ffffffff     ................
3000bf7c:	ffffffff ffffffff ffffffff ffffffff     ................
3000bf8c:	ffffffff ffffffff ffffffff ffffffff     ................
3000bf9c:	12511210 12311210 12101211 12311231     ..Q...1.....1.1.
3000bfac:	12311231 12311232 12321232 12321231     1.1.2.1.2.2.1.2.
3000bfbc:	12111231 12321231 12101211 12111210     1...1.2.........
3000bfcc:	ffffffff ffffffff ffffffff ffffffff     ................
3000bfdc:	ffffffff ffffffff 09ef1210 1231ffff     ..............1.
3000bfec:	31931210 12311232 1210ffff 0a2f1210     ...12.1......./.
3000bffc:	12311211 ffffffff ffffffff ffffffff     ..1.............
3000c00c:	ffffffff ffffffff ffffffff ffffffff     ................
3000c01c:	ffffffff ffffffff ffffffff ffffffff     ................
3000c02c:	ffffffff ffffffff ffffffff ffffffff     ................
3000c03c:	ffffffff ffffffff ffffffff ffffffff     ................
3000c04c:	ffffffff ffffffff ffffffff ffffffff     ................
3000c05c:	ffffffff ffffffff ffffffff ffffffff     ................
3000c06c:	ffffffff ffffffff ffffffff ffffffff     ................
3000c07c:	ffffffff ffffffff ffffffff ffffffff     ................
3000c08c:	ffffffff ffffffff ffffffff ffffffff     ................
3000c09c:	12311210 12521231 12521231 12101210     ..1.1.R.1.R.....
3000c0ac:	12101211 12111231 12111231 12311211     ....1...1.....1.
3000c0bc:	12111231 12311231 12101211 121011ef     1...1.1.........
3000c0cc:	ffffffff ffffffff ffffffff ffffffff     ................
3000c0dc:	ffffffff ffffffff 09f01210 1231ffff     ..............1.
3000c0ec:	198f1210 12311231 121019ef 09ef1210     ....1.1.........
3000c0fc:	12311211 ffffffff ffffffff ffffffff     ..1.............
3000c10c:	ffffffff ffffffff ffffffff ffffffff     ................
3000c11c:	ffffffff ffffffff ffffffff ffffffff     ................
3000c12c:	ffffffff ffffffff ffffffff ffffffff     ................
3000c13c:	ffffffff ffffffff ffffffff ffffffff     ................
3000c14c:	ffffffff ffffffff ffffffff ffffffff     ................
3000c15c:	ffffffff ffffffff ffffffff ffffffff     ................
3000c16c:	ffffffff ffffffff ffffffff ffffffff     ................
3000c17c:	ffffffff ffffffff ffffffff ffffffff     ................
3000c18c:	ffffffff ffffffff ffffffff ffffffff     ................
3000c19c:	31931211 12311231 12311210 0a101210     ...11.1...1.....
3000c1ac:	09f011f0 120f0a0f 09ef09ef 0a0f1230     ............0...
3000c1bc:	12311210 121001ef ffffffff ffffffff     ..1.............
3000c1cc:	ffffffff ffffffff ffffffff ffffffff     ................
3000c1dc:	ffffffff ffffffff 09f01210 1231ffff     ..............1.
3000c1ec:	198f1210 12311231 121019ef 0a101210     ....1.1.........
3000c1fc:	12311211 ffffffff ffffffff ffffffff     ..1.............
3000c20c:	ffffffff ffffffff ffffffff ffffffff     ................
3000c21c:	ffffffff ffffffff ffffffff ffffffff     ................
3000c22c:	ffffffff ffffffff ffffffff ffffffff     ................
3000c23c:	ffffffff ffffffff ffffffff ffffffff     ................
3000c24c:	ffffffff ffffffff ffffffff ffffffff     ................
3000c25c:	ffffffff ffffffff ffffffff ffffffff     ................
3000c26c:	ffffffff ffffffff ffffffff ffffffff     ................
3000c27c:	ffffffff ffffffff ffffffff ffffffff     ................
3000c28c:	ffffffff ffffffff ffffffff ffffffff     ................
3000c29c:	ffffffff 12101231 1210018c ffffffff     ....1...........
3000c2ac:	ffffffff ffffffff ffffffff ffffffff     ................
3000c2bc:	ffffffff ffffffff ffffffff ffffffff     ................
3000c2cc:	ffffffff ffffffff ffffffff ffffffff     ................
3000c2dc:	ffffffff ffffffff 11d01210 1252ffff     ..............R.
3000c2ec:	198f1210 12311231 121019ef 0a101210     ....1.1.........
3000c2fc:	12311211 ffffffff ffffffff ffffffff     ..1.............
3000c30c:	ffffffff ffffffff ffffffff ffffffff     ................
3000c31c:	ffffffff ffffffff ffffffff ffffffff     ................
3000c32c:	ffffffff ffffffff ffffffff ffffffff     ................
3000c33c:	ffffffff ffffffff ffffffff ffffffff     ................
3000c34c:	ffffffff ffffffff ffffffff ffffffff     ................
3000c35c:	ffffffff ffffffff ffffffff ffffffff     ................
3000c36c:	ffffffff ffffffff ffffffff ffffffff     ................
3000c37c:	ffffffff ffffffff ffffffff ffffffff     ................
3000c38c:	ffffffff ffffffff ffffffff ffffffff     ................
3000c39c:	ffffffff ffffffff ffffffff ffffffff     ................
3000c3ac:	ffffffff ffffffff ffffffff ffffffff     ................
3000c3bc:	ffffffff ffffffff ffffffff ffffffff     ................
3000c3cc:	ffffffff ffffffff ffffffff ffffffff     ................
3000c3dc:	ffffffff ffffffff 09f11210 1252ffff     ..............R.
3000c3ec:	198f1210 12311231 121019ef 0a101210     ....1.1.........
3000c3fc:	12311211 ffffffff ffffffff ffffffff     ..1.............
3000c40c:	ffffffff ffffffff ffffffff ffffffff     ................
3000c41c:	ffffffff ffffffff ffffffff ffffffff     ................
3000c42c:	ffffffff ffffffff ffffffff ffffffff     ................
3000c43c:	ffffffff ffffffff ffffffff ffffffff     ................
3000c44c:	ffffffff ffffffff ffffffff ffffffff     ................
3000c45c:	ffffffff ffffffff ffffffff ffffffff     ................
3000c46c:	ffffffff ffffffff ffffffff ffffffff     ................
3000c47c:	ffffffff ffffffff ffffffff ffffffff     ................
3000c48c:	ffffffff 0a101231 0a10ffff ffffffff     ....1...........
3000c49c:	ffffffff ffffffff ffffffff ffffffff     ................
3000c4ac:	ffffffff ffffffff ff0affff ffffffff     ................
3000c4bc:	ffffffff ffffffff ffffffff ffffffff     ................
3000c4cc:	ffffffff ffffffff ffffffff ffffffff     ................
3000c4dc:	ffffffff ffffffff 11f01210 09efffff     ................
3000c4ec:	198f1210 12311231 121019ef 0a101210     ....1.1.........
3000c4fc:	12311211 ffffffff ffffffff ffffffff     ..1.............
3000c50c:	ffffffff ffffffff ffffffff ffffffff     ................
3000c51c:	ffffffff ffffffff ffffffff ffffffff     ................
3000c52c:	ffffffff ffffffff ffffffff ffffffff     ................
3000c53c:	ffffffff ffffffff ffffffff ffffffff     ................
3000c54c:	ffffffff ffffffff ffffffff ffffffff     ................
3000c55c:	ffffffff ffffffff ffffffff ffffffff     ................
3000c56c:	ffffffff ffffffff ffffffff ffffffff     ................
3000c57c:	ffffffff ffffffff ffffffff ffffffff     ................
3000c58c:	ffff018e 12101252 123109ef ffffffff     ....R.....1.....
3000c59c:	ffffffff ffffffff ffffffff ffffffff     ................
3000c5ac:	ffffffff ffff0a10 121009f0 ffffffff     ................
3000c5bc:	ffffffff ffffffff ffffffff ffffffff     ................
3000c5cc:	ffffffff ffffffff ffffffff ffffffff     ................
3000c5dc:	ffffffff ffffffff 11f01210 09f0ffff     ................
3000c5ec:	198f1210 12311231 121019ef 0a101210     ....1.1.........
3000c5fc:	12311211 ffffffff ffffffff ffffffff     ..1.............
3000c60c:	ffffffff ffffffff ffffffff ffffffff     ................
3000c61c:	ffffffff ffffffff ffffffff ffffffff     ................
3000c62c:	ffffffff ffffffff ffffffff ffffffff     ................
3000c63c:	ffffffff ffffffff ffffffff ffffffff     ................
3000c64c:	ffffffff ffffffff ffffffff ffffffff     ................
3000c65c:	ffffffff ffffffff ffffffff ffffffff     ................
3000c66c:	ffffffff ffffffff ffffffff ffffffff     ................
3000c67c:	ffffffff ffffffff ffffffff ffffffff     ................
3000c68c:	ffff1210 12111252 12521231 09cfffff     ....R...1.R.....
3000c69c:	ffffffff ffffffff ffffffff ffffffff     ................
3000c6ac:	ffffffff ffff1210 12321231 ffffffff     ........1.2.....
3000c6bc:	ffffffff ffffffff ffffffff ffffffff     ................
3000c6cc:	ffffffff ffffffff ffffffff ffffffff     ................
3000c6dc:	ffffffff ffffffff 12101210 09f0ffff     ................
3000c6ec:	198f1210 12311231 121019ef 0a101210     ....1.1.........
3000c6fc:	12311211 ffffffff ffffffff ffffffff     ..1.............
3000c70c:	ffffffff ffffffff ffffffff ffffffff     ................
3000c71c:	ffffffff ffffffff ffffffff ffffffff     ................
3000c72c:	ffffffff ffffffff ffffffff ffffffff     ................
3000c73c:	ffffffff ffffffff ffffffff ffffffff     ................
3000c74c:	ffffffff ffffffff ffffffff ffffffff     ................
3000c75c:	ffffffff ffffffff ffffffff ffffffff     ................
3000c76c:	ffffffff ffffffff ffffffff ffffffff     ................
3000c77c:	ffffffff ffffffff ffffffff ffffffff     ................
3000c78c:	ffff1210 12311231 12311231 121002af     ....1.1.1.1.....
3000c79c:	ffffffff ffffffff ffffffff ffffffff     ................
3000c7ac:	ffffffff 0a101211 12521211 ffffffff     ..........R.....
3000c7bc:	ffffffff ffffffff ffffffff ffffffff     ................
3000c7cc:	ffffffff ffffffff ffffffff ffffffff     ................
3000c7dc:	ffffffff ffffffff 12101210 09f0ffff     ................
3000c7ec:	198f1210 12311231 121019ef 0a101210     ....1.1.........
3000c7fc:	12311211 ffffffff ffffffff ffffffff     ..1.............
3000c80c:	ffffffff ffffffff ffffffff ffffffff     ................
3000c81c:	ffffffff ffffffff ffffffff ffffffff     ................
3000c82c:	ffffffff ffffffff ffffffff ffffffff     ................
3000c83c:	ffffffff ffffffff ffffffff ffffffff     ................
3000c84c:	ffffffff ffffffff ffffffff ffffffff     ................
3000c85c:	ffffffff ffffffff ffffffff ffffffff     ................
3000c86c:	ffffffff ffffffff ffffffff ffffffff     ................
3000c87c:	ffffffff ffffffff ffffffff ffffffff     ................
3000c88c:	19ce1210 12311211 12101231 12311210     ......1.1.....1.
3000c89c:	ffffffff ffffffff ffffffff ffffffff     ................
3000c8ac:	ffffff0f 12101231 12321210 224dffff     ....1.....2...M"
3000c8bc:	ffffffff ffffffff ffffffff ffffffff     ................
3000c8cc:	ffffffff ffffffff ffffffff ffffffff     ................
3000c8dc:	ffffffff ffffffff 12101210 09f0ffff     ................
3000c8ec:	198f1210 12311231 121019ef 0a101210     ....1.1.........
3000c8fc:	12311211 ffffffff ffffffff ffffffff     ..1.............
3000c90c:	ffffffff ffffffff ffffffff ffffffff     ................
3000c91c:	ffffffff ffffffff ffffffff ffffffff     ................
3000c92c:	ffffffff ffffffff ffffffff ffffffff     ................
3000c93c:	ffffffff ffffffff ffffffff ffffffff     ................
3000c94c:	ffffffff ffffffff ffffffff ffffffff     ................
3000c95c:	ffffffff ffffffff ffffffff ffffffff     ................
3000c96c:	ffffffff ffffffff ffffffff ffffffff     ................
3000c97c:	ffffffff ffffffff ffffffff ffffffff     ................
3000c98c:	09f11210 12311210 12101211 12321210     ......1.......2.
3000c99c:	19d1ffff ffffffff ffffffff ffffffff     ................
3000c9ac:	ffff11f0 12311231 12311211 1211014f     ....1.1...1.O...
3000c9bc:	01efff0f 01ef014f 024d01ef ffffffff     ....O.....M.....
3000c9cc:	ffffffff ffffffff ffffffff ffffffff     ................
3000c9dc:	ffffffff ffffffff 12101210 09f0ffff     ................
3000c9ec:	198f1210 12311231 121019ef 0a101210     ....1.1.........
3000c9fc:	12311211 ffffffff ffffffff ffffffff     ..1.............
3000ca0c:	ffffffff ffffffff ffffffff ffffffff     ................
3000ca1c:	ffffffff ffffffff ffffffff ffffffff     ................
3000ca2c:	ffffffff ffffffff ffffffff ffffffff     ................
3000ca3c:	ffffffff ffffffff ffffffff ffffffff     ................
3000ca4c:	ffffffff ffffffff ffffffff ffffffff     ................
3000ca5c:	ffffffff ffffffff ffffffff ffffffff     ................
3000ca6c:	ffffffff ffffffff ffffffff ffffffff     ................
3000ca7c:	ffffffff ffffffff ffffffff ffffffff     ................
3000ca8c:	09f11210 12311210 12101210 12311210     ......1.......1.
3000ca9c:	11f1ffff ffffffff ffffffff ffffffff     ................
3000caac:	11f11211 12311210 12101231 12111210     ......1.1.......
3000cabc:	12101210 12111211 12101231 0a1103e0     ........1.......
3000cacc:	ffffffff ffffffff ffffffff ffffffff     ................
3000cadc:	ffffffff ffffffff 12101210 09f0ffff     ................
3000caec:	198f1210 12311231 121019ef 0a101210     ....1.1.........
3000cafc:	12311211 ffffffff ffffffff ffffffff     ..1.............
3000cb0c:	ffffffff ffffffff ffffffff ffffffff     ................
3000cb1c:	ffffffff ffffffff ffffffff ffffffff     ................
3000cb2c:	ffffffff ffffffff ffffffff ffffffff     ................
3000cb3c:	ffffffff ffffffff ffffffff ffffffff     ................
3000cb4c:	ffffffff ffffffff ffffffff ffffffff     ................
3000cb5c:	ffffffff ffffffff ffffffff ffffffff     ................
3000cb6c:	ffffffff ffffffff ffffffff ffffffff     ................
3000cb7c:	ffffffff ffffffff ffffffff ffffffff     ................
3000cb8c:	09f01210 12311210 12101210 12111231     ......1.....1...
3000cb9c:	1210ffff ffffffff ffffffff 12521211     ..............R.
3000cbac:	12111231 12311210 12101210 12311231     1.....1.....1.1.
3000cbbc:	12321231 12321231 12311252 12311210     1.2.1.2.R.1...1.
3000cbcc:	ff0cffff ffffffff ffffffff ffffffff     ................
3000cbdc:	ffffffff ffffffff 11f01210 11f0ffff     ................
3000cbec:	198f1210 12311231 121019ef 0a101210     ....1.1.........
3000cbfc:	12311211 ffffffff ffffffff ffffffff     ..1.............
3000cc0c:	ffffffff ffffffff ffffffff ffffffff     ................
3000cc1c:	ffffffff ffffffff ffffffff ffffffff     ................
3000cc2c:	ffffffff ffffffff ffffffff ffffffff     ................
3000cc3c:	ffffffff ffffffff ffffffff ffffffff     ................
3000cc4c:	ffffffff ffffffff ffffffff ffffffff     ................
3000cc5c:	ffffffff ffffffff ffffffff ffffffff     ................
3000cc6c:	ffffffff ffffffff ffffffff ffffffff     ................
3000cc7c:	ffffffff ffffffff ffffffff ffffffff     ................
3000cc8c:	11d11210 12311211 12101210 12111231     ......1.....1...
3000cc9c:	121111f0 122f1211 11f01210 12101232     ....../.....2...
3000ccac:	12311231 12101210 12101210 12111231     1.1.........1...
3000ccbc:	12311231 12311231 12311231 12521232     1.1.1.1.1.1.2.R.
3000cccc:	11f1ffff ffffffff ffffffff ffffffff     ................
3000ccdc:	ffffffff ffffffff 12101210 0a10ffff     ................
3000ccec:	198f1210 12311231 121019ef 0a101210     ....1.1.........
3000ccfc:	12311211 ffffffff ffffffff ffffffff     ..1.............
3000cd0c:	ffffffff ffffffff ffffffff ffffffff     ................
3000cd1c:	ffffffff ffffffff ffffffff ffffffff     ................
3000cd2c:	ffffffff ffffffff ffffffff ffffffff     ................
3000cd3c:	ffffffff ffffffff ffffffff ffffffff     ................
3000cd4c:	ffffffff ffffffff ffffffff ffffffff     ................
3000cd5c:	ffffffff ffffffff ffffffff ffffffff     ................
3000cd6c:	ffffffff ffffffff ffffffff ffffffff     ................
3000cd7c:	ffffffff ffffffff ffffffff ffffffff     ................
3000cd8c:	318c1210 12311211 12101210 12101210     ...1..1.........
3000cd9c:	12111211 12101232 12311231 12311232     ....2...1.1.2.1.
3000cdac:	12311210 12101210 12101210 12101210     ..1.............
3000cdbc:	12101210 12101210 12101231 12521231     ........1...1.R.
3000cdcc:	1211ffff ffffffff ffffffff ffffffff     ................
3000cddc:	ffffffff ffffffff 11f01210 0a10ffff     ................
3000cdec:	198f1210 12311231 121019ef 0a101210     ....1.1.........
3000cdfc:	12311211 ffffffff ffffffff ffffffff     ..1.............
3000ce0c:	ffffffff ffffffff ffffffff ffffffff     ................
3000ce1c:	ffffffff ffffffff ffffffff ffffffff     ................
3000ce2c:	ffffffff ffffffff ffffffff ffffffff     ................
3000ce3c:	ffffffff ffffffff ffffffff ffffffff     ................
3000ce4c:	ffffffff ffffffff ffffffff ffffffff     ................
3000ce5c:	ffffffff ffffffff ffffffff ffffffff     ................
3000ce6c:	ffffffff ffffffff ffffffff ffffffff     ................
3000ce7c:	ffffffff ffffffff ffffffff ffffffff     ................
3000ce8c:	09f01210 12311210 12101210 12101210     ......1.........
3000ce9c:	12311232 12521252 12321231 12111210     2.1.R.R.1.2.....
3000ceac:	12101210 12101210 12101210 12101210     ................
3000cebc:	12101210 12111232 12521231 123111f0     ....2...1.R...1.
3000cecc:	ff0affff ffffffff ffffffff ffffffff     ................
3000cedc:	ffffffff ffffffff 11f01210 0a10ffff     ................
3000ceec:	198f1210 12311231 121019ef 0a101210     ....1.1.........
3000cefc:	12311211 ffffffff ffffffff ffffffff     ..1.............
3000cf0c:	ffffffff ffffffff ffffffff ffffffff     ................
3000cf1c:	ffffffff ffffffff ffffffff ffffffff     ................
3000cf2c:	ffffffff ffffffff ffffffff ffffffff     ................
3000cf3c:	ffffffff ffffffff ffffffff ffffffff     ................
3000cf4c:	ffffffff ffffffff ffffffff ffffffff     ................
3000cf5c:	ffffffff ffffffff ffffffff ffffffff     ................
3000cf6c:	ffffffff ffffffff ffffffff ffffffff     ................
3000cf7c:	ffffffff ffffffff ffff11cf 12111211     ................
3000cf8c:	12311211 12101210 12101210 12101210     ..1.............
3000cf9c:	12101210 12101210 12101210 12101210     ................
3000cfac:	12101210 12101210 12311232 12521252     ........2.1.R.R.
3000cfbc:	12321252 12311231 12311210 11efffff     R.2.1.1...1.....
3000cfcc:	ffffffff ffffffff ffffffff ffffffff     ................
3000cfdc:	ffffffff ffffffff 11f01210 0a10ffff     ................
3000cfec:	198f1210 12311231 121019ef 0a101210     ....1.1.........
3000cffc:	12311211 ffffffff ffffffff ffffffff     ..1.............
3000d00c:	ffffffff ffffffff ffffffff ffffffff     ................
3000d01c:	ffffffff ffffffff ffffffff ffffffff     ................
3000d02c:	ffffffff ffffffff ffffffff ffffffff     ................
3000d03c:	ffffffff ffffffff ffffffff ffffffff     ................
3000d04c:	ffffffff ffffffff ffffffff ffffffff     ................
3000d05c:	ffffffff ffffffff ffffffff ffffffff     ................
3000d06c:	ffffffff ffffffff ffffffff ffffffff     ................
3000d07c:	ffffffff 0a0f1210 12301231 12311231     ........1.0.1.1.
3000d08c:	12521211 12101210 12101210 12101210     ..R.............
3000d09c:	12101210 12101210 12101210 12101210     ................
3000d0ac:	12101211 12311232 12311231 12311231     ....2.1.1.1.1.1.
3000d0bc:	12111211 12111211 0a31ffff ffffffff     ..........1.....
3000d0cc:	ffffffff ffffffff ffffffff ffffffff     ................
3000d0dc:	ffffffff ffffffff 11f01210 0a10ffff     ................
3000d0ec:	198f1210 12311231 121019ef 0a101210     ....1.1.........
3000d0fc:	12311211 ffffffff ffffffff ffffffff     ..1.............
3000d10c:	ffffffff ffffffff ffffffff ffffffff     ................
3000d11c:	ffffffff ffffffff ffffffff ffffffff     ................
3000d12c:	ffffffff ffffffff ffffffff ffffffff     ................
3000d13c:	ffffffff ffffffff ffffffff ffffffff     ................
3000d14c:	ffffffff ffffffff ffffffff ffffffff     ................
3000d15c:	ffffffff ffffffff ffffffff ffffffff     ................
3000d16c:	ffffffff ffffffff ffffffff ffffffff     ................
3000d17c:	11ef1231 12311231 12311252 12311211     1...1.1.R.1...1.
3000d18c:	12101210 12101210 12101210 12101210     ................
3000d19c:	12101210 12101210 12101210 12101210     ................
3000d1ac:	12111231 12311231 12101210 12111230     1...1.1.....0...
3000d1bc:	0a310a52 2aafffff ffffffff ffffffff     R.1....*........
3000d1cc:	ffffffff ffffffff ffffffff ffffffff     ................
3000d1dc:	ffffffff ffffffff 11f01210 0a10ffff     ................
3000d1ec:	198f1210 12311231 121019ef 0a101210     ....1.1.........
3000d1fc:	12311211 ffffffff ffffffff ffffffff     ..1.............
3000d20c:	ffffffff ffffffff ffffffff ffffffff     ................
3000d21c:	ffffffff ffffffff ffffffff ffffffff     ................
3000d22c:	ffffffff ffffffff ffffffff ffffffff     ................
3000d23c:	ffffffff ffffffff ffffffff ffffffff     ................
3000d24c:	ffffffff ffffffff ffffffff ffffffff     ................
3000d25c:	ffffffff ffffffff ffffffff ffffffff     ................
3000d26c:	ffffffff ffffffff ffffffff 11ef1210     ................
3000d27c:	12311231 12311231 12111210 12101210     1.1.1.1.........
3000d28c:	12101210 12101210 12101210 12101210     ................
3000d29c:	12101210 12101210 12101210 12101231     ............1...
3000d2ac:	12311211 12101230 ffffffff ffffffff     ..1.0...........
3000d2bc:	ffffffff ffffffff ffffffff ffffffff     ................
3000d2cc:	ffffffff ffffffff ffffffff ffffffff     ................
3000d2dc:	ffffffff ffffffff 11f01210 0a10ffff     ................
3000d2ec:	198f1210 12311231 121019ef 0a101210     ....1.1.........
3000d2fc:	12311211 ffffffff ffffffff ffffffff     ..1.............
3000d30c:	ffffffff ffffffff ffffffff ffffffff     ................
3000d31c:	ffffffff ffffffff ffffffff ffffffff     ................
3000d32c:	ffffffff ffffffff ffffffff ffffffff     ................
3000d33c:	ffffffff ffffffff ffffffff ffffffff     ................
3000d34c:	ffffffff ffffffff 11af09f0 09f00a2f     ............/...
3000d35c:	1231ffff ffffffff ffffffff ffffffff     ..1.............
3000d36c:	ffffffff ffffffff ffffffff 12101211     ................
3000d37c:	12531231 12111210 12101210 12101210     1.S.............
3000d38c:	12101210 12101210 12101210 12101210     ................
3000d39c:	12111231 12311210 12101210 12311232     1.....1.....2.1.
3000d3ac:	12111210 ffffffff ffffffff ffffffff     ................
3000d3bc:	ffffffff ffffffff ffffffff ffffffff     ................
3000d3cc:	ffffffff ffffffff ffffffff ffffffff     ................
3000d3dc:	ffffffff ffffffff 11f01210 0a10ffff     ................
3000d3ec:	198f1210 12311231 121019ef 0a101210     ....1.1.........
3000d3fc:	12311211 ffffffff ffffffff ffffffff     ..1.............
3000d40c:	ffffffff ffffffff ffffffff ffffffff     ................
3000d41c:	ffffffff ffffffff ffffffff ffffffff     ................
3000d42c:	ffffffff ffffffff ffffffff ffffffff     ................
3000d43c:	ffffffff ffffffff ffffffff ffffffff     ................
3000d44c:	018c11f2 09f01231 12311211 12101231     ....1.....1.1...
3000d45c:	12311210 012dffff ffffffff ffffffff     ..1...-.........
3000d46c:	ffffffff ffffffff ffffffff 01af1211     ................
3000d47c:	12311231 12311211 12101210 12101210     1.1...1.........
3000d48c:	12111211 12101210 12101210 12101211     ................
3000d49c:	12311231 12311210 12101231 12321231     1.1...1.1...1.2.
3000d4ac:	1210ffff ffffffff ffffffff ffffffff     ................
3000d4bc:	ffffffff ffffffff ffffffff ffffffff     ................
3000d4cc:	ffffffff ffffffff ffffffff ffffffff     ................
3000d4dc:	ffffffff ffffffff 11f01210 0a10ffff     ................
3000d4ec:	198f1210 12311231 121019ef 0a101210     ....1.1.........
3000d4fc:	12311211 ffffffff ffffffff ffffffff     ..1.............
3000d50c:	ffffffff ffffffff ffffffff ffffffff     ................
3000d51c:	ffffffff ffffffff ffffffff ffffffff     ................
3000d52c:	ffffffff ffffffff ffffffff ffffffff     ................
3000d53c:	ffffff0f 02b502b5 01ef024d 120f11f1     ........M.......
3000d54c:	12111211 12301231 12321231 12311231     ....1.0.1.2.1.1.
3000d55c:	12521231 121001ce ffffffff ffffffff     1.R.............
3000d56c:	ffffffff ffffffff ffffffff ffff11af     ................
3000d57c:	12311231 12311232 12311231 12311231     1.1.2.1.1.1.1.1.
3000d58c:	12311231 12311210 12101210 12311232     1.1...1.....2.1.
3000d59c:	12101211 12111210 12321231 12310a10     ........1.2...1.
3000d5ac:	02aaffff ffffffff ffffffff ffffffff     ................
3000d5bc:	ffffffff ffffffff ffffffff ffffffff     ................
3000d5cc:	ffffffff ffffffff ffffffff ffffffff     ................
3000d5dc:	ffffffff ffffffff 11f01210 0a10ffff     ................
3000d5ec:	198f1210 12311231 121019ef 0a101210     ....1.1.........
3000d5fc:	12311211 ffffffff ffffffff ffffffff     ..1.............
3000d60c:	ffffffff ffffffff ffffffff ffffffff     ................
3000d61c:	ffffffff ffffffff ffffffff ffffffff     ................
3000d62c:	ffffffff ffffffff ffffffff ffff1211     ................
3000d63c:	12311210 12310a10 12101210 12101211     ..1...1.........
3000d64c:	12311231 12311231 12311231 12311231     1.1.1.1.1.1.1.1.
3000d65c:	12311231 12311211 1211ffff ffffffff     1.1...1.........
3000d66c:	ffffffff ffffffff ffffffff ffffffff     ................
3000d67c:	01ef1210 12311231 12111210 12101210     ....1.1.........
3000d68c:	12101210 12111231 12311232 12311231     ....1...2.1.1.1.
3000d69c:	0a101231 09f01211 12321211 09f1ffff     1.........2.....
3000d6ac:	ffffffff ffffffff ffffffff ffffffff     ................
3000d6bc:	ffffffff ffffffff ffffffff ffffffff     ................
3000d6cc:	ffffffff ffffffff ffffffff ffffffff     ................
3000d6dc:	ffffffff ffffffff 11f01210 0a10ffff     ................
3000d6ec:	198f1210 12311231 121001ef 0a101210     ....1.1.........
3000d6fc:	12311211 ffffffff ffffffff ffffffff     ..1.............
3000d70c:	ffffffff ffffffff 02aa0a0f 12f1ffff     ................
3000d71c:	ffffffff ffffffff ffffffff ffffffff     ................
3000d72c:	ffffffff ffff1254 12301210 12101211     ....T.....0.....
3000d73c:	12521231 12311231 12311231 12311231     1.R.1.1.1.1.1.1.
3000d74c:	12311231 12111210 12101210 12101210     1.1.............
3000d75c:	12101211 12311252 1211ff0a ffffffff     ....R.1.........
3000d76c:	ffffffff ffffffff ffffffff ffffffff     ................
3000d77c:	ffffffff 014f0a31 09f11230 12311210     ....1.O.0.....1.
3000d78c:	12101210 12101211 12311231 123109d0     ........1.1...1.
3000d79c:	ffff02b5 12101232 12110a10 ffffffff     ....2...........
3000d7ac:	ffffffff ffffffff ffffffff ffffffff     ................
3000d7bc:	ffffffff ffffffff ffffffff ffffffff     ................
3000d7cc:	ffffffff ffffffff ffffffff ffffffff     ................
3000d7dc:	ffffffff ffffffff 11f01210 0a10ffff     ................
3000d7ec:	198f1210 12311231 12100252 0a101210     ....1.1.R.......
3000d7fc:	12311211 ffffffff ffffffff ffffffff     ..1.............
3000d80c:	ffffffff ffff03ef 12111232 12311210     ........2.....1.
3000d81c:	12100a10 11f011f0 121109f0 124f1210     ..............O.
3000d82c:	12101210 12101210 12311231 12311231     ........1.1.1.1.
3000d83c:	12321231 12311231 12311231 12111210     1.2.1.1.1.1.....
3000d84c:	12101210 12101210 12101210 12101210     ................
3000d85c:	12101210 12101232 12311210 ffffffff     ....2.....1.....
3000d86c:	ffffffff ffffffff ffffffff ffffffff     ................
3000d87c:	ffffffff ffffffff ffffffff ffffffff     ................
3000d88c:	ffffffff ffff1210 12310a11 02b5ffff     ..........1.....
3000d89c:	ffff1a12 12101211 116effff ffffffff     ..........n.....
3000d8ac:	ffffffff ffffffff ffffffff ffffffff     ................
3000d8bc:	ffffffff ffffffff ffffffff ffffffff     ................
3000d8cc:	ffffffff ffffffff ffffffff ffffffff     ................
3000d8dc:	ffffffff ffffffff 11f01210 0a10ffff     ................
3000d8ec:	1a501210 12311232 121101ef 11f11210     ..P.2.1.........
3000d8fc:	12311211 ffffffff ffffffff ffffffff     ..1.............
3000d90c:	ffffffff ffff2252 12111253 12321231     ....R"..S...1.2.
3000d91c:	12311231 12311231 12311231 12111231     1.1.1.1.1.1.1...
3000d92c:	12311231 12311231 12321252 12311211     1.1.1.1.R.2...1.
3000d93c:	12101210 12101210 12101210 12101210     ................
3000d94c:	12101210 12101210 12101210 12101210     ................
3000d95c:	12101210 12101210 12321211 11f0ffff     ..........2.....
3000d96c:	ffffffff ffffffff ffffffff ffffffff     ................
3000d97c:	ffffffff ffffffff ffffffff ffffffff     ................
3000d98c:	ffffffff ffffffff ffffffff ffffffff     ................
3000d99c:	ffff2ab5 11f1ffff ffffffff ffffffff     .*..............
3000d9ac:	ffffffff ffffffff ffffffff ffffffff     ................
3000d9bc:	ffffffff ffffffff ffffffff ffffffff     ................
3000d9cc:	ffffffff ffffffff ffffffff ffffffff     ................
3000d9dc:	ffffffff ffffffff 11f01210 0a10ffff     ................
3000d9ec:	11f11210 12311231 1211ff0a 11f11210     ....1.1.........
3000d9fc:	12311211 ffffffff ffffffff ffffffff     ..1.............
3000da0c:	ffffffff ffff224d 12101252 12111231     ....M"..R...1...
3000da1c:	12321232 12521252 12521252 12321252     2.2.R.R.R.R.R.2.
3000da2c:	12321231 12311210 12101210 12101210     1.2...1.........
3000da3c:	12101210 12101210 12101210 12101210     ................
3000da4c:	12101210 12101210 12101210 12101210     ................
3000da5c:	12101210 12101210 12311231 121002aa     ........1.1.....
3000da6c:	ffffffff ffffffff ffffffff ffffffff     ................
3000da7c:	ffffffff ffffffff ffffffff ffffffff     ................
3000da8c:	ffffffff ffffffff ffffffff ffffffff     ................
3000da9c:	ffffffff ffffffff ffffffff ffffffff     ................
3000daac:	ffffffff ffffffff ffffffff ffffffff     ................
3000dabc:	ffffffff ffffffff ffffffff ffffffff     ................
3000dacc:	ffffffff ffffffff ffffffff ffffffff     ................
3000dadc:	ffffffff ffffffff 11f01210 0a10ffff     ................
3000daec:	11f11210 12311231 1211ff0a 11f11210     ....1.1.........
3000dafc:	12311211 ffffffff ffffffff ffffffff     ..1.............
3000db0c:	ffffffff ffffff0a 12101231 12321210     ........1.....2.
3000db1c:	12101210 12101210 12101210 12101210     ................
3000db2c:	12101210 12101210 12101210 12101210     ................
3000db3c:	12101210 12101210 12101210 12101210     ................
3000db4c:	12101210 12101210 12101210 12101210     ................
3000db5c:	12101210 12101210 12101231 121111ef     ........1.......
3000db6c:	ffffffff ffffffff ffffffff ffffffff     ................
3000db7c:	ffffffff ffffffff ffffffff ffffffff     ................
3000db8c:	ffffffff ffffffff ffffffff ffffffff     ................
3000db9c:	ffffffff ffffffff ffffffff ffffffff     ................
3000dbac:	ffffffff ffffffff ffffffff ffffffff     ................
3000dbbc:	ffffffff ffffffff ffffffff ffffffff     ................
3000dbcc:	ffffffff ffffffff ffffffff ffffffff     ................
3000dbdc:	ffffffff ffffffff 11f01210 0a10ffff     ................
3000dbec:	11ef1210 12311231 121102aa 11f11210     ....1.1.........
3000dbfc:	12311211 ffffffff ffffffff ffffffff     ..1.............
3000dc0c:	ffffffff ffffffff 19ce1210 12321231     ............1.2.
3000dc1c:	12101210 12101210 12101210 12101210     ................
3000dc2c:	12101210 12101210 12101210 12101210     ................
3000dc3c:	12101210 12101210 12101210 12101210     ................
3000dc4c:	12101210 12101210 12101210 12101210     ................
3000dc5c:	12311231 12311231 12521252 121011d0     1.1.1.1.R.R.....
3000dc6c:	ffffffff ffffffff ffffffff ffffffff     ................
3000dc7c:	ffffffff ffffffff ffffffff ffffffff     ................
3000dc8c:	ffffffff ffffffff ffffffff ffffffff     ................
3000dc9c:	ffffffff ffffffff ffffffff ffffffff     ................
3000dcac:	ffffffff ffffffff ffffffff ffffffff     ................
3000dcbc:	ffffffff ffffffff ffffffff ffffffff     ................
3000dccc:	ffffffff ffffffff ffffffff ffffffff     ................
3000dcdc:	ffffffff ffffffff 11f01210 0a10ffff     ................
3000dcec:	11ef1210 12311231 121102aa 11f11210     ....1.1.........
3000dcfc:	12311211 ffffffff ffffffff ffffffff     ..1.............
3000dd0c:	ffffffff ffffffff ffff09f0 12111231     ............1...
3000dd1c:	12311210 12101210 12101210 12101210     ..1.............
3000dd2c:	12101210 12101210 12101210 12101210     ................
3000dd3c:	12101210 12101210 12101210 12101210     ................
3000dd4c:	12101210 12101231 12311231 12311231     ....1...1.1.1.1.
3000dd5c:	12311231 12321231 12521232 0a100132     1.1.1.2.2.R.2...
3000dd6c:	ffffffff ffffffff ffffffff ffffffff     ................
3000dd7c:	ffffffff ffffffff ffffffff ffffffff     ................
3000dd8c:	ffffffff ffffffff ffffffff ffffffff     ................
3000dd9c:	ffffffff ffffffff ffffffff ffffffff     ................
3000ddac:	ffffffff ffffffff ffffffff ffffffff     ................
3000ddbc:	ffffffff fffff0ff f8fff8ff f8fff8ff     ................
3000ddcc:	f8fff8ff ffffffff ffffffff ffffffff     ................
3000dddc:	ffffffff ffffffff 11f01210 0a10ffff     ................
3000ddec:	11ef1210 12311231 121102aa 11f11210     ....1.1.........
3000ddfc:	12311211 ffffffff ffffffff ffffffff     ..1.............
3000de0c:	ffffffff ffffffff ffffffff ff0f1211     ................
3000de1c:	12311231 12101210 12101210 12101210     1.1.............
3000de2c:	12101210 12101210 12101210 12101210     ................
3000de3c:	12101210 12101210 12101210 12101210     ................
3000de4c:	12101210 12311231 12311231 12321231     ....1.1.1.1.1.2.
3000de5c:	12101210 12111210 12311231 ffffffff     ........1.1.....
3000de6c:	ffffffff ffffffff ffffffff ffffffff     ................
3000de7c:	ffffffff ffffffff ffffffff ffffffff     ................
3000de8c:	ffffffff fffff8ff f8fff8ff ffffffff     ................
3000de9c:	ffffffff f8fff8ff f0ffffff ffffffff     ................
3000deac:	ffffffff ffffffff ffffffff ffffffff     ................
3000debc:	fffff8ff f8fff8ff f8fff8ff f8fff8ff     ................
3000decc:	f8fff8ff f8fff8ff f0ffffff ffffffff     ................
3000dedc:	ffffffff ffffffff 11f01210 0a10ffff     ................
3000deec:	11ef1210 12311231 121102aa 11f11210     ....1.1.........
3000defc:	12311211 ffffffff ffffffff ffffffff     ..1.............
3000df0c:	ffffffff ffffffff ffffffff ffff19f1     ................
3000df1c:	12101232 12111210 12101210 12101210     2...............
3000df2c:	12101210 12101210 12101210 12101210     ................
3000df3c:	12101210 12101210 12101210 12101210     ................
3000df4c:	12111231 12311210 12101210 12311231     1.....1.....1.1.
3000df5c:	02afff0f ff1fffff ffffffff ffffffff     ................
3000df6c:	ffffffff ffffffff ffffffff ffffffff     ................
3000df7c:	ffffffff ffffffff ffffffff ffffffff     ................
3000df8c:	ffffffff f8fff8ff f8fff8ff ffffffff     ................
3000df9c:	ffffffff f8fff8ff f8fff8ff f8fff8ff     ................
3000dfac:	f8ffffff ffffffff ffffffff fffff8ff     ................
3000dfbc:	f8fff8ff f8fff8ff f8fff8ff f8fff8ff     ................
3000dfcc:	f8fff8ff f8fff8ff f8fff8ff f8ffffff     ................
3000dfdc:	ffffffff ffffffff 11f01210 0a10ffff     ................
3000dfec:	11ef1210 12311231 121102aa 11f11210     ....1.1.........
3000dffc:	12311211 ffffffff ffffffff ffffffff     ..1.............
3000e00c:	ffffffff ffffffff ffffffff ffffffff     ................
3000e01c:	12311211 12311210 12101210 12101210     ..1...1.........
3000e02c:	12101210 12101210 12101210 12101210     ................
3000e03c:	12101210 12101210 12101210 12101231     ............1...
3000e04c:	12311231 121109f0 11ef1a6f 014fffff     1.1.....o.....O.
3000e05c:	ffffffff ffffffff ffffffff ffffffff     ................
3000e06c:	ffffffff ffffffff ffffffff ffffffff     ................
3000e07c:	ffffffff ffffffff ffffffff ffffffff     ................
3000e08c:	fffff0ff f8fff8ff f8fff8ff ffffffff     ................
3000e09c:	ffffffff f8fff8ff f8fff8ff f8fff8ff     ................
3000e0ac:	f8fff8ff f8fff8ff f8fff8ff f8fff8ff     ................
3000e0bc:	f8fff8ff f8fff8ff f8fff8ff f8fff8ff     ................
3000e0cc:	f8fff8ff f8fff8ff f8fff8ff f8fff8ff     ................
3000e0dc:	ffffffff ffffffff 11f01210 0a10ffff     ................
3000e0ec:	11ef1210 12311231 121102aa 11f11210     ....1.1.........
3000e0fc:	12311211 ffffffff ffffffff ffffffff     ..1.............
3000e10c:	ffffffff ffffffff ffffffff ffffffff     ................
3000e11c:	ffff1210 12311231 12101210 12101210     ....1.1.........
3000e12c:	12101210 12101210 12101210 12101210     ................
3000e13c:	12101210 12101210 12101210 12311231     ............1.1.
3000e14c:	12311211 19d1ffff ffffffff ffffffff     ..1.............
3000e15c:	ffffffff ffffffff ffffffff ffffffff     ................
3000e16c:	ffffffff ffffffff ffffffff ffffffff     ................
3000e17c:	ffffffff ffffffff ffffffff ffffffff     ................
3000e18c:	f8fff8ff f8fff8ff f8fff8ff ffffffff     ................
3000e19c:	ffffffff f8fff8ff f8fff8ff f8fff8ff     ................
3000e1ac:	f8fff8ff f8fff8ff f8fff8ff f8fff8ff     ................
3000e1bc:	f8fff8ff f8fff8ff f8fff8ff f8fff8ff     ................
3000e1cc:	f8fff8ff f8fff8ff f8fff8ff f8fff8ff     ................
3000e1dc:	ffffffff ffffffff 11f01210 0a10ffff     ................
3000e1ec:	11ef1210 12311231 121102aa 11f11210     ....1.1.........
3000e1fc:	12311211 ffffffff ffffffff ffffffff     ..1.............
3000e20c:	ffffffff ffffffff ffffffff ffffffff     ................
3000e21c:	ffff198f 12311232 12311210 12101210     ....2.1...1.....
3000e22c:	12101210 12101210 12101210 12101210     ................
3000e23c:	12101210 12101210 12311252 12111231     ........R.1.1...
3000e24c:	11d0ffff ffffffff ffffffff ffffffff     ................
3000e25c:	ffffffff ffffffff ffffffff ffffffff     ................
3000e26c:	ffffffff ffffffff ffffffff ffffffff     ................
3000e27c:	ffffffff ffffffff ffffffff fffff8ff     ................
3000e28c:	f8fff8ff f8fff8ff ffffffff ffffffff     ................
3000e29c:	ffffffff fffff8ff f8fff8ff f8fff8ff     ................
3000e2ac:	f8fff8ff f8fff8ff f8fff8ff f8fff8ff     ................
3000e2bc:	f8fff8ff f8fff8ff f8fff8ff f8fff8ff     ................
3000e2cc:	f8fff8ff f8fff8ff f8fff8ff f8fff8ff     ................
3000e2dc:	f8ffffff ffffffff 11f01210 0a10ffff     ................
3000e2ec:	11ef1210 12311231 121102aa 11f11210     ....1.1.........
3000e2fc:	12311211 ffffffff ffffffff ffffffff     ..1.............
3000e30c:	ffffffff ffffffff ffffffff ffffffff     ................
3000e31c:	ffffffff 122f1211 12321210 12101210     ....../...2.....
3000e32c:	12101210 12101210 12101210 12311231     ............1.1.
3000e33c:	12101210 12101231 12311231 121011ef     ....1...1.1.....
3000e34c:	ffffffff ffffffff ffffffff ffffffff     ................
3000e35c:	ffffffff ffffffff ffffffff ffffffff     ................
3000e36c:	ffffffff ffffffff ffffffff ffffffff     ................
3000e37c:	ffffffff ffffffff ffffffff fffff8ff     ................
3000e38c:	f8fff8ff f8fff8ff ffffffff ffffffff     ................
3000e39c:	ffffffff ffffffff f8fff8ff f8fff8ff     ................
3000e3ac:	f8fff8ff f8fff8ff f8fff8ff f8fff8ff     ................
3000e3bc:	f8fff8ff f8fff8ff f8fff8ff f8fff8ff     ................
3000e3cc:	f8fff8ff f8fff8ff f8fff8ff f8fff8ff     ................
3000e3dc:	f8ffffff ffffffff 11f01210 0a10ffff     ................
3000e3ec:	11ef1210 12311231 121102aa 11f11210     ....1.1.........
3000e3fc:	12311211 ffffffff ffffffff ffffffff     ..1.............
3000e40c:	ffffffff ffffffff ffffffff ffffffff     ................
3000e41c:	ffffffff ffff1210 12311252 12111210     ........R.1.....
3000e42c:	12101210 12111231 12521232 12111210     ....1...2.R.....
3000e43c:	12101210 12311231 12111210 ffffffff     ....1.1.........
3000e44c:	ffffffff ffffffff ffffffff ffffffff     ................
3000e45c:	ffffffff ffffffff ffffffff ffffffff     ................
3000e46c:	ffffffff ffffffff ffffffff ffffffff     ................
3000e47c:	ffffffff ffffffff ffffffff f8fff8ff     ................
3000e48c:	f8fff8ff f8fff8ff ffffffff ffffffff     ................
3000e49c:	ffffffff ffffffff fffff8ff f8fff8ff     ................
3000e4ac:	f8fff8ff f8fff8ff f8fff8ff f8fff8ff     ................
3000e4bc:	f8fff8ff f8fff8ff f8fff8ff f8fff8ff     ................
3000e4cc:	f8fff8ff f8fff8ff f8fff8ff f8fff8ff     ................
3000e4dc:	f8ffffff ffffffff 11f01210 0a10ffff     ................
3000e4ec:	11ef1210 12311231 121102aa 11f11210     ....1.1.........
3000e4fc:	12311211 ffffffff ffffffff ffffffff     ..1.............
3000e50c:	ffffffff ffffffff ffffffff ffffffff     ................
3000e51c:	ffffffff ffffffff 12101231 12521231     ........1...1.R.
3000e52c:	12311252 12311231 12311210 12101210     R.1.1.1...1.....
3000e53c:	12101232 12311211 11f0ffff ffffffff     2.....1.........
3000e54c:	ffffffff ffffffff ffffffff ffffffff     ................
3000e55c:	ffffffff ffffffff ffffffff ffffffff     ................
3000e56c:	ffffffff ffffffff ffffffff ffffffff     ................
3000e57c:	ffffffff ffffffff fffff8ff f8fff8ff     ................
3000e58c:	f8fff8ff f8fff8ff ffffffff ffffffff     ................
3000e59c:	ffffffff ffffffff fffff8ff f8fff8ff     ................
3000e5ac:	f8fff8ff f8fff8ff f8fff8ff f8fff8ff     ................
3000e5bc:	f8fff8ff f8fff8ff f8fff8ff f8fff8ff     ................
3000e5cc:	f8fff8ff f8fff8ff f8fff8ff f8fff8ff     ................
3000e5dc:	ffffffff ffffffff 11f01210 0a10ffff     ................
3000e5ec:	11ef1210 12311231 121102aa 11f11210     ....1.1.........
3000e5fc:	12311211 ffffffff ffffffff ffffffff     ..1.............
3000e60c:	ffffffff ffffffff ffffffff ffffffff     ................
3000e61c:	ffffffff ffffffff 19ce1211 12311231     ............1.1.
3000e62c:	12311232 12311210 1210018c ffff1231     2.1...1.....1...
3000e63c:	12521231 1210114d ffffffff ffffffff     1.R.M...........
3000e64c:	ffffffff ffffffff ffffffff ffffffff     ................
3000e65c:	ffffffff ffffffff ffffffff ffffffff     ................
3000e66c:	ffffffff ffffffff ffffffff ffffffff     ................
3000e67c:	ffffffff ffffffff fffff8ff f8fff8ff     ................
3000e68c:	f8fff8ff f8ffffff ffffffff ffffffff     ................
3000e69c:	ffffffff ffffffff ffffffff f8fff8ff     ................
3000e6ac:	f8fff8ff f8fff8ff f8fff8ff f8fff8ff     ................
3000e6bc:	f8fff8ff f8fff8ff f8fff8ff f8fff8ff     ................
3000e6cc:	f8fff8ff f8fff8ff f8fff8ff ffffffff     ................
3000e6dc:	ffffffff ffffffff 11f01210 0a10ffff     ................
3000e6ec:	11ef1210 12311231 121102aa 11f11210     ....1.1.........
3000e6fc:	12311211 ffffffff ffffffff ffffffff     ..1.............
3000e70c:	ffffffff ffffffff ffffffff ffffffff     ................
3000e71c:	ffffffff ffffffff ffffffff 12101231     ............1...
3000e72c:	12101211 01efffff ffffffff 12101231     ............1...
3000e73c:	12531210 294affff ffffffff ffffffff     ..S...J)........
3000e74c:	ffffffff ffffffff ffffffff ffffffff     ................
3000e75c:	ffffffff ffffffff ffffffff ffffffff     ................
3000e76c:	ffffffff ffffffff ffffffff ffffffff     ................
3000e77c:	ffffffff ffffffff fffff8ff f8fff8ff     ................
3000e78c:	f8fff8ff f8ffffff ffffffff ffffffff     ................
3000e79c:	ffffffff ffffffff ffffffff ffffffff     ................
3000e7ac:	f8fff8ff f8fff8ff f8fff8ff f8fff8ff     ................
3000e7bc:	f8fff8ff f8fff8ff f8fff8ff f8ffffff     ................
3000e7cc:	ffffffff ffffffff ffffffff ffffffff     ................
3000e7dc:	ffffffff ffffffff 11f01210 0a10ffff     ................
3000e7ec:	11ef1210 12311231 121102aa 11f11210     ....1.1.........
3000e7fc:	12311211 ffffffff ffffffff ffffffff     ..1.............
3000e80c:	ffffffff ffffffff ffffffff ffffffff     ................
3000e81c:	ffffffff ffffffff ffffffff ffffffff     ................
3000e82c:	ffffffff ffffffff ffff1210 12101231     ............1...
3000e83c:	1211ffff ffffffff ffffffff ffffffff     ................
3000e84c:	ffffffff ffffffff ffffffff ffffffff     ................
3000e85c:	ffffffff ffffffff ffffffff ffffffff     ................
3000e86c:	ffffffff ffffffff ffffffff ffffffff     ................
3000e87c:	ffffffff ffffffff f8fff8ff f8fff8ff     ................
3000e88c:	f8fff8ff f8ffffff ffffffff ffffffff     ................
3000e89c:	ffffffff ffffffff ffffffff ffffffff     ................
3000e8ac:	f8fff8ff f8fff8ff f8fff8ff f8fff8ff     ................
3000e8bc:	f8fff8ff f8fff8ff f8ffffff ffffffff     ................
3000e8cc:	ffffffff ffffffff ffffffff ffffffff     ................
3000e8dc:	ffffffff ffffffff 11f01210 0a10ffff     ................
3000e8ec:	11ef1210 12311231 121102aa 11f11210     ....1.1.........
3000e8fc:	12311211 ffffffff ffffffff ffffffff     ..1.............
3000e90c:	ffffffff ffffffff ffffffff ffffffff     ................
3000e91c:	ffffffff ffffffff ffffffff ffffffff     ................
3000e92c:	ffffffff ffffff0f 11f01210 12101171     ............q...
3000e93c:	ffffffff ffffffff ffffffff ffffffff     ................
3000e94c:	ffffffff ffffffff ffffffff ffffffff     ................
3000e95c:	ffffffff ffffffff ffffffff ffffffff     ................
3000e96c:	ffffffff ffffffff ffffffff ffffffff     ................
3000e97c:	ffffffff ffffffff f8fff8ff f8fff8ff     ................
3000e98c:	f8fff8ff f8ffffff fffff8ff f8fff8ff     ................
3000e99c:	f8fff8ff ffffffff ffffffff ffffffff     ................
3000e9ac:	fffff0ff f8fff8ff f8fff8ff f8fff8ff     ................
3000e9bc:	f8fff8ff f8fff0ff f8fff8ff ffffffff     ................
3000e9cc:	ffffffff ffffffff ffffffff ffffffff     ................
3000e9dc:	ffffffff ffffffff 11f01210 0a10ffff     ................
3000e9ec:	11ef1210 12311231 121102aa 11f11210     ....1.1.........
3000e9fc:	12311211 ffffffff ffffffff ffffffff     ..1.............
3000ea0c:	ffffffff ffffffff ffffffff ffffffff     ................
3000ea1c:	ffffffff ffffffff ffffffff ffffffff     ................
3000ea2c:	ffffffff ffff09f0 12101211 212dffff     ..............-!
3000ea3c:	ffffffff ffffffff ffffffff ffffffff     ................
3000ea4c:	ffffffff ffffffff ffffffff ffffffff     ................
3000ea5c:	ffffffff ffffffff ffffffff ffffffff     ................
3000ea6c:	ffffffff ffffffff ffffffff ffffffff     ................
3000ea7c:	ffffffff fffff8ff f8fff8ff f8fff8ff     ................
3000ea8c:	f8fff8ff f8ffffff f8fff8ff f8fff8ff     ................
3000ea9c:	f8fff8ff f8fff8ff f8ffffff ffffffff     ................
3000eaac:	ffffffff f8fff8ff f8fff8ff f8fff8ff     ................
3000eabc:	f8fff8ff f8fff8ff f8fff8ff f8fff8ff     ................
3000eacc:	ffffffff ffffffff ffffffff ffffffff     ................
3000eadc:	ffffffff ffffffff 11f01210 0a10ffff     ................
3000eaec:	11ef1210 12311231 121102aa 11f11210     ....1.1.........
3000eafc:	12311211 ffffffff ffffffff ffffffff     ..1.............
3000eb0c:	ffffffff ffffffff ffffffff ffffffff     ................
3000eb1c:	ffffffff ffffffff ffffffff ffffffff     ................
3000eb2c:	ffffffff ff0f1210 12100252 ffffffff     ........R.......
3000eb3c:	ffffffff ffffffff ffffffff ffffffff     ................
3000eb4c:	ffffffff ffffffff ffffffff ffffffff     ................
3000eb5c:	ffffffff ffffffff ffffffff ffffffff     ................
3000eb6c:	ffffffff ffffffff ffffffff ffffffff     ................
3000eb7c:	ffffffff fffff8ff f8fff8ff f8fff8ff     ................
3000eb8c:	f8fff8ff f8ffffff f8fff8ff f8fff8ff     ................
3000eb9c:	f8fff8ff f8fff8ff f8fff8ff f8fff8ff     ................
3000ebac:	f8fff8ff f8fff8ff f8fff8ff f8fff8ff     ................
3000ebbc:	f8fff8ff f8fff8ff f8fff8ff f8fff8ff     ................
3000ebcc:	f8ffffff ffffffff ffffffff ffffffff     ................
3000ebdc:	ffffffff ffffffff 11f01210 0a10ffff     ................
3000ebec:	11ef1210 12311231 121102aa 11f11210     ....1.1.........
3000ebfc:	12311211 ffffffff ffffffff ffffffff     ..1.............
3000ec0c:	ffffffff ffffffff ffffffff ffffffff     ................
3000ec1c:	ffffffff ffffffff ffffffff ffffffff     ................
3000ec2c:	ffffffff ffff02b5 02aaffff ffffffff     ................
3000ec3c:	ffffffff ffffffff ffffffff ffffffff     ................
3000ec4c:	ffffffff ffffffff ffffffff ffffffff     ................
3000ec5c:	ffffffff ffffffff ffffffff ffffffff     ................
3000ec6c:	ffffffff ffffffff ffffffff ffffffff     ................
3000ec7c:	ffffffff f8fff8ff f8fff8ff f8fff8ff     ................
3000ec8c:	f8fff8ff f8ffffff f8fff8ff f8fff8ff     ................
3000ec9c:	f8fff8ff f8fff8ff f8fff8ff f8fff8ff     ................
3000ecac:	f8fff8ff f8fff8ff f8fff8ff f8fff8ff     ................
3000ecbc:	f8fff8ff f8fff8ff f8fff8ff f8fff8ff     ................
3000eccc:	f8fff8ff ffffffff ffffffff ffffffff     ................
3000ecdc:	ffffffff ffffffff 11f01210 0a10ffff     ................
3000ecec:	11ef1210 12311231 121102aa 11f11210     ....1.1.........
3000ecfc:	12311211 ffffffff ffffffff ffffffff     ..1.............
3000ed0c:	ffffffff ffffffff ffffffff ffffffff     ................
3000ed1c:	ffffffff ffffffff ffffffff ffffffff     ................
3000ed2c:	ffffffff ffffffff ffffffff ffffffff     ................
3000ed3c:	ffffffff ffffffff ffffffff ffffffff     ................
3000ed4c:	ffffffff ffffffff ffffffff ffffffff     ................
3000ed5c:	ffffffff ffffffff ffffffff ffffffff     ................
3000ed6c:	ffffffff ffffffff ffffffff ffffffff     ................
3000ed7c:	ffffffff f8fff8ff f8fff8ff f8fff8ff     ................
3000ed8c:	f8fff8ff f8ffffff fffff8ff f8fff8ff     ................
3000ed9c:	f8fff8ff f8fff8ff f8fff8ff f8fff8ff     ................
3000edac:	f8fff8ff f8fff8ff f8fff8ff f8fff8ff     ................
3000edbc:	f8fff8ff f8fff8ff f8fff8ff f8fff8ff     ................
3000edcc:	f8fff8ff ffffffff ffffffff ffffffff     ................
3000eddc:	ffffffff ffffffff 11f01210 0a10ffff     ................
3000edec:	11ef1210 12311231 121102aa 11f11210     ....1.1.........
3000edfc:	12311211 ffffffff ffffffff ffffffff     ..1.............
3000ee0c:	ffffffff ffffffff ffffffff ffffffff     ................
3000ee1c:	ffffffff ffffffff ffffffff ffffffff     ................
3000ee2c:	ffffffff ffffffff ffffffff ffffffff     ................
3000ee3c:	ffffffff ffffffff ffffffff ffffffff     ................
3000ee4c:	ffffffff ffffffff ffffffff ffffffff     ................
3000ee5c:	ffffffff ffffffff ffffffff ffffffff     ................
3000ee6c:	ffffffff ffffffff ffffffff ffffffff     ................
3000ee7c:	fffff8ff f8fff8ff f8fff8ff f8fff8ff     ................
3000ee8c:	f8fff8ff f8ffffff ffffffff f8fff8ff     ................
3000ee9c:	f8fff8ff f8fff8ff f8fff8ff f8fff8ff     ................
3000eeac:	f8fff8ff f8fff8ff f8fff8ff f8fff8ff     ................
3000eebc:	f8fff8ff f8fff8ff f8fff8ff f8fff8ff     ................
3000eecc:	f8fff8ff ffffffff ffffffff ffffffff     ................
3000eedc:	ffffffff ffffffff 11f01210 0a10ffff     ................
3000eeec:	11ef1210 12311231 121102aa 11f11210     ....1.1.........
3000eefc:	12311211 ffffffff ffffffff ffffffff     ..1.............
3000ef0c:	ffffffff ffffffff ffffffff ffffffff     ................
3000ef1c:	ffffffff ffffffff ffffffff ffffffff     ................
3000ef2c:	ffffffff ffffffff ffffffff ffffffff     ................
3000ef3c:	ffffffff ffffffff ffffffff ffffffff     ................
3000ef4c:	ffffffff ffffffff ffffffff ffffffff     ................
3000ef5c:	ffffffff ffffffff ffffffff ffffffff     ................
3000ef6c:	ffffffff ffffffff ffffffff ffffffff     ................
3000ef7c:	f8fff8ff f8fff8ff f8fff8ff f8fff8ff     ................
3000ef8c:	f8fff8ff f8ffffff ffffffff fffff8ff     ................
3000ef9c:	f8fff8ff f8fff8ff f8fff8ff f8fff8ff     ................
3000efac:	f8fff8ff f8fff8ff f8fff8ff f8fff8ff     ................
3000efbc:	f8fff8ff f8fff8ff f8fff8ff f8fff8ff     ................
3000efcc:	f8fff8ff ffffffff ffffffff ffffffff     ................
3000efdc:	ffffffff ffffffff 11f01210 0a10ffff     ................
3000efec:	11ef1210 12311231 121102aa 11f11210     ....1.1.........
3000effc:	12311211 ffffffff ffffffff ffffffff     ..1.............
3000f00c:	ffffffff ffffffff ffffffff ffffffff     ................
3000f01c:	ffffffff ffffffff ffffffff ffffffff     ................
3000f02c:	ffffffff ffffffff ffffffff ffffffff     ................
3000f03c:	ffffffff ffffffff ffffffff ffffffff     ................
3000f04c:	ffffffff ffffffff ffffffff ffffffff     ................
3000f05c:	ffffffff ffffffff ffffffff ffffffff     ................
3000f06c:	ffffffff ffffffff ffffffff fffff8ff     ................
3000f07c:	f8fff8ff f8fff8ff f8fff8ff f8fff8ff     ................
3000f08c:	f8fff8ff ffffffff ffffffff ffffffff     ................
3000f09c:	f8fff8ff f8fff8ff f8fff8ff f8fff8ff     ................
3000f0ac:	f8fff8ff f8fff8ff f8fff8ff f8fff8ff     ................
3000f0bc:	f8fff8ff f8fff8ff f8fff8ff f8fff8ff     ................
3000f0cc:	ffffffff ffffffff ffffffff ffffffff     ................
3000f0dc:	ffffffff ffffffff 11f01210 0a10ffff     ................
3000f0ec:	11ef1210 12311231 121102aa 11f11210     ....1.1.........
3000f0fc:	12311211 ffffffff ffffffff ffffffff     ..1.............
3000f10c:	ffffffff ffffffff ffffffff ffffffff     ................
3000f11c:	ffffffff ffffffff ffffffff ffffffff     ................
3000f12c:	ffffffff ffffffff ffffffff ffffffff     ................
3000f13c:	ffffffff ffffffff ffffffff ffffffff     ................
3000f14c:	ffffffff ffffffff ffffffff ffffffff     ................
3000f15c:	ffffffff ffffffff ffffffff ffffffff     ................
3000f16c:	ffffffff ffffffff ffffffff ffffc8ff     ................
3000f17c:	f8fff8ff f8fff8ff f8fff8ff f8fff8ff     ................
3000f18c:	f8fff8ff ffffffff ffffffff ffffffff     ................
3000f19c:	ffffffff f8fff8ff f8fff8ff f8fff8ff     ................
3000f1ac:	f8fff8ff f8fff8ff f8fff8ff f8fff8ff     ................
3000f1bc:	f8fff8ff f8fff8ff f8fff8ff ffffffff     ................
3000f1cc:	ffffffff ffffffff ffffffff ffffffff     ................
3000f1dc:	ffffffff ffffffff 11f01210 0a10ffff     ................
3000f1ec:	11ef1210 12311231 121102aa 11f11210     ....1.1.........
3000f1fc:	12311211 ffffffff ffffffff ffffffff     ..1.............
3000f20c:	ffffffff ffffffff ffffffff ffffffff     ................
3000f21c:	ffffffff ffffffff ffffffff ffffffff     ................
3000f22c:	ffffffff ffffffff ffffffff ffffffff     ................
3000f23c:	ffffffff ffffffff ffffffff ffffffff     ................
3000f24c:	ffffffff ffffffff ffffffff ffffffff     ................
3000f25c:	ffffffff ffffffff ffffffff ffffffff     ................
3000f26c:	ffffffff ffffffff ffffffff ffffc8ff     ................
3000f27c:	f8fff8ff f8fff8ff f8fff8ff f8fff8ff     ................
3000f28c:	f8fff8ff ffffffff ffffffff ffffffff     ................
3000f29c:	ffffffff ffffffff f8fff8ff f8fff8ff     ................
3000f2ac:	f8fff8ff f8fff8ff f8fff8ff f8fff8ff     ................
3000f2bc:	f8fff8ff f8ffffff ffffffff ffffffff     ................
3000f2cc:	ffffffff ffffffff ffffffff ffffffff     ................
3000f2dc:	ffffffff ffffffff 11f01210 0a10ffff     ................
3000f2ec:	11ef1210 12311231 121102aa 11f11210     ....1.1.........
3000f2fc:	12311211 ffffffff ffffffff ffffffff     ..1.............
3000f30c:	ffffffff ffffffff ffffffff ffffffff     ................
3000f31c:	ffffffff ffffffff ffffffff ffffffff     ................
3000f32c:	ffffffff ffffffff ffffffff ffffffff     ................
3000f33c:	ffffffff ffffffff ffffffff ffffffff     ................
3000f34c:	ffffffff ffffffff ffffffff ffffffff     ................
3000f35c:	ffffffff ffffffff ffffffff ffffffff     ................
3000f36c:	ffffffff ffffffff ffffffff fffff8ff     ................
3000f37c:	f8fff8ff f8fff8ff f8fff8ff f8fff8ff     ................
3000f38c:	f8fff8ff ffffffff ffffffff ffffffff     ................
3000f39c:	ffffffff ffffffff ffffffff fffff8ff     ................
3000f3ac:	f8fff8ff f8fff8ff f8fff8ff f8ffffff     ................
3000f3bc:	ffffffff ffffffff ffffffff ffffffff     ................
3000f3cc:	ffffffff ffffffff ffffffff ffffffff     ................
3000f3dc:	ffffffff ffffffff 11f01210 0a10ffff     ................
3000f3ec:	11ef1210 12311231 121102aa 11f11210     ....1.1.........
3000f3fc:	12311211 ffffffff ffffffff ffffffff     ..1.............
3000f40c:	ffffffff ffffffff ffffffff ffffffff     ................
3000f41c:	ffffffff ffffffff ffffffff ffffffff     ................
3000f42c:	ffffffff ffffffff ffffffff ffffffff     ................
3000f43c:	ffffffff ffffffff ffffffff ffffffff     ................
3000f44c:	ffffffff ffffffff ffffffff ffffffff     ................
3000f45c:	ffffffff ffffffff ffffffff ffffffff     ................
3000f46c:	ffffffff ffffffff ffffffff ffffffff     ................
3000f47c:	f8fff8ff f8fff8ff f8fff8ff f8fff8ff     ................
3000f48c:	f8fff8ff ffffffff ffffffff ffffffff     ................
3000f49c:	ffffffff ffffffff ffffffff ffffffff     ................
3000f4ac:	ffffffff ffffffff ffffffff ffffffff     ................
3000f4bc:	ffffffff ffffffff ffffffff ffffffff     ................
3000f4cc:	ffffffff ffffffff ffffffff ffffffff     ................
3000f4dc:	ffffffff ffffffff 11f01210 0a10ffff     ................
3000f4ec:	11ef1210 12311231 121102aa 11f11210     ....1.1.........
3000f4fc:	12311211 ffffffff ffffffff ffffffff     ..1.............
3000f50c:	ffffffff ffffffff ffffffff ffffffff     ................
3000f51c:	ffffffff ffffffff ffffffff ffffffff     ................
3000f52c:	ffffffff ffffffff ffffffff ffffffff     ................
3000f53c:	ffff03ef 12311211 1231ffff 09f10a30     ......1...1.0...
3000f54c:	0a111252 ffffffff ffffffff ffffffff     R...............
3000f55c:	ffffffff ffffffff ffffffff ffffffff     ................
3000f56c:	ffffffff ffffffff ffffffff ffffffff     ................
3000f57c:	f8fff8ff f8fff8ff f8fff8ff f8fff8ff     ................
3000f58c:	f8fff8ff ffffffff ffffffff ffffffff     ................
3000f59c:	ffffffff ffffffff ffffffff ffffffff     ................
3000f5ac:	ffffffff ffffffff ffffffff ffffffff     ................
3000f5bc:	ffffffff ffffffff ffffffff ffffffff     ................
3000f5cc:	ffffffff ffffffff ffffffff ffffffff     ................
3000f5dc:	ffffffff ffffffff 11f01210 0a10ffff     ................
3000f5ec:	11ef1210 12311231 121102aa 11f11210     ....1.1.........
3000f5fc:	12311211 ffffffff ffffffff ffffffff     ..1.............
3000f60c:	ffffffff ffffffff ffffffff ffffffff     ................
3000f61c:	ffffffff ffffffff ffffffff ffffffff     ................
3000f62c:	ffffffff ffffffff ffffffff ffffffff     ................
3000f63c:	ffff0a10 12311232 0a3101eb 12111231     ....2.1...1.1...
3000f64c:	12311231 01efffff ffffffff ffffffff     1.1.............
3000f65c:	ffffffff ffffffff ffffffff ffffffff     ................
3000f66c:	ffffffff ffffffff ffffffff ffffffff     ................
3000f67c:	f8fff8ff f8fff8ff f8fff8ff f8fff8ff     ................
3000f68c:	f8fff8ff ffffffff ffffffff ffffffff     ................
3000f69c:	ffffffff ffffffff ffffffff ffffffff     ................
3000f6ac:	ffffffff ffffffff ffffffff ffffffff     ................
3000f6bc:	ffffffff ffffffff ffffffff ffffffff     ................
3000f6cc:	ffffffff ffffffff ffffffff ffffffff     ................
3000f6dc:	ffffffff ffffffff 11f01210 0a10ffff     ................
3000f6ec:	11ef1210 12311231 121102aa 11f11210     ....1.1.........
3000f6fc:	12311211 ffffffff ffffffff ffffffff     ..1.............
3000f70c:	ffffffff ffffffff ffffffff ffffffff     ................
3000f71c:	ffffffff ffffffff ffffffff ffffffff     ................
3000f72c:	ffffffff ffffffff ffffffff ffffffff     ................
3000f73c:	ffff11f0 12311253 123111ce 12101252     ....S.1...1.R...
3000f74c:	12531210 198fffff ffffffff ffffffff     ..S.............
3000f75c:	ffffffff ffffffff ffffffff ffffffff     ................
3000f76c:	ffffffff ffffffff ffffffff ffffffff     ................
3000f77c:	fffff8ff f8fff8ff f8fff8ff f8fff8ff     ................
3000f78c:	f8fff8ff ffffffff ffffffff ffffffff     ................
3000f79c:	ffffffff ffffffff ffffffff ffffffff     ................
3000f7ac:	ffffffff ffffffff ffffffff ffffffff     ................
3000f7bc:	ffffffff ffffffff ffffffff ffffffff     ................
3000f7cc:	ffffffff ffffffff ffffffff ffffffff     ................
3000f7dc:	ffffffff ffffffff 11f01210 0a10ffff     ................
3000f7ec:	11ef1210 12311231 121102aa 11f11210     ....1.1.........
3000f7fc:	12311211 ffffffff ffffffff ffffffff     ..1.............
3000f80c:	ffffffff ffffffff ffffffff ffffffff     ................
3000f81c:	ffffffff ffffffff ffffffff ffffffff     ................
3000f82c:	ffffffff ffffffff ffffffff ffffffff     ................
3000f83c:	ffff1211 12101252 1231122e 12101252     ....R.....1.R...
3000f84c:	12521210 19d1ffff ffffffff ffffffff     ..R.............
3000f85c:	ffffffff ffffffff ffffffff ffffffff     ................
3000f86c:	ffffffff ffffffff ffffffff ffffffff     ................
3000f87c:	fffff8ff f8fff8ff f8fff8ff f8fff8ff     ................
3000f88c:	f8ffffff ffffffff ffffffff ffffffff     ................
3000f89c:	ffffffff ffffffff ffffffff ffffffff     ................
3000f8ac:	ffffffff ffffffff ffffffff ffffffff     ................
3000f8bc:	ffffffff ffffffff ffffffff ffffffff     ................
3000f8cc:	ffffffff ffffffff ffffffff ffffffff     ................
3000f8dc:	ffffffff ffffffff 11f01210 0a10ffff     ................
3000f8ec:	11ef1210 12311231 121102aa 11f11210     ....1.1.........
3000f8fc:	12311211 ffffffff ffffffff ffffffff     ..1.............
3000f90c:	ffffffff ffffffff ffffffff ffffffff     ................
3000f91c:	ffffffff ffffffff ffffffff ffffffff     ................
3000f92c:	ffffffff ffffffff ffffffff ffffffff     ................
3000f93c:	ffff1210 12101232 1231122e 12101232     ....2.....1.2...
3000f94c:	12321210 19d1ffff ffffffff ffffffff     ..2.............
3000f95c:	ffffffff ffffffff ffffffff ffffffff     ................
3000f96c:	ffffffff ffffffff ffffffff ffffffff     ................
3000f97c:	ffffffff f8fff8ff f8fff8ff f8fff8ff     ................
3000f98c:	f8ffffff ffffffff ffffffff ffffffff     ................
3000f99c:	ffffffff ffffffff ffffffff ffffffff     ................
3000f9ac:	ffffffff ffffffff ffffffff ffffffff     ................
3000f9bc:	ffffffff ffffffff ffffffff ffffffff     ................
3000f9cc:	ffffffff ffffffff ffffffff ffffffff     ................
3000f9dc:	ffffffff ffffffff 11f01210 0a10ffff     ................
3000f9ec:	11ef1210 12311231 121102aa 11f11210     ....1.1.........
3000f9fc:	12311211 ffffffff ffffffff ffffffff     ..1.............
3000fa0c:	ffffffff ffffffff ffffffff ffffffff     ................
3000fa1c:	ffffffff ffffffff ffffffff ffffffff     ................
3000fa2c:	ffffffff ffffffff ffffffff ffffffff     ................
3000fa3c:	ffff1210 12101232 1231122e 12101232     ....2.....1.2...
3000fa4c:	12321210 19d1ffff ffffffff ffffffff     ..2.............
3000fa5c:	ffffffff ffffffff ffffffff ffffffff     ................
3000fa6c:	ffffffff ffffffff ffffffff ffffffff     ................
3000fa7c:	ffffffff fffff8ff f8fff8ff f8fff8ff     ................
3000fa8c:	ffffffff ffffffff ffffffff ffffffff     ................
3000fa9c:	ffffffff ffffffff ffffffff ffffffff     ................
3000faac:	ffffffff ffffffff ffffffff ffffffff     ................
3000fabc:	ffffffff ffffffff ffffffff ffffffff     ................
3000facc:	ffffffff ffffffff ffffffff ffffffff     ................
3000fadc:	ffffffff ffffffff 11f01210 0a10ffff     ................
3000faec:	11ef1210 12311231 121102aa 11f11210     ....1.1.........
3000fafc:	12311211 ffffffff ffffffff ffffffff     ..1.............
3000fb0c:	ffffffff ffffffff ffffffff ffffffff     ................
3000fb1c:	ffffffff ffffffff ffffffff ffffffff     ................
3000fb2c:	ffffffff ffffffff ffffffff ffffffff     ................
3000fb3c:	ffff1210 12101232 1231122e 12101232     ....2.....1.2...
3000fb4c:	12321210 19ceffff ffffffff ffffffff     ..2.............
3000fb5c:	ffffffff ffffffff ffffffff ffffffff     ................
3000fb6c:	ffffffff ffffffff ffffffff ffffffff     ................
3000fb7c:	ffffffff ffffffff ffffffff ffffffff     ................
3000fb8c:	ffffffff ffffffff ffffffff ffffffff     ................
3000fb9c:	ffffffff ffffffff ffffffff ffffffff     ................
3000fbac:	ffffffff ffffffff ffffffff ffffffff     ................
3000fbbc:	ffffffff ffffffff ffffffff ffffffff     ................
3000fbcc:	ffffffff ffffffff ffffffff ffffffff     ................
3000fbdc:	ffffffff ffffffff 11f01210 0a10ffff     ................
3000fbec:	11ef1210 12311231 121102aa 11f11210     ....1.1.........
3000fbfc:	12311211 ffffffff ffffffff ffffffff     ..1.............
3000fc0c:	ffffffff ffffffff ffffffff ffffffff     ................
3000fc1c:	ffffffff ffffffff ffffffff ffffffff     ................
3000fc2c:	ffffffff ffffffff ffffffff ffffffff     ................
3000fc3c:	ffff1210 12101232 1231122e 12101232     ....2.....1.2...
3000fc4c:	12321210 ffffffff ffffffff ffffffff     ..2.............
3000fc5c:	ffffffff ffffffff ffffffff ffffffff     ................
3000fc6c:	ffffffff ffffffff ffffffff ffffffff     ................
3000fc7c:	ffffffff ffffffff ffffffff ffffffff     ................
3000fc8c:	ffffffff ffffffff ffffffff ffffffff     ................
3000fc9c:	ffffffff ffffffff ffffffff ffffffff     ................
3000fcac:	ffffffff ffffffff ffffffff ffffffff     ................
3000fcbc:	ffffffff ffffffff ffffffff ffffffff     ................
3000fccc:	ffffffff ffffffff ffffffff ffffffff     ................
3000fcdc:	ffffffff ffffffff 12101210 0a71ffff     ..............q.
3000fcec:	01ef1210 12311231 121102aa 11f11210     ....1.1.........
3000fcfc:	12311211 ffffffff ffffffff ffffffff     ..1.............
3000fd0c:	ffffffff ffffffff ffffffff ffffffff     ................
3000fd1c:	ffffffff ffffffff ffffffff ffffffff     ................
3000fd2c:	ffffffff ffffffff ffffffff ffffffff     ................
3000fd3c:	ffff1210 12101232 1231122e 12101231     ....2.....1.1...
3000fd4c:	12311210 12101210 11f00a10 11f01210     ..1.............
3000fd5c:	12101210 12101210 12101210 12100a10     ................
3000fd6c:	12101210 12101210 12101210 12101210     ................
3000fd7c:	12101210 12101210 12101210 12101210     ................
3000fd8c:	12101210 12101210 12101210 12101210     ................
3000fd9c:	12101210 12101210 12101210 12101210     ................
3000fdac:	12101210 12101210 121009f0 1210120f     ................
3000fdbc:	0a101210 12101210 12101210 12101210     ................
3000fdcc:	12101210 12101210 12101210 12101210     ................
3000fddc:	12101210 12101210 11f01210 12101210     ................
3000fdec:	12101210 12311231 121102aa 11f11210     ....1.1.........
3000fdfc:	12311211 ffffffff ffffffff ffffffff     ..1.............
3000fe0c:	ffffffff ffffffff ffffffff ffffffff     ................
3000fe1c:	ffffffff ffffffff ffffffff ffffffff     ................
3000fe2c:	ffffffff ffffffff ffffffff ffffffff     ................
3000fe3c:	ffff1210 12101232 1231122e 12101231     ....2.....1.1...
3000fe4c:	12111211 12311231 12311211 12111231     ....1.1...1.1...
3000fe5c:	12311231 12311231 12311231 12311231     1.1.1.1.1.1.1.1.
3000fe6c:	12311231 12311231 12311231 12311231     1.1.1.1.1.1.1.1.
3000fe7c:	12311231 12311231 12311231 12311231     1.1.1.1.1.1.1.1.
3000fe8c:	12311231 12311231 12311231 12311231     1.1.1.1.1.1.1.1.
3000fe9c:	12311231 12311231 12311231 12311231     1.1.1.1.1.1.1.1.
3000feac:	12311231 12311231 12311231 12311231     1.1.1.1.1.1.1.1.
3000febc:	12311231 12311231 12311231 12311231     1.1.1.1.1.1.1.1.
3000fecc:	12311231 12311231 12311231 12311231     1.1.1.1.1.1.1.1.
3000fedc:	12311231 12311231 12111210 12311231     1.1.1.1.....1.1.
3000feec:	12311210 12111231 121102aa 11f11210     ..1.1...........
3000fefc:	12311211 ffffffff ffffffff ffffffff     ..1.............
3000ff0c:	ffffffff ffffffff ffffffff ffffffff     ................
3000ff1c:	ffffffff ffffffff ffffffff ffffffff     ................
3000ff2c:	ffffffff ffffffff ffffffff ffffffff     ................
3000ff3c:	ffff1210 12101232 1231122e 12101231     ....2.....1.1...
3000ff4c:	12101231 12531273 12731252 12521252     1...s.S.R.s.R.R.
3000ff5c:	12521252 12521252 12521252 12521253     R.R.R.R.R.R.S.R.
3000ff6c:	12731273 12731273 12731273 12731273     s.s.s.s.s.s.s.s.
3000ff7c:	12731273 12731273 12731273 12731273     s.s.s.s.s.s.s.s.
3000ff8c:	12731273 12731273 12731273 12731273     s.s.s.s.s.s.s.s.
3000ff9c:	12731273 12731273 12731273 12731273     s.s.s.s.s.s.s.s.
3000ffac:	12731273 12731273 12731273 12731273     s.s.s.s.s.s.s.s.
3000ffbc:	12531252 12521252 12521252 12521252     R.S.R.R.R.R.R.R.
3000ffcc:	12521252 12521252 12521252 12521252     R.R.R.R.R.R.R.R.
3000ffdc:	12521252 12521252 12521231 12531273     R.R.R.R.1.R.s.S.
3000ffec:	12521211 12111232 121102aa 11f11210     ..R.2...........
3000fffc:	12311211 ffffffff ffffffff ffffffff     ..1.............
3001000c:	ffffffff ffffffff ffffffff ffffffff     ................
3001001c:	ffffffff ffffffff ffffffff ffffffff     ................
3001002c:	ffffffff ffffffff ffffffff ffffffff     ................
3001003c:	ffff1210 12101232 1231122e 12101231     ....2.....1.1...
3001004c:	12311210 12101210 12101231 12101210     ..1.....1.......
3001005c:	12101210 12101210 12101210 12101210     ................
3001006c:	12101210 12101210 12101210 12101210     ................
3001007c:	12101210 12101210 12101210 12101210     ................
3001008c:	12101210 12101210 12101210 12101210     ................
3001009c:	12101210 12101210 12101210 12101210     ................
300100ac:	12101210 12101210 12101210 12101210     ................
300100bc:	12101210 12101210 12101210 12101210     ................
300100cc:	12101210 12101210 12101210 12101210     ................
300100dc:	12101210 12101210 12101210 12101210     ................
300100ec:	12101210 12311232 121102aa 11f11210     ....2.1.........
300100fc:	12311211 ffffffff ffffffff ffffffff     ..1.............
3001010c:	ffffffff ffffffff ffffffff ffffffff     ................
3001011c:	ffffffff ffffffff ffffffff ffffffff     ................
3001012c:	ffffffff ffffffff ffffffff ffffffff     ................
3001013c:	ffff1210 12101232 1231122e 12101232     ....2.....1.2...
3001014c:	12311210 1a10332c 127111f0 09f01231     ..1.,3....q.1...
3001015c:	1ab11a6f 1a6f1a6f 1a6f1a6f 1a6f1a6f     o...o.o.o.o.o.o.
3001016c:	1a6f1a6f 1a6f1a6f 1a6f1a6f 1a6f1a6f     o.o.o.o.o.o.o.o.
3001017c:	1a6f1a6f 1a6f1a6f 1a6f1a6f 1a6f1a6f     o.o.o.o.o.o.o.o.
3001018c:	1a6f1a6f 1a6f1a6f 1a6f1a6f 1a6f1a6f     o.o.o.o.o.o.o.o.
3001019c:	1a6f1a6f 1a6f1a6f 1a6f1a6f 1a6f1a6f     o.o.o.o.o.o.o.o.
300101ac:	1a6f1a6f 1a6f1a6f 1a6f1a6f 1a6f1a6f     o.o.o.o.o.o.o.o.
300101bc:	1a6f1a6f 1a6f1a6f 1a6f1a6f 1a6f1a6f     o.o.o.o.o.o.o.o.
300101cc:	1a6f1a6f 1a6f1a6f 1a6f1a6f 1a6f1a6f     o.o.o.o.o.o.o.o.
300101dc:	1a6f1a6f 1aae1aae 11f01210 0a1007e0     o.o.............
300101ec:	09f01210 12311231 121102aa 11f11210     ....1.1.........
300101fc:	12311211 ffffffff ffffffff ffffffff     ..1.............
3001020c:	ffffffff ffffffff ffffffff ffffffff     ................
3001021c:	ffffffff ffffffff ffffffff ffffffff     ................
3001022c:	ffffffff ffffffff ffffffff ffffffff     ................
3001023c:	ffff1210 12101232 1231122e 12101232     ....2.....1.2...
3001024c:	12311210 0a101230 12311231 12101210     ..1.0...1.1.....
3001025c:	12311231 12311231 12311231 12311231     1.1.1.1.1.1.1.1.
3001026c:	12311231 12311231 12311231 12311231     1.1.1.1.1.1.1.1.
3001027c:	12311231 12311231 12311231 12311231     1.1.1.1.1.1.1.1.
3001028c:	12311231 12311231 12311231 12311231     1.1.1.1.1.1.1.1.
3001029c:	12311231 12311231 12311231 12311231     1.1.1.1.1.1.1.1.
300102ac:	12311231 12311231 12311231 12311231     1.1.1.1.1.1.1.1.
300102bc:	12311231 12311231 12311231 12311231     1.1.1.1.1.1.1.1.
300102cc:	12311231 12311231 12311231 12311231     1.1.1.1.1.1.1.1.
300102dc:	12311231 12301230 12101210 0a100a10     1.1.0.0.........
300102ec:	12101210 12311231 121102aa 11f11210     ....1.1.........
300102fc:	12311211 ffffffff ffffffff ffffffff     ..1.............
3001030c:	ffffffff ffffffff ffffffff ffffffff     ................
3001031c:	ffffffff ffffffff ffffffff ffffffff     ................
3001032c:	ffffffff ffffffff ffffffff ffffffff     ................
3001033c:	ffff1210 12101232 1231122e 12101231     ....2.....1.1...
3001034c:	12111210 12101211 12111231 12111210     ........1.......
3001035c:	12101210 12101210 12101210 12101210     ................
3001036c:	12101210 12101210 12101210 12101210     ................
3001037c:	12101210 12101210 12101210 12101210     ................
3001038c:	12101210 12101210 12101210 12101210     ................
3001039c:	12101210 12101210 12101210 12101210     ................
300103ac:	12101210 12101210 12101210 12101210     ................
300103bc:	12101210 12101210 12101210 12101210     ................
300103cc:	12101210 12101210 12101210 12101210     ................
300103dc:	12101210 12101210 12101210 12101211     ................
300103ec:	12111210 12111232 121102aa 11f11210     ....2...........
300103fc:	12311211 ffffffff ffffffff ffffffff     ..1.............
3001040c:	ffffffff ffffffff ffffffff ffffffff     ................
3001041c:	ffffffff ffffffff ffffffff ffffffff     ................
3001042c:	ffffffff ffffffff ffffffff ffffffff     ................
3001043c:	ffff1210 12101252 1231122e 12101232     ....R.....1.2...
3001044c:	12311231 12311231 12311231 12311231     1.1.1.1.1.1.1.1.
3001045c:	12311231 12311231 12311231 12311231     1.1.1.1.1.1.1.1.
3001046c:	12311231 12311231 12311231 12311231     1.1.1.1.1.1.1.1.
3001047c:	12311231 12311231 12311231 12311231     1.1.1.1.1.1.1.1.
3001048c:	12311231 12311231 12311231 12311231     1.1.1.1.1.1.1.1.
3001049c:	12311231 12311231 12311231 12311231     1.1.1.1.1.1.1.1.
300104ac:	12311231 12311231 12311231 12311231     1.1.1.1.1.1.1.1.
300104bc:	12311231 12311231 12311231 12311231     1.1.1.1.1.1.1.1.
300104cc:	12311231 12311231 12311231 12311231     1.1.1.1.1.1.1.1.
300104dc:	12311231 12311231 12311211 12311231     1.1.1.1...1.1.1.
300104ec:	12311211 12311232 121002aa 11d11210     ..1.2.1.........
300104fc:	123111f0 ffffffff ffffffff ffffffff     ..1.............
3001050c:	ffffffff ffffffff ffffffff ffffffff     ................
3001051c:	ffffffff ffffffff ffffffff ffffffff     ................
3001052c:	ffffffff ffffffff ffffffff ffffffff     ................
3001053c:	ffff11f0 12311253 1211116e 12101253     ....S.1.n...S...
3001054c:	12521232 12521252 12521232 12521252     2.R.R.R.2.R.R.R.
3001055c:	12521252 12521252 12521252 12521252     R.R.R.R.R.R.R.R.
3001056c:	12521252 12521252 12521252 12521252     R.R.R.R.R.R.R.R.
3001057c:	12521252 12521252 12521252 12521252     R.R.R.R.R.R.R.R.
3001058c:	12521252 12521252 12521252 12521252     R.R.R.R.R.R.R.R.
3001059c:	12521252 12521252 12521252 12521252     R.R.R.R.R.R.R.R.
300105ac:	12521252 12521252 12521252 12521252     R.R.R.R.R.R.R.R.
300105bc:	12521252 12521252 12521252 12521252     R.R.R.R.R.R.R.R.
300105cc:	12521252 12521252 12521252 12521252     R.R.R.R.R.R.R.R.
300105dc:	12521252 12521252 12521232 12521252     R.R.R.R.2.R.R.R.
300105ec:	12521232 12521253 0a1102aa 11b21210     2.R.S.R.........
300105fc:	12521211 ffffffff ffffffff ffffffff     ..R.............
3001060c:	ffffffff ffffffff ffffffff ffffffff     ................
3001061c:	ffffffff ffffffff ffffffff ffffffff     ................
3001062c:	ffffffff ffffffff ffffffff ffffffff     ................
3001063c:	ffff09cf 12111231 1211ff07 12111252     ....1.......R...
3001064c:	12311231 12311231 12311231 12311231     1.1.1.1.1.1.1.1.
3001065c:	12311231 12311231 12311231 12311231     1.1.1.1.1.1.1.1.
3001066c:	12311231 12311231 12311231 12311231     1.1.1.1.1.1.1.1.
3001067c:	12311231 12311231 12311231 12311231     1.1.1.1.1.1.1.1.
3001068c:	12311231 12311231 12311231 12311231     1.1.1.1.1.1.1.1.
3001069c:	12311231 12311231 12311231 12311231     1.1.1.1.1.1.1.1.
300106ac:	12311231 12311231 12311231 12311231     1.1.1.1.1.1.1.1.
300106bc:	12311231 12311231 12311231 12311231     1.1.1.1.1.1.1.1.
300106cc:	12311231 12311231 12311231 12311231     1.1.1.1.1.1.1.1.
300106dc:	12311231 12311231 12311231 12311231     1.1.1.1.1.1.1.1.
300106ec:	12311231 12311252 1211ffff 19d11211     1.1.R.1.........
300106fc:	12521231 ffffffff ffffffff ffffffff     1.R.............
3001070c:	ffffffff ffffffff ffffffff ffffffff     ................
3001071c:	ffffffff ffffffff ffffffff ffffffff     ................
3001072c:	ffffffff ffffffff ffffffff ffffffff     ................
3001073c:	ffffffff 123109ef ffffffff 01ef1a10     ......1.........
3001074c:	09ef0a10 0a100a10 0a100a10 0a100a10     ................
3001075c:	0a100a10 0a100a10 0a100a10 0a100a10     ................
3001076c:	0a100a10 0a100a10 0a100a10 0a100a10     ................
3001077c:	0a100a10 0a100a10 0a100a10 0a100a10     ................
3001078c:	0a100a10 0a100a10 0a100a10 0a100a10     ................
3001079c:	0a100a10 0a100a10 0a100a10 0a100a10     ................
300107ac:	0a100a10 0a100a10 0a100a10 0a100a10     ................
300107bc:	0a100a10 0a100a10 0a100a10 0a100a10     ................
300107cc:	0a100a10 0a100a10 0a100a10 0a100a10     ................
300107dc:	0a100a10 0a100a10 0a100a10 0a100a10     ................
300107ec:	0a100a10 09ef1a0f 2955ffff ffff01f3     ..........U)....
300107fc:	0a2fff0f ffffffff ffffffff ffffffff     ../.............
3001080c:	ffffffff ffffffff ffffffff ffffffff     ................
3001081c:	ffffffff ffffffff ffffffff ffffffff     ................
3001082c:	ffffffff ffffffff ffffffff ffffffff     ................
3001083c:	ffffffff ffffffff ffffffff ffffffff     ................
3001084c:	ffffffff ffffffff ffffffff ffffffff     ................
3001085c:	ffffffff ffffffff ffffffff ffffffff     ................
3001086c:	ffffffff ffffffff ffffffff ffffffff     ................
3001087c:	ffffffff ffffffff ffffffff ffffffff     ................
3001088c:	ffffffff ffffffff ffffffff ffffffff     ................
3001089c:	ffffffff ffffffff ffffffff ffffffff     ................
300108ac:	ffffffff ffffffff ffffffff ffffffff     ................
300108bc:	ffffffff ffffffff ffffffff ffffffff     ................
300108cc:	ffffffff ffffffff ffffffff ffffffff     ................
300108dc:	ffffffff ffffffff ffffffff ffffffff     ................
300108ec:	ffffffff ffffffff ffffffff ffffffff     ................
300108fc:	ffffffff ffffffff ffffffff ffffffff     ................
3001090c:	ffffffff ffffffff ffffffff ffffffff     ................
3001091c:	ffffffff ffffffff ffffffff ffffffff     ................
3001092c:	ffffffff ffffffff ffffffff ffffffff     ................
3001093c:	ffffffff ffffffff ffffffff ffffffff     ................
3001094c:	ffffffff ffffffff ffffffff ffffffff     ................
3001095c:	ffffffff ffffffff ffffffff ffffffff     ................
3001096c:	ffffffff ffffffff ffffffff ffffffff     ................
3001097c:	ffffffff ffffffff ffffffff ffffffff     ................
3001098c:	ffffffff ffffffff ffffffff ffffffff     ................
3001099c:	ffffffff ffffffff ffffffff ffffffff     ................
300109ac:	ffffffff ffffffff ffffffff ffffffff     ................
300109bc:	ffffffff ffffffff ffffffff ffffffff     ................
300109cc:	ffffffff ffffffff ffffffff ffffffff     ................
300109dc:	ffffffff ffffffff ffffffff ffffffff     ................
300109ec:	ffffffff ffffffff ffffffff ffffffff     ................
300109fc:	ffffffff ffffffff ffffffff ffffffff     ................
30010a0c:	ffffffff ffffffff ffffffff ffffffff     ................
30010a1c:	ffffffff ffffffff ffffffff ffffffff     ................
30010a2c:	ffffffff ffffffff ffffffff ffffffff     ................
30010a3c:	ffff014f 12101210 19d1ffff 12311231     O...........1.1.
30010a4c:	12311210 12101210 12101210 12101210     ..1.............
30010a5c:	12101210 12101210 12101210 12101210     ................
30010a6c:	12100a10 0a100a10 0a100a10 0a100a10     ................
30010a7c:	12101210 12111210 12101210 12101210     ................
30010a8c:	12101210 12101210 12101210 12101210     ................
30010a9c:	12101210 12101210 12101210 12101210     ................
30010aac:	12101210 12101210 12101210 12101210     ................
30010abc:	12101210 12101210 12101210 12101210     ................
30010acc:	12101210 12101210 12101210 12101210     ................
30010adc:	12101210 12101210 12101210 12101210     ................
30010aec:	12101211 1211026f ffffffff 014f1210     ....o.........O.
30010afc:	123111ef ffffffff ffffffff ffffffff     ..1.............
30010b0c:	ffffffff ffffffff ffffffff ffffffff     ................
30010b1c:	ffffffff ffffffff ffffffff ffffffff     ................
30010b2c:	ffffffff ffffffff ffffffff ffffffff     ................
30010b3c:	ffff11ef 12101210 19f2ffff 11b11210     ................
30010b4c:	12101210 12101210 12101210 12101210     ................
30010b5c:	12101210 12101210 12101210 12101210     ................
30010b6c:	12101210 12101210 12101210 12101210     ................
30010b7c:	12101210 12101210 12101210 12101210     ................
30010b8c:	12101210 12101210 12101210 12101210     ................
30010b9c:	12101210 12101210 12101210 12101210     ................
30010bac:	12101210 12101210 12101210 12101210     ................
30010bbc:	12101210 12101210 12101210 12101210     ................
30010bcc:	12101210 12101210 12101210 12101210     ................
30010bdc:	12101210 12101210 12101210 12101210     ................
30010bec:	12101211 12110a0f ffffffff 11711210     ..............q.
30010bfc:	123119f1 ffffffff ffffffff ffffffff     ..1.............
30010c0c:	ffffffff ffffffff ffffffff ffffffff     ................
30010c1c:	ffffffff ffffffff ffffffff ffffffff     ................
30010c2c:	ffffffff ffffffff ffffffff ffffffff     ................
30010c3c:	ffff03ef 11ef09f0 02aaffff 02b5124f     ............O...
30010c4c:	12331231 12311231 12311231 12311231     1.3.1.1.1.1.1.1.
30010c5c:	12311231 12311231 12311231 12311231     1.1.1.1.1.1.1.1.
30010c6c:	11ef1211 11d011f0 11f011f0 11f01211     ................
30010c7c:	123109f0 12311231 12311231 12311231     ..1.1.1.1.1.1.1.
30010c8c:	12311231 12311231 12311231 12311231     1.1.1.1.1.1.1.1.
30010c9c:	12311231 12311231 12311231 12311231     1.1.1.1.1.1.1.1.
30010cac:	12311231 12311231 12311231 12311231     1.1.1.1.1.1.1.1.
30010cbc:	12311231 12311231 12311231 12311231     1.1.1.1.1.1.1.1.
30010ccc:	12311231 12311231 12311231 12311231     1.1.1.1.1.1.1.1.
30010cdc:	12311231 12311231 12311231 12311231     1.1.1.1.1.1.1.1.
30010cec:	123109f1 0a3101ef ffffffff ff0f09ef     ..1...1.........
30010cfc:	026eff1f ffffffff ffffffff ffffffff     ..n.............
30010d0c:	ffffffff ffffffff ffffffff ffffffff     ................
30010d1c:	ffffffff ffffffff ffffffff ffffffff     ................
30010d2c:	ffffffff ffffffff ffffffff ffffffff     ................
30010d3c:	ffffffff ffffffff ffffffff ffffffff     ................
30010d4c:	ffffffff ffffffff ffffffff ffffffff     ................
30010d5c:	ffffffff ffffffff ffffffff ffffffff     ................
30010d6c:	ffffffff ffffffff ffffffff ffffffff     ................
30010d7c:	ffffffff ffffffff ffffffff ffffffff     ................
30010d8c:	ffffffff ffffffff ffffffff ffffffff     ................
30010d9c:	ffffffff ffffffff ffffffff ffffffff     ................
30010dac:	ffffffff ffffffff ffffffff ffffffff     ................
30010dbc:	ffffffff ffffffff ffffffff ffffffff     ................
30010dcc:	ffffffff ffffffff ffffffff ffffffff     ................
30010ddc:	ffffffff ffffffff ffffffff ffffffff     ................
30010dec:	ffffffff ffffffff ffffffff ffffffff     ................
30010dfc:	ffffffff ffffffff ffffffff ffffffff     ................
30010e0c:	ffffffff ffffffff ffffffff ffffffff     ................
30010e1c:	ffffffff ffffffff ffffffff ffffffff     ................
30010e2c:	ffffffff ffffffff ffffffff ffffffff     ................
30010e3c:	ffffffff ffffffff ffffffff ffffffff     ................
30010e4c:	ffffffff ffffffff ffffffff ffffffff     ................
30010e5c:	ffffffff ffffffff ffffffff ffffffff     ................
30010e6c:	ffffffff ffffffff ffffffff ffffffff     ................
30010e7c:	ffffffff ffffffff ffffffff ffffffff     ................
30010e8c:	ffffffff ffffffff ffffffff ffffffff     ................
30010e9c:	ffffffff ffffffff ffffffff ffffffff     ................
30010eac:	ffffffff ffffffff ffffffff ffffffff     ................
30010ebc:	ffffffff ffffffff ffffffff ffffffff     ................
30010ecc:	ffffffff ffffffff ffffffff ffffffff     ................
30010edc:	ffffffff ffffffff ffffffff ffffffff     ................
30010eec:	ffffffff ffffffff ffffffff ffffffff     ................
30010efc:	ffffffff ffffffff ffffffff ffffffff     ................
30010f0c:	ffffffff ffffffff ffffffff ffffffff     ................
30010f1c:	ffffffff ffffffff ffffffff ffffffff     ................
30010f2c:	ffffffff ffffffff ffffffff ffffffff     ................
30010f3c:	ffffffff ffffffff ffffffff ffffffff     ................
30010f4c:	ffffffff ffffffff ffffffff ffffffff     ................
30010f5c:	ffffffff ffffffff ffffffff ffffffff     ................
30010f6c:	ffffffff ffffffff ffffffff ffffffff     ................
30010f7c:	ffffffff ffffffff ffffffff ffffffff     ................
30010f8c:	ffffffff ffffffff ffffffff ffffffff     ................
30010f9c:	ffffffff ffffffff ffffffff ffffffff     ................
30010fac:	ffffffff ffffffff ffffffff ffffffff     ................
30010fbc:	ffffffff ffffffff ffffffff ffffffff     ................
30010fcc:	ffffffff ffffffff ffffffff ffffffff     ................
30010fdc:	ffffffff ffffffff ffffffff ffffffff     ................
30010fec:	ffffffff ffffffff ffffffff ffffffff     ................
30010ffc:	ffffffff ffffffff ffffffff ffffffff     ................
3001100c:	ffffffff ffffffff ffffffff ffffffff     ................
3001101c:	ffffffff ffffffff ffffffff ffffffff     ................
3001102c:	ffffffff ffffffff ffffffff ffffffff     ................
3001103c:	ffffffff ffffffff ffffffff ffffffff     ................
3001104c:	ffffffff ffffffff ffffffff ffffffff     ................
3001105c:	ffffffff ffffffff ffffffff ffffffff     ................
3001106c:	ffffffff ffffffff ffffffff ffffffff     ................
3001107c:	ffffffff ffffffff ffffffff ffffffff     ................
3001108c:	ffffffff ffffffff ffffffff ffffffff     ................
3001109c:	ffffffff ffffffff ffffffff ffffffff     ................
300110ac:	ffffffff ffffffff ffffffff ffffffff     ................
300110bc:	ffffffff ffffffff ffffffff ffffffff     ................
300110cc:	ffffffff ffffffff ffffffff ffffffff     ................
300110dc:	ffffffff ffffffff ffffffff ffffffff     ................
300110ec:	ffffffff ffffffff ffffffff ffffffff     ................
300110fc:	ffffffff ffffffff ffffffff ffffffff     ................
3001110c:	ffffffff ffffffff ffffffff ffffffff     ................
3001111c:	ffffffff ffffffff ffffffff ffffffff     ................
3001112c:	ffffffff ffffffff ffffffff ffffffff     ................
3001113c:	ffffffff ffffffff ffffffff ffffffff     ................
3001114c:	ffffffff ffffffff ffffffff ffffffff     ................
3001115c:	ffffffff ffffffff ffffffff ffffffff     ................
3001116c:	ffffffff ffffffff ffffffff ffffffff     ................
3001117c:	ffffffff ffffffff ffffffff ffffffff     ................
3001118c:	ffffffff ffffffff ffffffff ffffffff     ................
3001119c:	ffffffff ffffffff ffffffff ffffffff     ................
300111ac:	ffffffff ffffffff ffffffff ffffffff     ................
300111bc:	ffffffff ffffffff ffffffff ffffffff     ................
300111cc:	ffffffff ffffffff ffffffff ffffffff     ................
300111dc:	ffffffff ffffffff ffffffff ffffffff     ................
300111ec:	ffffffff ffffffff ffffffff ffffffff     ................
300111fc:	ffffffff ffffffff ffffffff ffffffff     ................
3001120c:	ffffffff ffffffff ffffffff ffffffff     ................
3001121c:	ffffffff ffffffff ffffffff ffffffff     ................
3001122c:	ffffffff ffffffff ffffffff ffffffff     ................
3001123c:	ffffffff ffffffff ffffffff ffffffff     ................
3001124c:	ffffffff ffffffff ffffffff ffffffff     ................
3001125c:	ffffffff ffffffff ffffffff ffffffff     ................
3001126c:	ffffffff ffffffff ffffffff ffffffff     ................
3001127c:	ffffffff ffffffff ffffffff ffffffff     ................
3001128c:	ffffffff ffffffff ffffffff ffffffff     ................
3001129c:	ffffffff ffffffff ffffffff ffffffff     ................
300112ac:	ffffffff ffffffff ffffffff ffffffff     ................
300112bc:	ffffffff ffffffff ffffffff ffffffff     ................
300112cc:	ffffffff ffffffff ffffffff ffffffff     ................
300112dc:	ffffffff ffffffff ffffffff ffffffff     ................
300112ec:	ffffffff ffffffff ffffffff ffffffff     ................
300112fc:	ffffffff ffffffff ffffffff ffffffff     ................
3001130c:	ffffffff ffffffff ffffffff ffffffff     ................
3001131c:	ffffffff ffffffff ffffffff ffffffff     ................
3001132c:	ffffffff ffffffff ffffffff ffffffff     ................
3001133c:	ffffffff ffffffff ffffffff ffffffff     ................
3001134c:	ffffffff ffffffff ffffffff ffffffff     ................
3001135c:	ffffffff ffffffff ffffffff ffffffff     ................
3001136c:	ffffffff ffffffff ffffffff ffffffff     ................
3001137c:	ffffffff ffffffff ffffffff ffffffff     ................
3001138c:	ffffffff ffffffff ffffffff ffffffff     ................
3001139c:	ffffffff ffffffff ffffffff ffffffff     ................
300113ac:	ffffffff ffffffff ffffffff ffffffff     ................
300113bc:	ffffffff ffffffff ffffffff ffffffff     ................
300113cc:	ffffffff ffffffff ffffffff ffffffff     ................
300113dc:	ffffffff ffffffff ffffffff ffffffff     ................
300113ec:	ffffffff ffffffff ffffffff ffffffff     ................
300113fc:	ffffffff ffffffff ffffffff ffffffff     ................
3001140c:	ffffffff ffffffff ffffffff ffffffff     ................
3001141c:	ffffffff ffffffff ffffffff ffffffff     ................
3001142c:	ffffffff ffffffff ffffffff ffffffff     ................
3001143c:	ffffffff ffffffff ffffffff ffffffff     ................
3001144c:	ffffffff ffffffff ffffffff ffffffff     ................
3001145c:	ffffffff ffffffff ffffffff ffffffff     ................
3001146c:	ffffffff ffffffff ffffffff ffffffff     ................
3001147c:	ffffffff ffffffff ffffffff ffffffff     ................
3001148c:	ffffffff ffffffff ffffffff ffffffff     ................
3001149c:	ffffffff ffffffff ffffffff ffffffff     ................
300114ac:	ffffffff ffffffff ffffffff ffffffff     ................
300114bc:	ffffffff ffffffff ffffffff ffffffff     ................
300114cc:	ffffffff ffffffff ffffffff ffffffff     ................
300114dc:	ffffffff ffffffff ffffffff ffffffff     ................
300114ec:	ffffffff ffffffff ffffffff ffffffff     ................
300114fc:	ffffffff ffffffff ffffffff ffffffff     ................
3001150c:	ffffffff ffffffff ffffffff ffffffff     ................
3001151c:	ffffffff ffffffff ffffffff ffffffff     ................
3001152c:	ffffffff ffffffff ffffffff ffffffff     ................
3001153c:	ffffffff ffffffff ffffffff ffffffff     ................
3001154c:	ffffffff ffffffff ffffffff ffffffff     ................
3001155c:	ffffffff ffffffff ffffffff ffffffff     ................
3001156c:	ffffffff ffffffff ffffffff ffffffff     ................
3001157c:	ffffffff ffffffff ffffffff ffffffff     ................
3001158c:	ffffffff ffffffff ffffffff ffffffff     ................
3001159c:	ffffffff ffffffff ffffffff ffffffff     ................
300115ac:	ffffffff ffffffff ffffffff ffffffff     ................
300115bc:	ffffffff ffffffff ffffffff ffffffff     ................
300115cc:	ffffffff ffffffff ffffffff ffffffff     ................
300115dc:	ffffffff ffffffff ffffffff ffffffff     ................
300115ec:	ffffffff ffffffff ffffffff ffffffff     ................
300115fc:	ffffffff ffffffff ffffffff ffffffff     ................
3001160c:	ffffffff ffffffff ffffffff ffffffff     ................
3001161c:	ffffffff ffffffff ffffffff ffffffff     ................
3001162c:	ffffffff ffffffff ffffffff ffffffff     ................
3001163c:	ffffffff ffffffff ffffffff ffffffff     ................
3001164c:	ffffffff ffffffff ffffffff ffffffff     ................
3001165c:	ffffffff ffffffff ffffffff ffffffff     ................
3001166c:	ffffffff ffffffff ffffffff ffffffff     ................
3001167c:	ffffffff ffffffff ffffffff ffffffff     ................
3001168c:	ffffffff ffffffff ffffffff ffffffff     ................
3001169c:	ffffffff ffffffff ffffffff ffffffff     ................
300116ac:	ffffffff ffffffff ffffffff ffffffff     ................
300116bc:	ffffffff ffffffff ffffffff ffffffff     ................
300116cc:	ffffffff ffffffff ffffffff ffffffff     ................
300116dc:	ffffffff ffffffff ffffffff ffffffff     ................
300116ec:	ffffffff ffffffff ffffffff ffffffff     ................
300116fc:	ffffffff ffffffff ffffffff ffffffff     ................
3001170c:	ffffffff ffffffff ffffffff ffffffff     ................
3001171c:	ffffffff ffffffff ffffffff ffffffff     ................
3001172c:	ffffffff ffffffff ffffffff ffffffff     ................
3001173c:	ffffffff ffffffff ffffffff ffffffff     ................
3001174c:	ffffffff ffffffff ffffffff ffffffff     ................
3001175c:	ffffffff ffffffff ffffffff ffffffff     ................
3001176c:	ffffffff ffffffff ffffffff ffffffff     ................
3001177c:	ffffffff ffffffff ffffffff ffffffff     ................
3001178c:	ffffffff ffffffff ffffffff ffffffff     ................
3001179c:	ffffffff ffffffff ffffffff ffffffff     ................
300117ac:	ffffffff ffffffff ffffffff ffffffff     ................
300117bc:	ffffffff ffffffff ffffffff ffffffff     ................
300117cc:	ffffffff ffffffff ffffffff ffffffff     ................
300117dc:	ffffffff ffffffff ffffffff ffffffff     ................
300117ec:	ffffffff ffffffff ffffffff ffffffff     ................
300117fc:	ffffffff ffffffff ffffffff ffffffff     ................
3001180c:	ffffffff ffffffff ffffffff ffffffff     ................
3001181c:	ffffffff ffffffff ffffffff ffffffff     ................
3001182c:	ffffffff ffffffff ffffffff ffffffff     ................
3001183c:	ffffffff ffffffff ffffffff ffffffff     ................
3001184c:	ffffffff ffffffff ffffffff ffffffff     ................
3001185c:	ffffffff ffffffff ffffffff ffffffff     ................
3001186c:	ffffffff ffffffff ffffffff ffffffff     ................
3001187c:	ffffffff ffffffff ffffffff ffffffff     ................
3001188c:	ffffffff ffffffff ffffffff ffffffff     ................
3001189c:	ffffffff ffffffff ffffffff ffffffff     ................
300118ac:	ffffffff ffffffff ffffffff ffffffff     ................
300118bc:	ffffffff ffffffff ffffffff ffffffff     ................
300118cc:	ffffffff ffffffff ffffffff ffffffff     ................
300118dc:	ffffffff ffffffff ffffffff ffffffff     ................
300118ec:	ffffffff ffffffff ffffffff ffffffff     ................
300118fc:	ffffffff ffffffff ffffffff ffffffff     ................
3001190c:	ffffffff ffffffff ffffffff ffffffff     ................
3001191c:	ffffffff ffffffff ffffffff ffffffff     ................
3001192c:	ffffffff ffffffff ffffffff ffffffff     ................
3001193c:	ffffffff ffffffff ffffffff ffffffff     ................
3001194c:	ffffffff ffffffff ffffffff ffffffff     ................
3001195c:	ffffffff ffffffff ffffffff ffffffff     ................
3001196c:	ffffffff ffffffff ffffffff ffffffff     ................
3001197c:	ffffffff ffffffff ffffffff ffffffff     ................
3001198c:	ffffffff ffffffff ffffffff ffffffff     ................
3001199c:	ffffffff ffffffff ffffffff ffffffff     ................
300119ac:	ffffffff ffffffff ffffffff ffffffff     ................
300119bc:	ffffffff ffffffff ffffffff ffffffff     ................
300119cc:	ffffffff ffffffff ffffffff ffffffff     ................
300119dc:	ffffffff ffffffff ffffffff ffffffff     ................
300119ec:	ffffffff ffffffff ffffffff ffffffff     ................
300119fc:	ffffffff ffffffff ffffffff ffffffff     ................
30011a0c:	ffffffff ffffffff ffffffff ffffffff     ................
30011a1c:	ffffffff ffffffff ffffffff ffffffff     ................
30011a2c:	ffffffff ffffffff ffffffff ffffffff     ................
30011a3c:	ffffffff ffffffff ffffffff ffffffff     ................
30011a4c:	ffffffff ffffffff ffffffff ffffffff     ................
30011a5c:	ffffffff ffffffff ffffffff ffffffff     ................
30011a6c:	ffffffff ffffffff ffffffff ffffffff     ................
30011a7c:	ffffffff ffffffff ffffffff ffffffff     ................
30011a8c:	ffffffff ffffffff ffffffff ffffffff     ................
30011a9c:	ffffffff ffffffff ffffffff ffffffff     ................
30011aac:	ffffffff ffffffff ffffffff ffffffff     ................
30011abc:	ffffffff ffffffff ffffffff ffffffff     ................
30011acc:	ffffffff ffffffff ffffffff ffffffff     ................
30011adc:	ffffffff ffffffff ffffffff ffffffff     ................
30011aec:	ffffffff ffffffff ffffffff ffffffff     ................
30011afc:	ffffffff ffffffff ffffffff ffffffff     ................
30011b0c:	ffffffff ffffffff ffffffff ffffffff     ................
30011b1c:	ffffffff ffffffff ffffffff ffffffff     ................
30011b2c:	ffffffff ffffffff ffffffff ffffffff     ................
30011b3c:	ffffffff ffffffff ffffffff ffffffff     ................
30011b4c:	ffffffff ffffffff ffffffff ffffffff     ................
30011b5c:	ffffffff ffffffff ffffffff ffffffff     ................
30011b6c:	ffffffff ffffffff ffffffff ffffffff     ................
30011b7c:	ffffffff ffffffff ffffffff ffffffff     ................
30011b8c:	ffffffff ffffffff ffffffff ffffffff     ................
30011b9c:	ffffffff ffffffff ffffffff ffffffff     ................
30011bac:	ffffffff ffffffff ffffffff ffffffff     ................
30011bbc:	ffffffff ffffffff ffffffff ffffffff     ................
30011bcc:	ffffffff ffffffff ffffffff ffffffff     ................
30011bdc:	ffffffff ffffffff ffffffff ffffffff     ................
30011bec:	ffffffff ffffffff ffffffff ffffffff     ................
30011bfc:	ffffffff ffffffff ffffffff ffffffff     ................
30011c0c:	ffffffff ffffffff ffffffff ffffffff     ................
30011c1c:	ffffffff ffffffff ffffffff ffffffff     ................
30011c2c:	ffffffff ffffffff ffffffff ffffffff     ................
30011c3c:	ffffffff ffffffff ffffffff ffffffff     ................
30011c4c:	ffffffff ffffffff ffffffff ffffffff     ................
30011c5c:	ffffffff ffffffff ffffffff ffffffff     ................
30011c6c:	ffffffff ffffffff ffffffff ffffffff     ................
30011c7c:	ffffffff ffffffff ffffffff ffffffff     ................
30011c8c:	ffffffff ffffffff ffffffff ffffffff     ................
30011c9c:	ffffffff ffffffff ffffffff ffffffff     ................
30011cac:	ffffffff ffffffff ffffffff ffffffff     ................
30011cbc:	ffffffff ffffffff ffffffff ffffffff     ................
30011ccc:	ffffffff ffffffff ffffffff ffffffff     ................
30011cdc:	ffffffff ffffffff ffffffff ffffffff     ................
30011cec:	ffffffff ffffffff ffffffff ffffffff     ................
30011cfc:	ffffffff ffffffff ffffffff ffffffff     ................
30011d0c:	ffffffff ffffffff ffffffff ffffffff     ................
30011d1c:	ffffffff ffffffff ffffffff ffffffff     ................
30011d2c:	ffffffff ffffffff ffffffff ffffffff     ................
30011d3c:	ffffffff ffffffff ffffffff ffffffff     ................
30011d4c:	ffffffff ffffffff ffffffff ffffffff     ................
30011d5c:	ffffffff ffffffff ffffffff ffffffff     ................
30011d6c:	ffffffff ffffffff ffffffff ffffffff     ................
30011d7c:	ffffffff ffffffff ffffffff ffffffff     ................
30011d8c:	ffffffff ffffffff ffffffff ffffffff     ................
30011d9c:	ffffffff ffffffff ffffffff ffffffff     ................
30011dac:	ffffffff ffffffff ffffffff ffffffff     ................
30011dbc:	ffffffff ffffffff ffffffff ffffffff     ................
30011dcc:	ffffffff ffffffff ffffffff ffffffff     ................
30011ddc:	ffffffff ffffffff ffffffff ffffffff     ................
30011dec:	ffffffff ffffffff ffffffff ffffffff     ................
30011dfc:	ffffffff ffffffff ffffffff ffffffff     ................
30011e0c:	ffffffff ffffffff ffffffff ffffffff     ................
30011e1c:	ffffffff ffffffff ffffffff ffffffff     ................
30011e2c:	ffffffff ffffffff ffffffff ffffffff     ................
30011e3c:	ffffffff ffffffff ffffffff ffffffff     ................
30011e4c:	ffffffff ffffffff ffffffff ffffffff     ................
30011e5c:	ffffffff ffffffff ffffffff ffffffff     ................
30011e6c:	ffffffff ffffffff ffffffff ffffffff     ................
30011e7c:	ffffffff ffffffff ffffffff ffffffff     ................
30011e8c:	ffffffff ffffffff ffffffff ffffffff     ................
30011e9c:	ffffffff ffffffff ffffffff ffffffff     ................
30011eac:	ffffffff ffffffff ffffffff ffffffff     ................
30011ebc:	ffffffff ffffffff ffffffff ffffffff     ................
30011ecc:	ffffffff ffffffff ffffffff ffffffff     ................
30011edc:	ffffffff ffffffff ffffffff ffffffff     ................
30011eec:	ffffffff ffffffff ffffffff ffffffff     ................
30011efc:	ffffffff ffffffff ffffffff ffffffff     ................
30011f0c:	ffffffff ffffffff ffffffff ffffffff     ................
30011f1c:	ffffffff ffffffff ffffffff ffffffff     ................
30011f2c:	ffffffff ffffffff ffffffff ffffffff     ................
30011f3c:	ffffffff ffffffff ffffffff ffffffff     ................
30011f4c:	ffffffff ffffffff ffffffff ffffffff     ................
30011f5c:	ffffffff ffffffff ffffffff ffffffff     ................
30011f6c:	ffffffff ffffffff ffffffff ffffffff     ................
30011f7c:	ffffffff ffffffff ffffffff ffffffff     ................
30011f8c:	ffffffff ffffffff ffffffff ffffffff     ................
30011f9c:	ffffffff ffffffff ffffffff ffffffff     ................
30011fac:	ffffffff ffffffff ffffffff ffffffff     ................
30011fbc:	ffffffff ffffffff ffffffff ffffffff     ................
30011fcc:	ffffffff ffffffff ffffffff ffffffff     ................
30011fdc:	ffffffff ffffffff ffffffff ffffffff     ................
30011fec:	ffffffff ffffffff ffffffff ffffffff     ................
30011ffc:	ffffffff ffffffff ffffffff ffffffff     ................
3001200c:	ffffffff ffffffff ffffffff ffffffff     ................
3001201c:	ffffffff ffffffff ffffffff ffffffff     ................
3001202c:	ffffffff ffffffff ffffffff ffffffff     ................
3001203c:	ffffffff ffffffff ffffffff ffffffff     ................
3001204c:	ffffffff ffffffff ffffffff ffffffff     ................
3001205c:	ffffffff ffffffff ffffffff ffffffff     ................
3001206c:	ffffffff ffffffff ffffffff ffffffff     ................
3001207c:	ffffffff ffffffff ffffffff ffffffff     ................
3001208c:	ffffffff ffffffff ffffffff ffffffff     ................
3001209c:	ffffffff ffffffff ffffffff ffffffff     ................
300120ac:	ffffffff ffffffff ffffffff ffffffff     ................
300120bc:	ffffffff ffffffff ffffffff ffffffff     ................
300120cc:	ffffffff ffffffff ffffffff ffffffff     ................
300120dc:	ffffffff ffffffff ffffffff ffffffff     ................
300120ec:	ffffffff ffffffff ffffffff ffffffff     ................
300120fc:	ffffffff ffffffff ffffffff ffffffff     ................
3001210c:	ffffffff ffffffff ffffffff ffffffff     ................
3001211c:	ffffffff ffffffff ffffffff ffffffff     ................
3001212c:	ffffffff ffffffff ffffffff ffffffff     ................
3001213c:	ffffffff ffffffff ffffffff ffffffff     ................
3001214c:	ffffffff ffffffff ffffffff ffffffff     ................
3001215c:	ffffffff ffffffff ffffffff ffffffff     ................
3001216c:	ffffffff ffffffff ffffffff ffffffff     ................
3001217c:	ffffffff ffffffff ffffffff ffffffff     ................
3001218c:	ffffffff ffffffff ffffffff ffffffff     ................
3001219c:	ffffffff ffffffff ffffffff ffffffff     ................
300121ac:	ffffffff ffffffff ffffffff ffffffff     ................
300121bc:	ffffffff ffffffff ffffffff ffffffff     ................
300121cc:	ffffffff ffffffff ffffffff ffffffff     ................
300121dc:	ffffffff ffffffff ffffffff ffffffff     ................
300121ec:	ffffffff ffffffff ffffffff ffffffff     ................
300121fc:	ffffffff ffffffff ffffffff ffffffff     ................
3001220c:	ffffffff ffffffff ffffffff ffffffff     ................
3001221c:	ffffffff ffffffff ffffffff ffffffff     ................
3001222c:	ffffffff ffffffff ffffffff ffffffff     ................
3001223c:	ffffffff ffffffff ffffffff ffffffff     ................
3001224c:	ffffffff ffffffff ffffffff ffffffff     ................
3001225c:	ffffffff ffffffff ffffffff ffffffff     ................
3001226c:	ffffffff ffffffff ffffffff ffffffff     ................
3001227c:	ffffffff ffffffff ffffffff ffffffff     ................
3001228c:	ffffffff ffffffff ffffffff ffffffff     ................
3001229c:	ffffffff ffffffff ffffffff ffffffff     ................
300122ac:	ffffffff ffffffff ffffffff ffffffff     ................
300122bc:	ffffffff ffffffff ffffffff ffffffff     ................
300122cc:	ffffffff ffffffff ffffffff ffffffff     ................
300122dc:	ffffffff ffffffff ffffffff ffffffff     ................
300122ec:	ffffffff ffffffff ffffffff ffffffff     ................
300122fc:	ffffffff ffffffff ffffffff ffffffff     ................
3001230c:	ffffffff ffffffff ffffffff ffffffff     ................
3001231c:	ffffffff ffffffff ffffffff ffffffff     ................
3001232c:	ffffffff ffffffff ffffffff ffffffff     ................
3001233c:	ffffffff ffffffff ffffffff ffffffff     ................
3001234c:	ffffffff ffffffff ffffffff ffffffff     ................
3001235c:	ffffffff ffffffff ffffffff ffffffff     ................
3001236c:	ffffffff ffffffff ffffffff ffffffff     ................
3001237c:	ffffffff ffffffff ffffffff ffffffff     ................
3001238c:	ffffffff ffffffff ffffffff ffffffff     ................
3001239c:	ffffffff ffffffff ffffffff ffffffff     ................
300123ac:	ffffffff ffffffff ffffffff ffffffff     ................
300123bc:	ffffffff ffffffff ffffffff ffffffff     ................
300123cc:	ffffffff ffffffff ffffffff ffffffff     ................
300123dc:	ffffffff ffffffff ffffffff ffffffff     ................
300123ec:	ffffffff ffffffff ffffffff ffffffff     ................
300123fc:	ffffffff ffffffff ffffffff ffffffff     ................
3001240c:	ffffffff ffffffff ffffffff ffffffff     ................
3001241c:	ffffffff ffffffff ffffffff ffffffff     ................
3001242c:	ffffffff ffffffff ffffffff ffffffff     ................
3001243c:	ffffffff ffffffff ffffffff ffffffff     ................
3001244c:	ffffffff ffffffff ffffffff ffffffff     ................
3001245c:	ffffffff ffffffff ffffffff ffffffff     ................
3001246c:	ffffffff ffffffff ffffffff ffffffff     ................
3001247c:	ffffffff ffffffff ffffffff ffffffff     ................
3001248c:	ffffffff ffffffff ffffffff ffffffff     ................
3001249c:	ffffffff ffffffff ffffffff ffffffff     ................
300124ac:	ffffffff ffffffff ffffffff ffffffff     ................
300124bc:	ffffffff ffffffff ffffffff ffffffff     ................
300124cc:	ffffffff ffffffff ffffffff ffffffff     ................
300124dc:	ffffffff ffffffff ffffffff ffffffff     ................
300124ec:	ffffffff ffffffff ffffffff ffffffff     ................
300124fc:	ffffffff ffffffff ffffffff ffffffff     ................
3001250c:	ffffffff ffffffff ffffffff ffffffff     ................
3001251c:	ffffffff ffffffff ffffffff ffffffff     ................
3001252c:	ffffffff ffffffff ffffffff ffffffff     ................
3001253c:	ffffffff ffffffff ffffffff ffffffff     ................
3001254c:	ffffffff ffffffff ffffffff ffffffff     ................
3001255c:	ffffffff ffffffff ffffffff ffffffff     ................
3001256c:	ffffffff ffffffff ffffffff ffffffff     ................
3001257c:	ffffffff ffffffff ffffffff ffffffff     ................
3001258c:	ffffffff ffffffff ffffffff ffffffff     ................
3001259c:	ffffffff ffffffff ffffffff ffffffff     ................
300125ac:	ffffffff ffffffff ffffffff ffffffff     ................
300125bc:	ffffffff ffffffff ffffffff ffffffff     ................
300125cc:	ffffffff ffffffff ffffffff ffffffff     ................
300125dc:	ffffffff ffffffff ffffffff ffffffff     ................
300125ec:	ffffffff ffffffff ffffffff ffffffff     ................
300125fc:	ffffffff ffffffff ffffffff ffffffff     ................
3001260c:	ffffffff ffffffff ffffffff ffffffff     ................
3001261c:	ffffffff ffffffff ffffffff ffffffff     ................
3001262c:	ffffffff ffffffff ffffffff ffffffff     ................
3001263c:	ffffffff ffffffff ffffffff ffffffff     ................
3001264c:	ffffffff ffffffff ffffffff ffffffff     ................
3001265c:	ffffffff ffffffff ffffffff ffffffff     ................
3001266c:	ffffffff ffffffff ffffffff ffffffff     ................
3001267c:	ffffffff ffffffff ffffffff ffffffff     ................
3001268c:	ffffffff ffffffff ffffffff ffffffff     ................
3001269c:	ffffffff ffffffff ffffffff ffffffff     ................
300126ac:	ffffffff ffffffff ffffffff ffffffff     ................
300126bc:	ffffffff ffffffff ffffffff ffffffff     ................
300126cc:	ffffffff ffffffff ffffffff ffffffff     ................
300126dc:	ffffffff ffffffff ffffffff ffffffff     ................
300126ec:	ffffffff ffffffff ffffffff ffffffff     ................
300126fc:	ffffffff ffffffff ffffffff ffffffff     ................
3001270c:	ffffffff ffffffff ffffffff ffffffff     ................
3001271c:	ffffffff ffffffff ffffffff ffffffff     ................
3001272c:	ffffffff ffffffff ffffffff ffffffff     ................
3001273c:	ffffffff ffffffff ffffffff ffffffff     ................
3001274c:	ffffffff ffffffff ffffffff ffffffff     ................
3001275c:	ffffffff ffffffff ffffffff ffffffff     ................
3001276c:	ffffffff ffffffff ffffffff ffffffff     ................
3001277c:	ffffffff ffffffff ffffffff ffffffff     ................
3001278c:	ffffffff ffffffff ffffffff ffffffff     ................
3001279c:	ffffffff ffffffff ffffffff ffffffff     ................
300127ac:	ffffffff ffffffff ffffffff ffffffff     ................
300127bc:	ffffffff ffffffff ffffffff ffffffff     ................
300127cc:	ffffffff ffffffff ffffffff ffffffff     ................
300127dc:	ffffffff ffffffff ffffffff ffffffff     ................
300127ec:	ffffffff ffffffff ffffffff ffffffff     ................
300127fc:	ffffffff ffffffff ffffffff ffffffff     ................
3001280c:	ffffffff ffffffff ffffffff ffffffff     ................
3001281c:	ffffffff ffffffff ffffffff ffffffff     ................
3001282c:	ffffffff ffffffff ffffffff ffffffff     ................
3001283c:	ffffffff ffffffff ffffffff ffffffff     ................
3001284c:	ffffffff ffffffff ffffffff ffffffff     ................
3001285c:	ffffffff ffffffff ffffffff ffffffff     ................
3001286c:	ffffffff ffffffff ffffffff ffffffff     ................
3001287c:	ffffffff ffffffff ffffffff ffffffff     ................
3001288c:	ffffffff ffffffff ffffffff ffffffff     ................
3001289c:	ffffffff ffffffff ffffffff ffffffff     ................
300128ac:	ffffffff ffffffff ffffffff ffffffff     ................
300128bc:	ffffffff ffffffff ffffffff ffffffff     ................
300128cc:	ffffffff ffffffff ffffffff ffffffff     ................
300128dc:	ffffffff ffffffff ffffffff ffffffff     ................
300128ec:	ffffffff ffffffff ffffffff ffffffff     ................
300128fc:	ffffffff ffffffff ffffffff ffffffff     ................
3001290c:	ffffffff ffffffff ffffffff ffffffff     ................
3001291c:	ffffffff ffffffff ffffffff ffffffff     ................
3001292c:	ffffffff ffffffff ffffffff ffffffff     ................
3001293c:	ffffffff ffffffff ffffffff ffffffff     ................
3001294c:	ffffffff ffffffff ffffffff ffffffff     ................
3001295c:	ffffffff ffffffff ffffffff ffffffff     ................
3001296c:	ffffffff ffffffff ffffffff ffffffff     ................
3001297c:	ffffffff ffffffff ffffffff ffffffff     ................
3001298c:	ffffffff ffffffff ffffffff ffffffff     ................
3001299c:	ffffffff ffffffff ffffffff ffffffff     ................
300129ac:	ffffffff ffffffff ffffffff ffffffff     ................
300129bc:	ffffffff ffffffff ffffffff ffffffff     ................
300129cc:	ffffffff ffffffff ffffffff ffffffff     ................
300129dc:	ffffffff ffffffff ffffffff ffffffff     ................
300129ec:	ffffffff ffffffff ffffffff ffffffff     ................
300129fc:	ffffffff ffffffff ffffffff ffffffff     ................
30012a0c:	ffffffff ffffffff ffffffff ffffffff     ................
30012a1c:	ffffffff ffffffff ffffffff ffffffff     ................
30012a2c:	ffffffff ffffffff ffffffff ffffffff     ................
30012a3c:	ffffffff ffffffff ffffffff ffffffff     ................
30012a4c:	ffffffff ffffffff ffffffff ffffffff     ................
30012a5c:	ffffffff ffffffff ffffffff ffffffff     ................
30012a6c:	ffffffff ffffffff ffffffff ffffffff     ................
30012a7c:	ffffffff ffffffff ffffffff ffffffff     ................
30012a8c:	ffffffff ffffffff ffffffff ffffffff     ................
30012a9c:	ffffffff ffffffff ffffffff ffffffff     ................
30012aac:	ffffffff ffffffff ffffffff ffffffff     ................
30012abc:	ffffffff ffffffff ffffffff ffffffff     ................
30012acc:	ffffffff ffffffff ffffffff ffffffff     ................
30012adc:	ffffffff ffffffff ffffffff ffffffff     ................
30012aec:	ffffffff ffffffff ffffffff ffffffff     ................
30012afc:	ffffffff ffffffff ffffffff ffffffff     ................
30012b0c:	ffffffff ffffffff ffffffff ffffffff     ................
30012b1c:	ffffffff ffffffff ffffffff ffffffff     ................
30012b2c:	ffffffff ffffffff ffffffff ffffffff     ................
30012b3c:	ffffffff ffffffff ffffffff ffffffff     ................
30012b4c:	ffffffff ffffffff ffffffff ffffffff     ................
30012b5c:	ffffffff ffffffff ffffffff ffffffff     ................
30012b6c:	ffffffff ffffffff ffffffff ffffffff     ................
30012b7c:	ffffffff ffffffff ffffffff ffffffff     ................
30012b8c:	ffffffff ffffffff ffffffff ffffffff     ................
30012b9c:	ffffffff ffffffff ffffffff ffffffff     ................
30012bac:	ffffffff ffffffff ffffffff ffffffff     ................
30012bbc:	ffffffff ffffffff ffffffff ffffffff     ................
30012bcc:	ffffffff ffffffff ffffffff ffffffff     ................
30012bdc:	ffffffff ffffffff ffffffff ffffffff     ................
30012bec:	ffffffff ffffffff ffffffff ffffffff     ................
30012bfc:	ffffffff ffffffff ffffffff ffffffff     ................
30012c0c:	ffffffff ffffffff ffffffff ffffffff     ................
30012c1c:	ffffffff ffffffff ffffffff ffffffff     ................
30012c2c:	ffffffff ffffffff ffffffff ffffffff     ................
30012c3c:	ffffffff ffffffff ffffffff ffffffff     ................
30012c4c:	ffffffff ffffffff ffffffff ffffffff     ................
30012c5c:	ffffffff ffffffff ffffffff ffffffff     ................
30012c6c:	ffffffff ffffffff ffffffff ffffffff     ................
30012c7c:	ffffffff ffffffff ffffffff ffffffff     ................
30012c8c:	ffffffff ffffffff ffffffff ffffffff     ................
30012c9c:	ffffffff ffffffff ffffffff ffffffff     ................
30012cac:	ffffffff ffffffff ffffffff ffffffff     ................
30012cbc:	ffffffff ffffffff ffffffff ffffffff     ................
30012ccc:	ffffffff ffffffff ffffffff ffffffff     ................
30012cdc:	ffffffff ffffffff ffffffff ffffffff     ................
30012cec:	ffffffff ffffffff ffffffff ffffffff     ................
30012cfc:	ffffffff ffffffff ffffffff ffffffff     ................
30012d0c:	ffffffff ffffffff ffffffff ffffffff     ................
30012d1c:	ffffffff ffffffff ffffffff ffffffff     ................
30012d2c:	ffffffff ffffffff ffffffff ffffffff     ................
30012d3c:	ffffffff ffffffff ffffffff ffffffff     ................
30012d4c:	ffffffff ffffffff ffffffff ffffffff     ................
30012d5c:	ffffffff ffffffff ffffffff ffffffff     ................
30012d6c:	ffffffff ffffffff ffffffff ffffffff     ................
30012d7c:	ffffffff ffffffff ffffffff ffffffff     ................
30012d8c:	ffffffff ffffffff ffffffff ffffffff     ................
30012d9c:	ffffffff ffffffff ffffffff ffffffff     ................
30012dac:	ffffffff ffffffff ffffffff ffffffff     ................
30012dbc:	ffffffff ffffffff ffffffff ffffffff     ................
30012dcc:	ffffffff ffffffff ffffffff ffffffff     ................
30012ddc:	ffffffff ffffffff ffffffff ffffffff     ................
30012dec:	ffffffff ffffffff ffffffff ffffffff     ................
30012dfc:	ffffffff ffffffff ffffffff ffffffff     ................
30012e0c:	ffffffff ffffffff ffffffff ffffffff     ................
30012e1c:	ffffffff ffffffff ffffffff ffffffff     ................
30012e2c:	ffffffff ffffffff ffffffff ffffffff     ................
30012e3c:	ffffffff ffffffff ffffffff ffffffff     ................
30012e4c:	ffffffff ffffffff ffffffff ffffffff     ................
30012e5c:	ffffffff ffffffff ffffffff ffffffff     ................
30012e6c:	ffffffff ffffffff ffffffff ffffffff     ................
30012e7c:	ffffffff ffffffff ffffffff ffffffff     ................
30012e8c:	ffffffff ffffffff ffffffff ffffffff     ................
30012e9c:	ffffffff ffffffff ffffffff ffffffff     ................
30012eac:	ffffffff ffffffff ffffffff ffffffff     ................
30012ebc:	ffffffff ffffffff ffffffff ffffffff     ................
30012ecc:	ffffffff ffffffff ffffffff ffffffff     ................
30012edc:	ffffffff ffffffff ffffffff ffffffff     ................
30012eec:	ffffffff ffffffff ffffffff ffffffff     ................
30012efc:	ffffffff ffffffff ffffffff ffffffff     ................
30012f0c:	ffffffff ffffffff ffffffff ffffffff     ................
30012f1c:	ffffffff ffffffff ffffffff ffffffff     ................
30012f2c:	ffffffff ffffffff ffffffff ffffffff     ................
30012f3c:	ffffffff ffffffff ffffffff ffffffff     ................
30012f4c:	ffffffff ffffffff ffffffff ffffffff     ................
30012f5c:	ffffffff ffffffff ffffffff ffffffff     ................
30012f6c:	ffffffff ffffffff ffffffff ffffffff     ................
30012f7c:	ffffffff ffffffff ffffffff ffffffff     ................
30012f8c:	ffffffff ffffffff ffffffff ffffffff     ................
30012f9c:	ffffffff ffffffff ffffffff ffffffff     ................
30012fac:	ffffffff ffffffff ffffffff ffffffff     ................
30012fbc:	ffffffff ffffffff ffffffff ffffffff     ................
30012fcc:	ffffffff ffffffff ffffffff ffffffff     ................
30012fdc:	ffffffff ffffffff ffffffff ffffffff     ................
30012fec:	ffffffff ffffffff ffffffff ffffffff     ................
30012ffc:	ffffffff ffffffff ffffffff ffffffff     ................
3001300c:	ffffffff ffffffff ffffffff ffffffff     ................
3001301c:	ffffffff ffffffff ffffffff ffffffff     ................
3001302c:	ffffffff ffffffff ffffffff ffffffff     ................
3001303c:	ffffffff ffffffff ffffffff ffffffff     ................
3001304c:	ffffffff ffffffff ffffffff ffffffff     ................
3001305c:	ffffffff ffffffff ffffffff ffffffff     ................
3001306c:	ffffffff ffffffff ffffffff ffffffff     ................
3001307c:	ffffffff ffffffff ffffffff ffffffff     ................
3001308c:	ffffffff ffffffff ffffffff ffffffff     ................
3001309c:	ffffffff ffffffff ffffffff ffffffff     ................
300130ac:	ffffffff ffffffff ffffffff ffffffff     ................
300130bc:	ffffffff ffffffff ffffffff ffffffff     ................
300130cc:	ffffffff ffffffff ffffffff ffffffff     ................
300130dc:	ffffffff ffffffff ffffffff ffffffff     ................
300130ec:	ffffffff ffffffff ffffffff ffffffff     ................
300130fc:	ffffffff ffffffff ffffffff ffffffff     ................
3001310c:	ffffffff ffffffff ffffffff ffffffff     ................
3001311c:	ffffffff ffffffff ffffffff ffffffff     ................
3001312c:	ffffffff ffffffff ffffffff ffffffff     ................
3001313c:	ffffffff ffffffff ffffffff ffffffff     ................
3001314c:	ffffffff ffffffff ffffffff ffffffff     ................
3001315c:	ffffffff ffffffff ffffffff ffffffff     ................
3001316c:	ffffffff ffffffff ffffffff ffffffff     ................
3001317c:	ffffffff ffffffff ffffffff ffffffff     ................
3001318c:	ffffffff ffffffff ffffffff ffffffff     ................
3001319c:	ffffffff ffffffff ffffffff ffffffff     ................
300131ac:	ffffffff ffffffff ffffffff ffffffff     ................
300131bc:	ffffffff ffffffff ffffffff ffffffff     ................
300131cc:	ffffffff ffffffff ffffffff ffffffff     ................
300131dc:	ffffffff ffffffff ffffffff ffffffff     ................
300131ec:	ffffffff ffffffff ffffffff ffffffff     ................
300131fc:	ffffffff ffffffff ffffffff ffffffff     ................
3001320c:	ffffffff ffffffff ffffffff ffffffff     ................
3001321c:	ffffffff ffffffff ffffffff ffffffff     ................
3001322c:	ffffffff ffffffff ffffffff ffffffff     ................
3001323c:	ffffffff ffffffff ffffffff ffffffff     ................
3001324c:	ffffffff ffffffff ffffffff ffffffff     ................
3001325c:	ffffffff ffffffff ffffffff ffffffff     ................
3001326c:	ffffffff ffffffff ffffffff ffffffff     ................
3001327c:	ffffffff ffffffff ffffffff ffffffff     ................
3001328c:	ffffffff ffffffff ffffffff ffffffff     ................
3001329c:	ffffffff ffffffff ffffffff ffffffff     ................
300132ac:	ffffffff ffffffff ffffffff ffffffff     ................
300132bc:	ffffffff ffffffff ffffffff ffffffff     ................
300132cc:	ffffffff ffffffff ffffffff ffffffff     ................
300132dc:	ffffffff ffffffff ffffffff ffffffff     ................
300132ec:	ffffffff ffffffff ffffffff ffffffff     ................
300132fc:	ffffffff ffffffff ffffffff ffffffff     ................
3001330c:	ffffffff ffffffff ffffffff ffffffff     ................
3001331c:	ffffffff ffffffff ffffffff ffffffff     ................
3001332c:	ffffffff ffffffff ffffffff ffffffff     ................
3001333c:	ffffffff ffffffff ffffffff ffffffff     ................
3001334c:	ffffffff ffffffff ffffffff ffffffff     ................
3001335c:	ffffffff ffffffff ffffffff ffffffff     ................
3001336c:	ffffffff ffffffff ffffffff ffffffff     ................
3001337c:	ffffffff ffffffff ffffffff ffffffff     ................
3001338c:	ffffffff ffffffff ffffffff ffffffff     ................
3001339c:	ffffffff ffffffff ffffffff ffffffff     ................
300133ac:	ffffffff ffffffff ffffffff ffffffff     ................
300133bc:	ffffffff ffffffff ffffffff ffffffff     ................
300133cc:	ffffffff ffffffff ffffffff ffffffff     ................
300133dc:	ffffffff ffffffff ffffffff ffffffff     ................
300133ec:	ffffffff ffffffff ffffffff ffffffff     ................
300133fc:	ffffffff ffffffff ffffffff ffffffff     ................
3001340c:	ffffffff ffffffff ffffffff ffffffff     ................
3001341c:	ffffffff ffffffff ffffffff ffffffff     ................
3001342c:	ffffffff ffffffff ffffffff ffffffff     ................
3001343c:	ffffffff ffffffff ffffffff ffffffff     ................
3001344c:	ffffffff ffffffff ffffffff ffffffff     ................
3001345c:	ffffffff ffffffff ffffffff ffffffff     ................
3001346c:	ffffffff ffffffff ffffffff ffffffff     ................
3001347c:	ffffffff ffffffff ffffffff ffffffff     ................
3001348c:	ffffffff ffffffff ffffffff ffffffff     ................
3001349c:	ffffffff ffffffff ffffffff ffffffff     ................
300134ac:	ffffffff ffffffff ffffffff ffffffff     ................
300134bc:	ffffffff ffffffff ffffffff ffffffff     ................
300134cc:	ffffffff ffffffff ffffffff ffffffff     ................
300134dc:	ffffffff ffffffff ffffffff ffffffff     ................
300134ec:	ffffffff ffffffff ffffffff ffffffff     ................
300134fc:	ffffffff ffffffff ffffffff ffffffff     ................
3001350c:	ffffffff ffffffff ffffffff ffffffff     ................
3001351c:	ffffffff ffffffff ffffffff ffffffff     ................
3001352c:	ffffffff ffffffff ffffffff ffffffff     ................
3001353c:	ffffffff ffffffff ffffffff ffffffff     ................
3001354c:	ffffffff ffffffff ffffffff ffffffff     ................
3001355c:	ffffffff ffffffff ffffffff ffffffff     ................
3001356c:	ffffffff ffffffff ffffffff ffffffff     ................
3001357c:	ffffffff ffffffff ffffffff ffffffff     ................
3001358c:	ffffffff ffffffff ffffffff ffffffff     ................
3001359c:	ffffffff ffffffff ffffffff ffffffff     ................
300135ac:	ffffffff ffffffff ffffffff ffffffff     ................
300135bc:	ffffffff ffffffff ffffffff ffffffff     ................
300135cc:	ffffffff ffffffff ffffffff ffffffff     ................
300135dc:	ffffffff ffffffff ffffffff ffffffff     ................
300135ec:	ffffffff ffffffff ffffffff ffffffff     ................
300135fc:	ffffffff ffffffff ffffffff ffffffff     ................
3001360c:	ffffffff ffffffff ffffffff ffffffff     ................
3001361c:	ffffffff ffffffff ffffffff ffffffff     ................
3001362c:	ffffffff ffffffff ffffffff ffffffff     ................
3001363c:	ffffffff ffffffff ffffffff ffffffff     ................
3001364c:	ffffffff ffffffff ffffffff ffffffff     ................
3001365c:	ffffffff ffffffff ffffffff ffffffff     ................
3001366c:	ffffffff ffffffff ffffffff ffffffff     ................
3001367c:	ffffffff ffffffff ffffffff ffffffff     ................
3001368c:	ffffffff ffffffff ffffffff ffffffff     ................
3001369c:	ffffffff ffffffff ffffffff ffffffff     ................
300136ac:	ffffffff ffffffff ffffffff ffffffff     ................
300136bc:	ffffffff ffffffff ffffffff ffffffff     ................
300136cc:	ffffffff ffffffff ffffffff ffffffff     ................
300136dc:	ffffffff ffffffff ffffffff ffffffff     ................
300136ec:	ffffffff ffffffff ffffffff ffffffff     ................
300136fc:	ffffffff ffffffff ffffffff ffffffff     ................
3001370c:	ffffffff ffffffff ffffffff ffffffff     ................
3001371c:	ffffffff ffffffff ffffffff ffffffff     ................
3001372c:	ffffffff ffffffff ffffffff ffffffff     ................
3001373c:	ffffffff ffffffff ffffffff ffffffff     ................
3001374c:	ffffffff ffffffff ffffffff ffffffff     ................
3001375c:	ffffffff ffffffff ffffffff ffffffff     ................
3001376c:	ffffffff ffffffff ffffffff ffffffff     ................
3001377c:	ffffffff ffffffff ffffffff ffffffff     ................
3001378c:	ffffffff ffffffff ffffffff ffffffff     ................
3001379c:	ffffffff ffffffff ffffffff ffffffff     ................
300137ac:	ffffffff ffffffff ffffffff ffffffff     ................
300137bc:	ffffffff ffffffff ffffffff ffffffff     ................
300137cc:	ffffffff ffffffff ffffffff ffffffff     ................
300137dc:	ffffffff ffffffff ffffffff ffffffff     ................
300137ec:	ffffffff ffffffff ffffffff ffffffff     ................
300137fc:	ffffffff ffffffff ffffffff ffffffff     ................
3001380c:	ffffffff ffffffff ffffffff ffffffff     ................
3001381c:	ffffffff ffffffff ffffffff ffffffff     ................
3001382c:	ffffffff ffffffff ffffffff ffffffff     ................
3001383c:	ffffffff ffffffff ffffffff ffffffff     ................
3001384c:	ffffffff ffffffff ffffffff ffffffff     ................
3001385c:	ffffffff ffffffff ffffffff ffffffff     ................
3001386c:	ffffffff ffffffff ffffffff ffffffff     ................
3001387c:	ffffffff ffffffff ffffffff ffffffff     ................
3001388c:	ffffffff ffffffff ffffffff ffffffff     ................
3001389c:	ffffffff ffffffff ffffffff ffffffff     ................
300138ac:	ffffffff ffffffff ffffffff ffffffff     ................
300138bc:	ffffffff ffffffff ffffffff ffffffff     ................
300138cc:	ffffffff ffffffff ffffffff ffffffff     ................
300138dc:	ffffffff ffffffff ffffffff ffffffff     ................
300138ec:	ffffffff ffffffff ffffffff ffffffff     ................
300138fc:	ffffffff ffffffff ffffffff ffffffff     ................
3001390c:	ffffffff ffffffff ffffffff ffffffff     ................
3001391c:	ffffffff ffffffff ffffffff ffffffff     ................
3001392c:	ffffffff ffffffff ffffffff ffffffff     ................
3001393c:	ffffffff ffffffff ffffffff ffffffff     ................
3001394c:	ffffffff ffffffff ffffffff ffffffff     ................
3001395c:	ffffffff ffffffff ffffffff ffffffff     ................
3001396c:	ffffffff ffffffff ffffffff ffffffff     ................
3001397c:	ffffffff ffffffff ffffffff ffffffff     ................
3001398c:	ffffffff ffffffff ffffffff ffffffff     ................
3001399c:	ffffffff ffffffff ffffffff ffffffff     ................
300139ac:	ffffffff ffffffff ffffffff ffffffff     ................
300139bc:	ffffffff ffffffff ffffffff ffffffff     ................
300139cc:	ffffffff ffffffff ffffffff ffffffff     ................
300139dc:	ffffffff ffffffff ffffffff ffffffff     ................
300139ec:	ffffffff ffffffff ffffffff ffffffff     ................
300139fc:	ffffffff ffffffff ffffffff ffffffff     ................
30013a0c:	ffffffff ffffffff ffffffff ffffffff     ................
30013a1c:	ffffffff ffffffff ffffffff ffffffff     ................
30013a2c:	ffffffff ffffffff ffffffff ffffffff     ................
30013a3c:	ffffffff ffffffff ffffffff ffffffff     ................
30013a4c:	ffffffff ffffffff ffffffff ffffffff     ................
30013a5c:	ffffffff ffffffff ffffffff ffffffff     ................
30013a6c:	ffffffff ffffffff ffffffff ffffffff     ................
30013a7c:	ffffffff ffffffff ffffffff ffffffff     ................
30013a8c:	ffffffff ffffffff ffffffff ffffffff     ................
30013a9c:	ffffffff ffffffff ffffffff ffffffff     ................
30013aac:	ffffffff ffffffff ffffffff ffffffff     ................
30013abc:	ffffffff ffffffff ffffffff ffffffff     ................
30013acc:	ffffffff ffffffff ffffffff ffffffff     ................
30013adc:	ffffffff ffffffff ffffffff ffffffff     ................
30013aec:	ffffffff ffffffff ffffffff ffffffff     ................
30013afc:	ffffffff ffffffff ffffffff ffffffff     ................
30013b0c:	ffffffff ffffffff ffffffff ffffffff     ................
30013b1c:	ffffffff ffffffff ffffffff ffffffff     ................
30013b2c:	ffffffff ffffffff ffffffff ffffffff     ................
30013b3c:	ffffffff ffffffff ffffffff ffffffff     ................
30013b4c:	ffffffff ffffffff ffffffff ffffffff     ................
30013b5c:	ffffffff ffffffff ffffffff ffffffff     ................
30013b6c:	ffffffff ffffffff ffffffff ffffffff     ................
30013b7c:	ffffffff ffffffff ffffffff ffffffff     ................
30013b8c:	ffffffff ffffffff ffffffff ffffffff     ................
30013b9c:	ffffffff ffffffff ffffffff ffffffff     ................
30013bac:	ffffffff ffffffff ffffffff ffffffff     ................
30013bbc:	ffffffff ffffffff ffffffff ffffffff     ................
30013bcc:	ffffffff ffffffff ffffffff ffffffff     ................
30013bdc:	ffffffff ffffffff ffffffff ffffffff     ................
30013bec:	ffffffff ffffffff ffffffff ffffffff     ................
30013bfc:	ffffffff ffffffff ffffffff ffffffff     ................
30013c0c:	ffffffff ffffffff ffffffff ffffffff     ................
30013c1c:	ffffffff ffffffff ffffffff ffffffff     ................
30013c2c:	ffffffff ffffffff ffffffff ffffffff     ................
30013c3c:	ffffffff ffffffff ffffffff ffffffff     ................
30013c4c:	ffffffff ffffffff ffffffff ffffffff     ................
30013c5c:	ffffffff ffffffff ffffffff ffffffff     ................
30013c6c:	ffffffff ffffffff ffffffff ffffffff     ................
30013c7c:	ffffffff ffffffff ffffffff ffffffff     ................
30013c8c:	ffffffff ffffffff ffffffff ffffffff     ................
30013c9c:	ffffffff ffffffff ffffffff ffffffff     ................
30013cac:	ffffffff ffffffff ffffffff ffffffff     ................
30013cbc:	ffffffff ffffffff ffffffff ffffffff     ................
30013ccc:	ffffffff ffffffff ffffffff ffffffff     ................
30013cdc:	ffffffff ffffffff ffffffff ffffffff     ................
30013cec:	ffffffff ffffffff ffffffff ffffffff     ................
30013cfc:	ffffffff ffffffff ffffffff ffffffff     ................
30013d0c:	ffffffff ffffffff ffffffff ffffffff     ................
30013d1c:	ffffffff ffffffff ffffffff ffffffff     ................
30013d2c:	ffffffff ffffffff ffffffff ffffffff     ................
30013d3c:	ffffffff ffffffff ffffffff ffffffff     ................
30013d4c:	ffffffff ffffffff ffffffff ffffffff     ................
30013d5c:	ffffffff ffffffff ffffffff ffffffff     ................
30013d6c:	ffffffff ffffffff ffffffff ffffffff     ................
30013d7c:	ffffffff ffffffff ffffffff ffffffff     ................
30013d8c:	ffffffff ffffffff ffffffff ffffffff     ................
30013d9c:	ffffffff ffffffff ffffffff ffffffff     ................
30013dac:	ffffffff ffffffff ffffffff ffffffff     ................
30013dbc:	ffffffff ffffffff ffffffff ffffffff     ................
30013dcc:	ffffffff ffffffff ffffffff ffffffff     ................
30013ddc:	ffffffff ffffffff ffffffff ffffffff     ................
30013dec:	ffffffff ffffffff ffffffff ffffffff     ................
30013dfc:	ffffffff ffffffff ffffffff ffffffff     ................
30013e0c:	ffffffff ffffffff ffffffff ffffffff     ................
30013e1c:	ffffffff ffffffff ffffffff ffffffff     ................
30013e2c:	ffffffff ffffffff ffffffff ffffffff     ................
30013e3c:	ffffffff ffffffff ffffffff ffffffff     ................
30013e4c:	ffffffff ffffffff ffffffff ffffffff     ................
30013e5c:	ffffffff ffffffff ffffffff ffffffff     ................
30013e6c:	ffffffff ffffffff ffffffff ffffffff     ................
30013e7c:	ffffffff ffffffff ffffffff ffffffff     ................
30013e8c:	ffffffff ffffffff ffffffff ffffffff     ................
30013e9c:	ffffffff ffffffff ffffffff ffffffff     ................
30013eac:	ffffffff ffffffff ffffffff ffffffff     ................
30013ebc:	ffffffff ffffffff ffffffff ffffffff     ................
30013ecc:	ffffffff ffffffff ffffffff ffffffff     ................
30013edc:	ffffffff ffffffff ffffffff ffffffff     ................
30013eec:	ffffffff ffffffff ffffffff ffffffff     ................
30013efc:	ffffffff ffffffff ffffffff ffffffff     ................
30013f0c:	ffffffff ffffffff ffffffff ffffffff     ................
30013f1c:	ffffffff ffffffff ffffffff ffffffff     ................
30013f2c:	ffffffff ffffffff ffffffff ffffffff     ................
30013f3c:	ffffffff ffffffff ffffffff ffffffff     ................
30013f4c:	ffffffff ffffffff ffffffff ffffffff     ................
30013f5c:	ffffffff ffffffff ffffffff ffffffff     ................
30013f6c:	e73cce59 b5b6b5b6 c618dedb f7beffff     Y.<.............
30013f7c:	ffffffff ffffffff ffffe71c ce59ffff     ..............Y.
30013f8c:	ffffffff ffffffff ffffffff ffffffff     ................
30013f9c:	ffffffff ffffffff ffffffff ffdfef5d     ............]...
30013fac:	e71ce71c e73cef7d ffffffff ffffffff     ....}.<.........
30013fbc:	ffffffff ffffffff ffffffff ffffffff     ................
30013fcc:	ffffffff ffffffff ffffffff ffffffff     ................
30013fdc:	ffffffff e71cc618 b596bdd7 d6baffdf     ................
30013fec:	ffffffff ffffffff ffffce59 ffffffff     ........Y.......
30013ffc:	ffffffff ffffffff ffffffff ffffffff     ................
3001400c:	ffffffff ffffffff ffffffff ce595acb     .............ZY.
3001401c:	52aa4a49 5acb5acb 5acb5acb 5acb5acb     IJ.R.Z.Z.Z.Z.Z.Z
3001402c:	5acb52aa 528a528a 528a528a 52aa52aa     .R.Z.R.R.R.R.R.R
3001403c:	5acb5acb 5acb5acb 5acb5acb ce79ffff     .Z.Z.Z.Z.Z.Z..y.
3001404c:	ffffffff ffffffff ffffffff ffffffff     ................
3001405c:	ffffffff ffffffff ffffce59 73ae31a6     ........Y....1.s
3001406c:	08610000 00000000 00000000 1082528a     ..a..........R..
3001407c:	a534ef5d ffffffff ffff6b4d 52aaffff     ].4.....Mk.....R
3001408c:	ffffffff ffffffff ffffffff ffffffff     ................
3001409c:	ffffffff ffffce59 7bef4228 18c30000     ....Y...(B.{....
300140ac:	00000000 00000020 2104528a 8c71dedb     .... ....R.!..q.
300140bc:	ffffffff ffffffff ffffffff ffffffff     ................
300140cc:	ffffffff ffffffff ffffffff ffffffff     ................
300140dc:	a5344208 00000000 00000000 00001082     .B4.............
300140ec:	6b4dd69a ffffffff dedb3186 ffffffff     ..Mk.....1......
300140fc:	ffffffff ffffffff ffffffff ffffffff     ................
3001410c:	ffffffff ffffffff ffffffff ef7dc638     ............8.}.
3001411c:	b5b6630c 00000000 00000000 00000000     .c..............
3001412c:	00000000 00200020 00200000 00000000     .... . ... .....
	...
30014148:	b596ffff ffffffff ffffffff ffffffff     ................
30014158:	ffffffff ffffffff ffffc618 4a490000     ..............IJ
	...
30014170:	212452aa 6b4d630c 31a60000 00000861     .R$!.cMk...1a...
30014180:	5aebad55 9cd30020 6b4dffff ffffffff     U..Z .....Mk....
30014190:	ffffffff ffffffff ffffffff ffffc618     ................
300141a0:	4a490000 00000000 0841630c 9cf3ad75     ..IJ.....cA.u...
300141b0:	9cf35aeb 00200000 00000841 52aace79     .Z.... .A...y..R
300141c0:	ffffffff ffffffff ffffffff ffffffff     ................
300141d0:	ffffffff ffffffff ef7d4a49 00000000     ........IJ}.....
300141e0:	21248410 ad75b596 8c714208 00000000     ..$!..u..Bq.....
300141f0:	4a6994b2 42082124 ffffffff ffffffff     ..iJ$!.B........
30014200:	ffffffff ffffffff ffffffff ffffffff     ................
30014210:	ffffffff ffffffff ffffffff ffffffff     ................
30014220:	6b4d0000 00000000 00000000 00007bef     ..Mk.........{..
30014230:	f79ef79e f79eef7d e73cd6ba b5965acb     ....}.....<..Z..
	...
30014248:	b5b6ffff ffffffff ffffffff ffffffff     ................
30014258:	ffffffff fffff7be 738e0000 00000000     ...........s....
30014268:	00000000 528ac618 ffdfffff ffffffff     .......R........
30014278:	ffffe73c 8c710861 00000000 00000000     <...a.q.........
30014288:	738effff ffffffff ffffffff ffffffff     ...s............
30014298:	ffffffdf 738e0000 00000000 00004a49     .......s....IJ..
300142a8:	e71cffff ffffffff ffffffff e71c528a     .............R..
300142b8:	00000000 00000020 8410ffff ffffffff     .... ...........
300142c8:	ffffffff ffffffff ffffffff ffffef7d     ............}...
300142d8:	31860000 00005acb f7beffff ffffffff     ...1.Z..........
300142e8:	ffffffff c6382965 00000000 00003186     ....e)8......1..
300142f8:	ffffffff ffffffff ffffffff ffffffff     ................
30014308:	ffffffff ffffffff ffffffff ffffffff     ................
30014318:	ffffffff ffffffff ad550000 00000000     ..........U.....
30014328:	00000000 00008c51 ffffffff ffffffff     ....Q...........
30014338:	ffffffff ffffffff c6182104 00000000     .........!......
30014348:	b5b6ffff ffffffff ffffffff ffffffff     ................
30014358:	ffffffff ef5d39c7 00000000 00000000     .....9].........
30014368:	00209cf3 ffffffff ffffffff ffffffff     .. .............
30014378:	ffffffff ffffe71c 42280000 00000000     ..........(B....
30014388:	738effff ffffffff ffffffff ffffffff     ...s............
30014398:	f79e4208 00000000 00000000 4228ffdf     .B............(B
300143a8:	ffffffff ffffffff ffffffff ffffffff     ................
300143b8:	4a490000 00000000 000052aa ffdfffff     ..IJ.....R......
300143c8:	ffffffff ffffffff ffffffff ffff528a     .............R..
300143d8:	00000000 2124ffdf ffffffff ffffffff     ......$!........
300143e8:	ffffffff fffff7be 528a0000 00002965     ...........Re)..
300143f8:	ffffffff ffffffff ffffffff ffffffff     ................
30014408:	ffffffff ffffffff ffffffff ffffffff     ................
30014418:	ffffffff ffffffff ad750000 00000000     ..........u.....
30014428:	00000000 00008430 ffffffff ffffffff     ....0...........
30014438:	ffffffff ffffffff ffffdedb 10820000     ................
30014448:	b5b6ffff ffffffff ffffffff ffffffff     ................
30014458:	ffffef7d 31860000 00000000 00000000     }......1........
30014468:	b596ffff ffffffff ffffffff ffffffff     ................
30014478:	ffffffff ffffffff ffdf4228 00000000     ........(B......
30014488:	738effff ffffffff ffffffff fffff79e     ...s............
30014498:	39e70000 00000000 00001082 e73cffff     ...9..........<.
300144a8:	ffffffff ffffffff ffffffff ffffffff     ................
300144b8:	e73c1082 00000000 00000000 52aaffff     ..<............R
300144c8:	ffffffff ffffffff ffffffff bdd70000     ................
300144d8:	00000000 73aeffff ffffffff ffffffff     .......s........
300144e8:	ffffffff ffffffff ffdf31a6 00002124     .........1..$!..
300144f8:	ffdfffff ffffffff ffffffff ffffffff     ................
30014508:	ffffffff ffffffff ffffffff ffffffff     ................
30014518:	ffffffff ffffffff ad750000 00000000     ..........u.....
30014528:	00000000 00008430 ffffffff ffffffff     ....0...........
30014538:	ffffffff ffffffff ffffffff 84100000     ................
30014548:	b5b6ffff ffffffff ffffffff ffffffff     ................
30014558:	ffff4208 00000000 00000000 00008410     .B..............
30014568:	ffffffff ffffffff ffffffff ffffffff     ................
30014578:	ffffffff ffffffff ffffef7d 18e30000     ........}.......
30014588:	738effff ffffffff ffffffff ffff52aa     ...s.........R..
	...
300145a0:	00008410 ffffffff ffffffff ffffffff     ................
300145b0:	ffffffff ffffffff ffff73ae 00000000     .........s......
300145c0:	00000000 000073ae ffffffff ffffffff     .....s..........
300145d0:	ffffffff 5acb0000 00000000 7bcfffff     .......Z.......{
300145e0:	ffffffff ffffffff ffffffff ffffffff     ................
300145f0:	ffffd6ba 000018e3 f7beffff ffffffff     ................
30014600:	ffffffff ffffffff ffffffff ffffffff     ................
30014610:	ffffffff ffffffff ffffffff ffffffff     ................
30014620:	ad750000 00000000 00000000 00008430     ..u.........0...
30014630:	ffffffff ffffffff ffffd6ba ef5dffff     ..............].
30014640:	ffffffff e71c0000 b596ffff ffffffff     ................
30014650:	ffffffff ffffffff 84100000 00000000     ................
30014660:	00000000 2104ffdf ffffffff ffffffff     .......!........
30014670:	ffffffff ffffffff ffffffff ffffffff     ................
30014680:	ffffffff a5140000 6b6dffff ffffffff     ..........mk....
30014690:	ffffffff a5140000 00000000 00000000     ................
300146a0:	0841e73c ffffffff ffffffff ffffffff     <.A.............
300146b0:	ffffffff ffffffff ffffdedb 00200000     .............. .
	...
300146c8:	c618ffff ffffffff ffffffff 29450000     ..............E)
300146d8:	00000000 2965ffff ffffffff ffffffff     ......e)........
300146e8:	ffffffff ffffffff ffffffff 52aa0841     ............A..R
300146f8:	f7beffff ffffffff ffffffff ffffffff     ................
30014708:	ffffffff ffffffff ffffffff ffffffff     ................
30014718:	ffffffff ffffffff ad750000 00000000     ..........u.....
30014728:	00000000 00008430 ffffffff ffffffff     ....0...........
30014738:	ffff4208 ad75ffff ffffffff ffff2104     .B....u......!..
30014748:	a514ffff ffffffff ffffffff ffffd69a     ................
30014758:	00200000 00000000 00000000 8430ffff     .. ...........0.
30014768:	ffffffff ffffffff ffffffff ffffffff     ................
30014778:	ffffffff ffffffff ffffffff ffdf1082     ................
30014788:	632cffff ffffffff fffff79e 18c30000     ..,c............
	...
300147a0:	4208ffff ffffffff ffffffff ffffffff     ...B............
300147b0:	ffffffff ffffffff ffffffff 31860000     ...............1
	...
300147c8:	31a6ffff ffffffff fffff79e 10a20000     ...1............
300147d8:	00000000 0000632c ffffffff ffffffff     ....,c..........
300147e8:	ffffffff ffffffff ffffffff b5b60841     ............A...
300147f8:	ef7dffff ffffffff ffffffff ffffffff     ..}.............
30014808:	ffffffff ffffffff ffffffff ffffffff     ................
30014818:	ffffffff ffffffff ad750000 00000000     ..........u.....
30014828:	00000000 00008430 ffffffff ffffffff     ....0...........
30014838:	ffff2124 b5b6ffff ffffffff ffff9492     $!..............
30014848:	bdf7ffff ffffffff ffffffff ffff52aa     .............R..
	...
30014860:	00000020 dedbffff ffffffff ffffffff      ...............
30014870:	ffffffff ffffffff ffffffff ffffffff     ................
30014880:	ffffffff ffff5acb 4a69ffff ffffffff     .....Z....iJ....
30014890:	ffff94b2 00000000 00000000 00000000     ................
300148a0:	7befffff ffffffff ffffffff ffffffff     ...{............
300148b0:	ffffffff ffffffff ffffffff 632c0000     ..............,c
	...
300148c8:	0000bdf7 ffffffff fffff7be 18c30000     ................
	...
300148e0:	528ae71c ffffffff ffffffff ffffffff     ...R............
300148f0:	ffffffff ef5d2965 e73cffff ffffffff     ....e)]...<.....
30014900:	ffffffff ffffffff ffffffff ffffffff     ................
30014910:	ffffffff ffffffff ffffffff ffffffff     ................
30014920:	ad750000 00000000 00000000 00008430     ..u.........0...
30014930:	ffffffff ffffffff defb0000 bdf7ffff     ................
30014940:	ffffffff ffffffff ffffffff ffffffff     ................
30014950:	ffffffff dedb0020 00000000 00000000     .... ...........
30014960:	00002965 ffffffff ffffffff ffffffff     e)..............
30014970:	ffffffff ffffffff ffffffff ffffffff     ................
30014980:	ffffffff ffffce59 ad75ffff ffffffff     ....Y.....u.....
30014990:	ffff39e7 00000000 00000000 00000000     .9..............
300149a0:	ad55ffff ffffffff ffffffff ffffffff     ..U.............
300149b0:	ffffffff ffffffff ffffffff 94920000     ................
	...
300149c8:	0000630c ffffffff ffffffff 39c70000     .c.............9
	...
300149e0:	000010a2 8c51f79e ffffffff ffffffff     ......Q.........
300149f0:	ffffffff ffffe71c ffdfffff ffffffff     ................
30014a00:	ffffffff ffffffff ffffffff ffffffff     ................
30014a10:	ffffffff ffffffff ffffffff ffffffff     ................
30014a20:	ad750000 00000000 00000000 00008430     ..u.........0...
30014a30:	ffffffff ffffffff 8c510000 c618ffff     ..........Q.....
30014a40:	ffffffff ffffffff ffffffff ffffffff     ................
30014a50:	ffffffff 8c510000 00000000 00000000     ......Q.........
30014a60:	0000630c ffffffff ffffffff ffffffff     .c..............
30014a70:	ffffffff ffffffff ffffffff ffffffff     ................
30014a80:	ffffffff ffffffff ffffffff ffffffff     ................
30014a90:	e71c0841 00000000 00000000 00000000     A...............
30014aa0:	ce59ffff ffffffff ffffffff ffffffff     ..Y.............
30014ab0:	ffffffff ffffffff ffffffff ad550000     ..............U.
	...
30014ac8:	00002104 ffdfffff ffffffff 84300000     .!............0.
	...
30014ae4:	00002104 9492f7be ffffffff ffffffff     .!..............
30014af4:	ffffffff ffffffff ffffffff ffffffff     ................
30014b04:	ffffffff ffffffff ffffffff ffffffff     ................
30014b14:	ffffffff ffffffff ffffffff ad750000     ..............u.
	...
30014b2c:	00008430 ffffffff ffffef7d 18c30000     0.......}.......
30014b3c:	c618ffff ffffffff ffffffff ffffffff     ................
30014b4c:	ffffffff ffffffff 42280000 00000000     ..........(B....
30014b5c:	00000000 00008430 ffffffff ffffffff     ....0...........
30014b6c:	ffffffff ffffffff ffffffff ffffffff     ................
30014b7c:	ffffffff ffffffff ffffffff ffffffff     ................
30014b8c:	ffffffff b5b60000 00000000 00000000     ................
30014b9c:	00000020 defbffff ffffffff ffffffff      ...............
30014bac:	ffffffff ffffffff ffffffff ffffffff     ................
30014bbc:	bdf70000 00000000 00000000 00000000     ................
30014bcc:	dedbffff ffffffff ef5d1082 00000000     ..........].....
	...
30014be8:	00002124 94b2ffdf ffffffff ffffffff     $!..............
30014bf8:	ffffffff ffffffff ffffffff ffffffff     ................
30014c08:	ffffffff ffffffff ffffffff ffffffff     ................
30014c18:	ffffffff ffffffff ad750000 00000000     ..........u.....
30014c28:	00000000 00009492 ffffffff d69a39c7     .............9..
30014c38:	00000000 c618ffff ffffffff ffffffff     ................
30014c48:	ffffffff ffffffff fffff7be 18e30000     ................
	...
30014c60:	00009cf3 ffffffff ffffffff ffffffff     ................
30014c70:	ffffffff ffffffff ffffffff ffffffff     ................
30014c80:	ffffffff ffffffff ffffffff ffffffff     ................
30014c90:	94b20000 00000000 00000000 00001082     ................
30014ca0:	ef5dffff ffffffff ffffffff ffffffff     ..].............
30014cb0:	ffffffff ffffffff ffffffff ce790000     ..............y.
	...
30014ccc:	bdd7ffff ffffffff ffffa534 00000000     ........4.......
	...
30014cec:	00002965 b596ffff ffffffff ffffffff     e)..............
30014cfc:	ffffffff ffffffff ffffffff ffffffff     ................
30014d0c:	ffffffff ffffffff ffffffff ffffffff     ................
30014d1c:	ffffffff ad750000 00000000 00000000     ......u.........
30014d2c:	000031a6 5acb39e7 00200000 00000000     .1...9.Z.. .....
30014d3c:	c618ffff ffffffff ffffffff ffffffff     ................
30014d4c:	ffffffff ffffdefb 00200000 00000000     .......... .....
30014d5c:	00000000 0000a534 ffffffff ffffffff     ....4...........
30014d6c:	ffffffff ffffffff ffffffff ffffffff     ................
30014d7c:	ffffffff ffffffff ffffffff ffffffff     ................
30014d8c:	ffffffff 84100000 00000000 00000000     ................
30014d9c:	000010a2 ef7dffff ffffffff ffffffff     ......}.........
30014dac:	ffffffff ffffffff ffffffff ffffffff     ................
30014dbc:	d69a0000 00000000 00000000 00000000     ................
30014dcc:	ad55ffff ffffffff ffffffff 84300000     ..U...........0.
	...
30014df0:	0000632c f79effff ffffffff ffffffff     ,c..............
30014e00:	ffffffff ffffffff ffffffff ffffffff     ................
30014e10:	ffffffff ffffffff ffffffff ffffffff     ................
30014e20:	ad750000 00000000 00000000 00000000     ..u.............
	...
30014e3c:	c618ffff ffffffff ffffffff ffffffff     ................
30014e4c:	ffffffff ffffd6ba 00000000 00000000     ................
30014e5c:	00000000 0000ad55 ffffffff ffffffff     ....U...........
30014e6c:	ffffffff ffffffff ffffffff ffffffff     ................
30014e7c:	ffffffff ffffffff ffffffff ffffffff     ................
30014e8c:	ffffffff 7bef0000 00000000 00000000     .......{........
30014e9c:	000018c3 f79effff ffffffff ffffffff     ................
30014eac:	ffffffff ffffffff ffffffff ffffffff     ................
30014ebc:	d69a0000 00000000 00000000 00000000     ................
30014ecc:	a514ffff ffffffff ffffffff ffffa514     ................
30014edc:	08610000 00000000 00000000 00000000     ..a.............
	...
30014ef4:	3186e71c ffffffff ffffffff ffffffff     ...1............
30014f04:	ffffffff ffffffff ffffffff ffffffff     ................
30014f14:	ffffffff ffffffff ffffffff ad750000     ..............u.
	...
30014f2c:	00007bef e73cce59 73ae0000 00000000     .{..Y.<....s....
30014f3c:	c618ffff ffffffff ffffffff ffffffff     ................
30014f4c:	ffffffff ffffd6ba 00000000 00000000     ................
30014f5c:	00000000 0000a514 ffffffff ffffffff     ................
30014f6c:	ffffffff ffffffff ffffffff ffffffff     ................
30014f7c:	ffffffff ffffffff ffffffff ffffffff     ................
30014f8c:	ffffffff 84300000 00000000 00000000     ......0.........
30014f9c:	000010a2 ef7dffff ffffffff ffffffff     ......}.........
30014fac:	ffffffff ffffffff ffffffff ffffffff     ................
30014fbc:	d69a0000 00000000 00000000 00000000     ................
30014fcc:	ad75ffff ffffffff ffffffff ffffffff     ..u.............
30014fdc:	dedb528a 00000000 00000000 00000000     .R..............
	...
30014ff4:	00002945 ef7dffff ffffffff ffffffff     E)....}.........
30015004:	ffffffff ffffffff ffffffff ffffffff     ................
30015014:	ffffffff ffffffff ffffffff ad750000     ..............u.
	...
3001502c:	00008c71 ffffffff ffffa534 00000000     q.......4.......
3001503c:	c618ffff ffffffff ffffffff ffffffff     ................
3001504c:	ffffffff ffffe71c 08410000 00000000     ..........A.....
3001505c:	00000000 00009492 ffffffff ffffffff     ................
3001506c:	ffffffff ffffffff ffffffff ffffffff     ................
3001507c:	ffffffff ffffffff ffffffff ffffffff     ................
3001508c:	ffffffff 9cf30000 00000000 00000000     ................
3001509c:	00000861 ef5dffff ffffffff ffffffff     a.....].........
300150ac:	ffffffff ffffffff ffffffff ffffffff     ................
300150bc:	ce790000 00000000 00000000 00000000     ..y.............
300150cc:	c638ffff ffffffff ffffffff ffffffff     ..8.............
300150dc:	ffffffff b59631a6 00000000 00000000     .....1..........
	...
300150f8:	5aebffff ffffffff ffffffff ffffffff     ...Z............
30015108:	ffffffff ffffffff ffffffff ffffffff     ................
30015118:	ffffffff ffffffff ad750000 00000000     ..........u.....
30015128:	00000000 00008c51 ffffffff ffffffff     ....Q...........
30015138:	4a690000 c618ffff ffffffff ffffffff     ..iJ............
30015148:	ffffffff ffffffff ffffffdf 21040000     ...............!
	...
30015160:	000073ae ffffffff ffffffff ffffffff     .s..............
30015170:	ffffffff ffffffff ffffffff ffffffff     ................
30015180:	ffffffff ffffffff ffffffff ffffffff     ................
30015190:	c6180000 00000000 00000000 00000020     ............ ...
300151a0:	defbffff ffffffff ffffffff ffffffff     ................
300151b0:	ffffffff ffffffff ffffffff bdf70000     ................
	...
300151c8:	00000841 e73cffff ffffffff ffffffff     A.....<.........
300151d8:	ffffffff ffffffff ffffffff ad5531a6     .............1U.
	...
300151f8:	0000d6ba ffffffff ffffffff ffffffff     ................
30015208:	ffffffff ffffffff ffffffff ffffffff     ................
30015218:	ffffffff ffffffff ad750000 00000000     ..........u.....
30015228:	00000000 00008c51 ffffffff ffffffff     ....Q...........
30015238:	c6180000 c618ffff ffffffff ffffffff     ................
30015248:	ffffffff ffffffff ffffffff 4a690000     ..............iJ
	...
30015260:	00004a69 ffffffff ffffffff ffffffff     iJ..............
30015270:	ffffffff ffffffff ffffffff ffffffff     ................
30015280:	ffffffff ffffffff ffffffff ffffffff     ................
30015290:	ef7d1082 00000000 00000000 00000000     ..}.............
300152a0:	c638ffff ffffffff ffffffff ffffffff     ..8.............
300152b0:	ffffffff ffffffff ffffffff a5340000     ..............4.
	...
300152c8:	000031a6 ffffffff ffffef7d a514ffff     .1......}.......
300152d8:	ffffffff ffffffff ffffffff ffffffff     ................
300152e8:	a5342945 00000000 00000000 00000000     E)4.............
300152f8:	00008430 ffffffff ffffffff ffffffff     0...............
30015308:	ffffffff ffffffff ffffffff ffffffff     ................
30015318:	ffffffff ffffffff ad750000 00000000     ..........u.....
30015328:	00000000 00008c71 ffffffff ffffffff     ....q...........
30015338:	ffdf10a2 bdd7ffff ffffffff ffffffff     ................
30015348:	ffffb5b6 ce79ffff ffffffff 94b20000     ......y.........
	...
30015360:	00002104 ffdfffff ffffffff ffffffff     .!..............
30015370:	ffffffff ffffffff ffffffff ffffffff     ................
30015380:	ffffffff ffffffff ffffffff ffffffff     ................
30015390:	ffff4a49 00000000 00000000 00000000     IJ..............
300153a0:	a534ffff ffffffff ffffffff ffffffff     ..4.............
300153b0:	ffffffff ffffffff ffffffff 84300000     ..............0.
	...
300153c8:	00007bef ffffffff ffffe73c 10a2e73c     .{......<...<...
300153d8:	ffffffff ffffffff ffffffff ffffffff     ................
300153e8:	fffff7be 73ae0000 00000000 00000000     .......s........
300153f8:	000052aa ffffffff ffffffff ffffffff     .R..............
30015408:	ffffffff ffffffff ffffffff ffffffff     ................
30015418:	ffffffff ffffffff ad750000 00000000     ..........u.....
30015428:	00000000 00008c71 ffffffff ffffffff     ....q...........
30015438:	ffff31a6 ad75ffff ffffffff ffffffff     .1....u.........
30015448:	ffff3186 b596ffff ffffffff e73c0841     .1..........A.<.
	...
30015464:	ce79ffff ffffffff ffffffff ffffffff     ..y.............
30015474:	ffffffff ffffffff ffffffff ffffffff     ................
30015484:	ffffffff ffffffff ffffffff ffffad75     ............u...
	...
300154a0:	73aeffff ffffffff ffffffff ffffffff     ...s............
300154b0:	ffffffff ffffffff ffffffff 52aa0000     ...............R
	...
300154c8:	0020dedb ffffffff ffffef7d 0020ad55     .. .....}...U. .
300154d8:	ffffffff ffffffff ffffffff ffffffff     ................
300154e8:	ffffffff ffff9cd3 00000000 00000000     ................
300154f8:	00004a49 ffffffff ffffffff ffffffff     IJ..............
30015508:	ffffffff ffffffff ffffffff ffffffff     ................
30015518:	ffffffff ffffffff ad750000 00000000     ..........u.....
30015528:	00000000 00008c71 ffffffff ffffffff     ....q...........
30015538:	ffffad75 d6baffff ffffffff ffffffff     u...............
30015548:	ce790020 e71cffff ffffffff ffff6b4d      .y.........Mk..
	...
30015564:	7befffff ffffffff ffffffff ffffffff     ...{............
30015574:	ffffffff ffffffff ffffffff ffffffff     ................
30015584:	ffffffff ffffffff ffffffff ffffffdf     ................
30015594:	29450000 00000000 00000000 31a6ffff     ..E)...........1
300155a4:	ffffffff ffffffff ffffffff ffffffff     ................
300155b4:	ffffffff ffffffdf 18e30000 00000000     ................
300155c4:	00000000 5aebffff ffffffff ffffef7d     .......Z....}...
300155d4:	00004a69 ffffffff ffffffff ffffffff     iJ..............
300155e4:	ffffffff ffffffff ffffffff 630c0000     ...............c
300155f4:	00000000 0000528a ffffffff ffffffff     .....R..........
30015604:	ffffffff ffffffff ffffffff ffffffff     ................
30015614:	ffffffff ffffffff ffffffff ad750000     ..............u.
	...
3001562c:	00008c71 ffffffff ffffffff ffffffff     q...............
3001563c:	ffffffff ffffffff ffffffff 4a491082     ..............IJ
3001564c:	ffdfffff ffffffff ffffe73c 10820000     ........<.......
	...
30015664:	2104ffdf ffffffff ffffffff ffffffff     ...!............
30015674:	ffffffff ffffffff ffffffff ffffffff     ................
30015684:	ffff9492 d6baffff ffffffff ffffffff     ................
30015694:	b5b60000 00000000 00000000 0020dedb     .............. .
300156a4:	ffffffff ffffffff ffffffff ffffffff     ................
300156b4:	ffffffff ffffbdf7 00000000 00000000     ................
300156c4:	00000861 e71cffff ffffffff ffffef7d     a...........}...
300156d4:	08610000 d6baffff ffffffff ffffffff     ..a.............
300156e4:	ffffffff ffffffff ffffffff d69a0000     ................
300156f4:	00000000 00007bef ffffffff ffffffff     .....{..........
30015704:	ffffffff ffffffff ffffffff ffffffff     ................
30015714:	ffffffff ffffffff ffffffff ad750000     ..............u.
	...
3001572c:	00008c51 ffffffff ffffffff ffffffff     Q...............
3001573c:	ffffffff ffffffff ffffad55 000039e7     ........U....9..
3001574c:	ffffffff ffffffff ffffffff a5340000     ..............4.
	...
30015764:	00008c51 ffffffff ffffffff ffffffff     Q...............
30015774:	ffffffff ffffffff ffffffff ffffffff     ................
30015784:	94b20000 dedbffff ffffffff ffffffff     ................
30015794:	ffff6b4d 00000000 00000000 000073ae     Mk...........s..
300157a4:	ffffffff ffffffff ffffffff ffffffff     ................
300157b4:	ffffffff ffff528a 00000000 00000000     .....R..........
300157c4:	00009cf3 ffffffff ffffffff ffffef7d     ............}...
300157d4:	10820000 4228ffff ffffffff ffffffff     ......(B........
300157e4:	ffffffff ffffffff ffffffff ef5d0861     ............a.].
300157f4:	00000000 0000ce79 ffffffff ffffffff     ....y...........
30015804:	ffffffff ffffffff ffffffff ffffffff     ................
30015814:	ffffffff ffffffff ffffffff ad750000     ..............u.
	...
3001582c:	00008430 ffffffff ffffffff ffffffff     0...............
3001583c:	ffffffff ffffffff bdd70841 0000632c     ........A...,c..
3001584c:	ffffffff ffffffff ffffffff ffff7bcf     .............{..
	...
30015864:	00000020 c638ffff ffffffff ffffffff      .....8.........
30015874:	ffffffff ffffffff ffffffff ffff8c71     ............q...
30015884:	00002124 f79effff ffffffff ffffffff     $!..............
30015894:	ffffffdf 42280000 00000000 00000861     ......(B....a...
300158a4:	defbffff ffffffff ffffffff ffffffff     ................
300158b4:	ffffffff c6380000 00000000 00000000     ......8.........
300158c4:	738effff ffffffff ffffffff ffffef7d     ...s........}...
300158d4:	10820000 00007bef ffffffff ffffffff     .....{..........
300158e4:	ffffffff ffffffff ffffffff d69a0000     ................
300158f4:	00000000 528affff ffffffff ffffffff     .......R........
30015904:	ffffffff ffffffff ffffffff ffffffff     ................
30015914:	ffffffff ffffffff ffffffff a5140000     ................
	...
3001592c:	0000632c ffffffff ffffffff ffffffff     ,c..............
3001593c:	ffffffff ef7d8410 00200000 00008430     ......}... .0...
3001594c:	ffffffff ffffffff ffffffff ffffffff     ................
3001595c:	84100000 00000000 00000000 1082b596     ................
3001596c:	ffffffff ffffffff ffffffff ffffffff     ................
3001597c:	ffffdefb 528a0000 3186e71c ffffffff     .......R...1....
3001598c:	ffffffff ffffffff ffffffff f79e4228     ............(B..
	...
300159a4:	39e7ffdf ffffffff ffffffff ffffffff     ...9............
300159b4:	ffffef5d 21240000 00000000 00006b6d     ].....$!....mk..
300159c4:	ffffffff ffffffff ffffffff ffffef7d     ............}...
300159d4:	10820000 00000000 8410ffff ffffffff     ................
300159e4:	ffffffff ffffffff ffffffff 5aeb0000     ...............Z
300159f4:	000018c3 e73cffff ffffffff ffffffff     ......<.........
30015a04:	ffffffff ffffffff ffffffff ffffffff     ................
30015a14:	ffffffff ffffffff ffffffff 528a0000     ...............R
	...
30015a2c:	00000841 94b2dedb defbdefb defbce79     A...........y...
30015a3c:	a5346b4d 18e30000 00000000 0000ad55     Mk4.........U...
30015a4c:	ffffffff ffffffff ffffffff ffffffff     ................
30015a5c:	ffffb596 21240000 00000000 00000000     ......$!........
30015a6c:	52aab5b6 e73cffff ffffffff ef5dbdd7     ...R..<.......].
30015a7c:	6b4d0000 00005aeb f79effff ffffffff     ..Mk.Z..........
30015a8c:	ffffffff ffffffff ffffffff ffffffff     ................
30015a9c:	73ae0000 00000000 000039e7 d6baffff     ...s.....9......
30015aac:	ffffffff ffffffff ce592965 00000000     ........e)Y.....
30015abc:	00000861 94b2ffff ffffffff ffffffff     a...............
30015acc:	ffffffff ffffef7d 10a20000 00000000     ....}...........
30015adc:	00004a49 d69affff ffffffff ffffffff     IJ..............
30015aec:	ffff73ae 00000000 18e3ce79 ffffffff     .s......y.......
30015afc:	ffffffff ffffffff ffffffff ffffffff     ................
30015b0c:	ffffffff ffffffff ffffffff defb9cf3     ................
30015b1c:	949239e7 00000000 00000000 00000000     .9..............
	...
30015b48:	0000ce59 ffffffff ffffffff ffffffff     Y...............
30015b58:	ffffffff ffffffff f79e8410 21040000     ...............!
	...
30015b70:	08612104 296518e3 00200000 00002965     .!a...e).. .e)..
30015b80:	ad75ffff ffffffff ffffffff ffffffff     ..u.............
30015b90:	ffffffff ffffffff ffffffff ffffc638     ............8...
30015ba0:	528a0020 00000000 00004208 7bef8c71      ..R.....B..q..{
30015bb0:	73ae39e7 00000000 00000861 630cdedb     .9.s....a......c
30015bc0:	ffffffff ffffffff ffffffff ffffffff     ................
30015bd0:	ffffef7d 00200861 73ae7bcf 29650000     }...a. ..{.s..e)
30015be0:	000039e7 8430a534 a51473ae 21240000     .9..4.0..s....$!
30015bf0:	0000528a e71cffff ffffffff ffffffff     .R..............
30015c00:	ffffffff ffffffff ffffffff ffffffff     ................
30015c10:	ffffffff ffffffff d69a738e 6b6d6b6d     .........s..mkmk
30015c20:	7bef7bef 7bef7bef 7bef7bef 7bef7bef     .{.{.{.{.{.{.{.{
30015c30:	7bef7bcf 7bcf7bcf 7bcf7bef 7bef7bef     .{.{.{.{.{.{.{.{
30015c40:	84108410 84107bef 8430f79e ffffffff     .....{....0.....
30015c50:	ffffffff ffffffff ffffffff ffffffff     ................
30015c60:	ffffffff f7beb5b6 738e39e7 18e30841     .........9.sA...
30015c70:	00000000 00000861 3186738e bdf7ffff     ....a....s.1....
30015c80:	ffffffff ffffffff ffffffff ffffffff     ................
30015c90:	ffffffff ffffffff ffffffff ffffffff     ................
30015ca0:	ffffd6ba 8c514a69 21040000 00000000     ....iJQ....!....
30015cb0:	00000000 212452aa 94b2e71c ffffffff     .....R$!........
30015cc0:	ffffffff ffffffff ffffffff ffffffff     ................
30015cd0:	ffffef5d 18c3c618 ffffffff ffffbdd7     ]...............
30015ce0:	632c18c3 00000000 00000000 18c3630c     ..,c.........c..
30015cf0:	bdf7ffff ffffffff ffffffff ffffffff     ................
30015d00:	ffffffff ffffffff ffffffff ffffffff     ................
30015d10:	ffffffff ffffffff ffffffff ffffffff     ................
30015d20:	ffffffff ffffffff ffffffff ffffffff     ................
30015d30:	ffffffff ffffffff ffffffff ffffffff     ................
30015d40:	ffffffff ffffffff ffffffff ffffffff     ................
30015d50:	ffffffff ffffffff ffffffff ffffffff     ................
30015d60:	ffffffff ffffffff ffffffff f7bee71c     ................
30015d70:	dedbdedb e71cf79e ffffffff ffffffff     ................
30015d80:	ffffffff ffffffff ffffffff ffffffff     ................
30015d90:	ffffffff ffffffff ffffffff ffffffff     ................
30015da0:	ffffffff ffffffff ffffef5d defbdedb     ........].......
30015db0:	defbef5d ffffffff ffffffff ffffffff     ]...............
30015dc0:	ffffffff ffffffff ffffffff ffffffff     ................
30015dd0:	ffffffdf e73cffff ffffffff ffffffff     ......<.........
30015de0:	ffffffff e73cd6ba d6bae71c ffdfffff     ......<.........
30015df0:	ffffffff ffffffff ffffffff ffffffff     ................
30015e00:	ffffffff ffffffff ffffffff ffffffff     ................
30015e10:	ffffffff ffffffff ffffffff ffffffff     ................
30015e20:	ffffffff ffffffff ffffffff ffffffff     ................
30015e30:	ffffffff ffffffff ffffffff ffffffff     ................
30015e40:	ffffffff ffffffff ffffffff ffffffff     ................
30015e50:	ffffffff ffffffff ffffffff ffffffff     ................
30015e60:	ffffffff ffffffff ffffffff ffffffff     ................
30015e70:	ffffffff ffffffff ffffffff ffffffff     ................
30015e80:	ffffffff ffffffff ffffffff ffffffff     ................
30015e90:	ffffffff ffffffff ffffffff ffffffff     ................
30015ea0:	ffffffff ffffffff ffffffff ffffffff     ................
30015eb0:	ffffffff ffffffff ffffffff ffffffff     ................
30015ec0:	ffffffff ffffffff ffffffff ffffffff     ................
30015ed0:	ffffffff ffffffff ffffffff ffffffff     ................
30015ee0:	ffffffff ffffffff ffffffff ffffffff     ................
30015ef0:	ffffffff ffffffff ffffffff ffffffff     ................
30015f00:	ffffffff ffffffff ffffffff ffffffff     ................
30015f10:	ffffffff ffffffff ffffffff ffffffff     ................
30015f20:	ffffffff ffffffff ffffffff ffffffff     ................
30015f30:	ffffffff ffffffff ffffffff ffffffff     ................
30015f40:	ffffffff ffffffff ffffffff ffffffff     ................
30015f50:	ffffffff ffffffff ffffffff ffffffff     ................
30015f60:	ffffffff ffffffff ffffffff ffffffff     ................
30015f70:	ffffffff ffffffff ffffffff ffffffff     ................
30015f80:	ffffffff ffffffff ffffffff ffffffff     ................
30015f90:	ffffffff ffffffff ffffffff ffffffff     ................
30015fa0:	ffffffff ffffffff ffffffff ffffffff     ................
30015fb0:	ffffffff ffffffff ffffffff ffffffff     ................
30015fc0:	ffffffff ffffffff ffffffff ffffffff     ................
30015fd0:	ffffffff ffffffff ffffffff ffffffff     ................
30015fe0:	ffffffff ffffffff ffffffff ffffffff     ................
30015ff0:	ffffffff ffffffff ffffffff ffffffff     ................
30016000:	ffffffff ffffffff ffffffff ffffffff     ................
30016010:	ffffffff ffffffff ffffffff ffffffff     ................
30016020:	ffffffff ffffffff ffffffff ffffffff     ................
30016030:	ffffffff ffffffff ffffffff ffffffff     ................
30016040:	ffffffff ffffffff ffffffff ffffffff     ................
30016050:	ffffffff ffffffff ffffffff ffffffff     ................
30016060:	ffffffff ffffffff ffffffff ffffffff     ................
30016070:	ffffffff ffffffff ffffffff ffffffff     ................
30016080:	ffffffff ffffffff ffffffff ffffffff     ................
30016090:	ffffffff ffffffff ffffffff ffffffff     ................
300160a0:	ffffffff ffffffff ffffffff ffffffff     ................
300160b0:	ffffffff ffffffff ffffffff ffffffff     ................
300160c0:	ffffffff ffffffff ffffffff ffffffff     ................
300160d0:	ffffffff ffffffff ffffffff ffffffff     ................
300160e0:	ffffffff ffffffff ffffffff ffffffff     ................
300160f0:	ffffffff ffffffff ffffffff ffffffff     ................
30016100:	ffffffff ffffffff ffffffff ffffffff     ................
30016110:	ffffffff ffffffff ffffffff ffffffff     ................
30016120:	ffffffff ffffffff ffffffff ffffffff     ................
30016130:	ffffffff ffffffff ffffffff ffffffff     ................
30016140:	ffffffff ffffffff ffffffff ffffffff     ................
30016150:	ffffffff ffffffff ffffffff ffffffff     ................
30016160:	ffffffff ffffffff ffffffff ffffffff     ................
30016170:	ffffffff ffffffff ffffffff ffffffff     ................
30016180:	ffffffff ffffffff ffffffff ffffffff     ................
30016190:	ffffffff ffffffff ffffffff ffffffff     ................
300161a0:	ffffffff ffffffff ffffffff ffffffff     ................
300161b0:	ffffffff ffffffff ffffffff ffffffff     ................
300161c0:	ffffffff ffffffff ffffffff ffffffff     ................
300161d0:	ffffffff ffffffff ffffffff ffffffff     ................
300161e0:	ffffffff ffffffff ffffffff ffffffff     ................
300161f0:	ffffffff ffffffff ffffffff ffffffff     ................
30016200:	ffffffff ffffffff ffffffff ffffffff     ................
30016210:	ffffffff ffffffff ffffffff ffffffff     ................
30016220:	ffffffff ffffffff ffffffff ffffffff     ................
30016230:	ffffffff ffffffff ffffffff ffffffff     ................
30016240:	ffffffff ffffffff ffffffff ffffffff     ................
30016250:	ffffffff ffffffff ffffffff ffffffff     ................
30016260:	ffffffff ffffffff ffffffff ffffffff     ................
30016270:	ffffffff ffffffff ffffffff ffffffff     ................
30016280:	ffffffff ffffffff ffffffff ffffffff     ................
30016290:	ffffffff ffffffff ffffffff ffffffff     ................
300162a0:	ffffffff ffffffff ffffffff ffffffff     ................
300162b0:	ffffffff ffffffff ffffffff ffffffff     ................
300162c0:	ffffffff ffffffff ffffffff ffffffff     ................
300162d0:	ffffffff ffffffff ffffffff ffffffff     ................
300162e0:	ffffffff ffffffff ffffffff ffffffff     ................
300162f0:	ffffffff ffffffff ffffffff ffffffff     ................
30016300:	ffffffff ffffffff ffffffff ffffffff     ................
30016310:	ffffffff ffffffff ffffffff ffffffff     ................
30016320:	ffffffff ffffffff ffffffff ffffffff     ................
30016330:	ffffffff ffffffff ffffffff ffffffff     ................
30016340:	ffffffff ffffffff ffffffff ffffffff     ................
30016350:	ffffffff ffffffff ffffffff ffffffff     ................
30016360:	ffffffff ffffffff ffffffff ffffffff     ................
30016370:	ffffffff ffffffff ffffffff ffffffff     ................
30016380:	ffffffff ffffffff ffffffff ffffffff     ................
30016390:	ffffffff ffffffff ffffffff ffffffff     ................
300163a0:	ffffffff ffffffff ffffffff ffffffff     ................
300163b0:	ffffffff ffffffff ffffffff ffffffff     ................
300163c0:	ffffffff ffffffff ffffffff ffffffff     ................
300163d0:	ffffffff ffffffff ffffffff ffffffff     ................
300163e0:	ffffffff ffffffff ffffffff ffffffff     ................
300163f0:	ffffffff ffffffff ffffffff ffffffff     ................
30016400:	ffffffff ffffffff ffffffff ffffffff     ................
30016410:	ffffffff ffffffff ffffffff ffffffff     ................
30016420:	ffffffff ffffffff ffffffff ffffffff     ................
30016430:	ffffffff ffffffff ffffffff ffffffff     ................
30016440:	ffffffff ffffffff ffffffff ffffffff     ................
30016450:	ffffffff ffffffff ffffffff ffffffff     ................
30016460:	ffffffff ffffffff ffffffff ffffffff     ................
30016470:	ffffffff ffffffff ffffffff ffffffff     ................
30016480:	ffffffff ffffffff ffffffff ffffffff     ................
30016490:	ffffffff ffffffff ffffffff ffffffff     ................
300164a0:	ffffffff ffffffff ffffffff ffffffff     ................
300164b0:	ffffffff ffffffff ffffffff ffffffff     ................
300164c0:	ffffffff ffffffff ffffffff ffffffff     ................
300164d0:	ffffffff ffffffff ffffffff ffffffff     ................
300164e0:	ffffffff ffffffff ffffffff ffffffff     ................
300164f0:	ffffffff ffffffff ffffffff ffffffff     ................
30016500:	ffffffff ffffffff ffffffff ffffffff     ................
30016510:	ffffffff ffffffff ffffffff ffffffff     ................
30016520:	ffffffff ffffffff ffffffff ffffffff     ................
30016530:	ffffffff ffffffff ffffffff ffffffff     ................
30016540:	ffffffff ffffffff ffffffff ffffffff     ................
30016550:	ffffffff ffffffff ffffffff ffffffff     ................
30016560:	ffffffff ffffffff ffffffff ffffffff     ................
30016570:	ffffffff ffffffff ffffffff ffffffff     ................
30016580:	ffffffff ffffffff ffffffff ffffffff     ................
30016590:	ffffffff ffffffff ffffffff ffffffff     ................
300165a0:	ffffffff ffffffff ffffffff ffffffff     ................
300165b0:	ffffffff ffffffff ffffffff ffffffff     ................
300165c0:	ffffffff ffffffff ffffffff ffffffff     ................
300165d0:	ffffffff ffffffff ffffffff ffffffff     ................
300165e0:	ffffffff ffffffff ffffffff ffffffff     ................
300165f0:	ffffffff ffffffff ffffffff ffffffff     ................
30016600:	ffffffff ffffffff ffffffff ffffffff     ................
30016610:	ffffffff ffffffff ffffffff ffffffff     ................
30016620:	ffffffff ffffffff ffffffff ffffffff     ................
30016630:	ffffffff ffffffff ffffffff ffffffff     ................
30016640:	ffffffff ffffffff ffffffff ffffffff     ................
30016650:	ffffffff ffffffff ffffffff ffffffff     ................
30016660:	ffffffff ffffffff ffffffff ffffffff     ................
30016670:	ffffffff ffffffff ffffffff ffffffff     ................
30016680:	ffffffff ffffffff ffffffff ffffffff     ................
30016690:	ffffffff ffffffff ffffffff ffffffff     ................
300166a0:	ffffffff ffffffff ffffffff ffffffff     ................
300166b0:	ffffffff ffffffff ffffffff ffffffff     ................
300166c0:	ffffffff ffffffff ffffffff ffffffff     ................
300166d0:	ffffffff ffffffff ffffffff ffffffff     ................
300166e0:	ffffffff ffffffff ffffffff ffffffff     ................
300166f0:	ffffffff ffffffff ffffffff ffffffff     ................
30016700:	ffffffff ffffffff ffffffff ffffffff     ................
30016710:	ffffffff ffffffff ffffffff ffffffff     ................
30016720:	ffffffff ffffffff ffffffff ffffffff     ................
30016730:	ffffffff ffffffff ffffffff ffffffff     ................
30016740:	ffffffff ffffffff ffffffff ffffffff     ................
30016750:	ffffffff ffffffff ffffffff ffffffff     ................
30016760:	ffffffff ffffffff ffffffff ffffffff     ................
30016770:	ffffffff ffffffff ffffffff ffffffff     ................
30016780:	ffffffff ffffffff ffffffff ffffffff     ................
30016790:	ffffffff ffffffff ffffffff ffffffff     ................
300167a0:	ffffffff ffffffff ffffffff ffffffff     ................
300167b0:	ffffffff ffffffff ffffffff ffffffff     ................
300167c0:	ffffffff ffffffff ffffffff ffffffff     ................
300167d0:	ffffffff ffffffff ffffffff ffffffff     ................
300167e0:	ffffffff ffffffff ffffffff ffffffff     ................
300167f0:	ffffffff ffffffff ffffffff ffffffff     ................
30016800:	ffffffff ffffffff ffffffff ffffffff     ................
30016810:	ffffffff ffffffff ffffffff ffffffff     ................
30016820:	ffffffff ffffffff ffffffff ffffffff     ................
30016830:	ffffffff ffffffff ffffffff ffffffff     ................
30016840:	ffffffff ffffffff ffffffff ffffffff     ................
30016850:	ffffffff ffffffff ffffffff ffffffff     ................
30016860:	ffffffff ffffffff ffffffff ffffffff     ................
30016870:	ffffffff ffffffff ffffffff ffffffff     ................
30016880:	ffffffff ffffffff ffffffff ffffffff     ................
30016890:	ffffffff ffffffff ffffffff ffffffff     ................
300168a0:	ffffffff ffffffff ffffffff ffffffff     ................
300168b0:	ffffffff ffffffff ffffffff ffffffff     ................
300168c0:	ffffffff ffffffff ffffffff ffffffff     ................
300168d0:	ffffffff ffffffff ffffffff ffffffff     ................
300168e0:	ffffffff ffffffff ffffffff ffffffff     ................
300168f0:	ffffffff ffffffff ffffffff ffffffff     ................
30016900:	ffffffff ffffffff ffffffff ffffffff     ................
30016910:	ffffffff ffffffff ffffffff ffffffff     ................
30016920:	ffffffff ffffffff ffffffff ffffffff     ................
30016930:	ffffffff ffffffff ffffffff ffffffff     ................
30016940:	ffffffff ffffffff ffffffff ffffffff     ................
30016950:	ffffffff ffffffff ffffffff ffffffff     ................
30016960:	ffffffff ffffffff ffffffff ffffffff     ................
30016970:	ffffffff ffffffff ffffffff ffffffff     ................
30016980:	ffffffff ffffffff ffffffff ffffffff     ................
30016990:	ffffffff ffffffff ffffffff ffffffff     ................
300169a0:	ffffffff ffffffff ffffffff ffffffff     ................
300169b0:	ffffffff ffffffff ffffffff ffffffff     ................
300169c0:	ffffffff ffffffff ffffffff ffffffff     ................
300169d0:	ffffffff ffffffff ffffffff ffffffff     ................
300169e0:	ffffffff ffffffff ffffffff ffffffff     ................
300169f0:	ffffffff ffffffff ffffffff ffffffff     ................
30016a00:	ffffffff ffffffff ffffffff ffffffff     ................
30016a10:	ffffffff ffffffff ffffffff ffffffff     ................
30016a20:	ffffffff ffffffff ffffffff ffffffff     ................
30016a30:	ffffffff ffffffff ffffffff ffffffff     ................
30016a40:	ffffffff ffffffff ffffffff ffffffff     ................
30016a50:	ffffffff ffffffff ffffffff ffffffff     ................
30016a60:	ffffffff ffffffff ffffffff ffffffff     ................
30016a70:	ffffffff ffffffff ffffffff ffffffff     ................
30016a80:	ffffffff ffffffff ffffffff ffffffff     ................
30016a90:	ffffffff ffffffff ffffffff ffffffff     ................
30016aa0:	ffffffff ffffffff ffffffff ffffffff     ................
30016ab0:	ffffffff ffffffff ffffffff ffffffff     ................
30016ac0:	ffffffff ffffffff ffffffff ffffffff     ................
30016ad0:	ffffffff ffffffff ffffffff ffffffff     ................
30016ae0:	ffffffff ffffffff ffffffff ffffffff     ................
30016af0:	ffffffff ffffffff ffffffff ffffffff     ................
30016b00:	ffffffff ffffffff ffffffff ffffffff     ................
30016b10:	ffffffff ffffffff ffffffff ffffffff     ................
30016b20:	ffffffff ffffffff ffffffff ffffffff     ................
30016b30:	ffffffff ffffffff ffffffff ffffffff     ................
30016b40:	ffffffff ffffffff ffffffff ffffffff     ................
30016b50:	ffffffff ffffffff ffffffff ffffffff     ................
30016b60:	ffffffff ffffffff ffffffff ffffffff     ................
30016b70:	ffffffff ffffffff ffffffff ffffffff     ................
30016b80:	ffffffff ffffffff ffffffff ffffffff     ................
30016b90:	ffffffff ffffffff ffffffff ffffffff     ................
30016ba0:	ffffffff ffffffff ffffffff ffffffff     ................
30016bb0:	ffffffff ffffffff ffffffff ffffffff     ................
30016bc0:	ffffffff ffffffff ffffffff ffffffff     ................
30016bd0:	ffffffff ffffffff ffffffff ffffffff     ................
30016be0:	ffffffff ffffffff ffffffff ffffffff     ................
30016bf0:	ffffffff ffffffff ffffffff ffffffff     ................
30016c00:	ffffffff ffffffff ffffffff ffffffff     ................
30016c10:	ffffffff ffffffff ffffffff ffffffff     ................
30016c20:	ffffffff ffffffff ffffffff ffffffff     ................
30016c30:	ffffffff ffffffff ffffffff ffffffff     ................
30016c40:	ffffffff ffffffff ffffffff ffffffff     ................
30016c50:	ffffffff ffffffff ffffffff ffffffff     ................
30016c60:	ffffffff ffffffff ffffffff ffffffff     ................
30016c70:	ffffffff ffffffff ffffffff ffffffff     ................
30016c80:	ffffffff ffffffff ffffffff ffffffff     ................
30016c90:	ffffffff ffffffff ffffffff ffffffff     ................
30016ca0:	ffffffff ffffffff ffffffff ffffffff     ................
30016cb0:	ffffffff ffffffff ffffffff ffffffff     ................
30016cc0:	ffffffff ffffffff ffffffff ffffffff     ................
30016cd0:	ffffffff ffffffff ffffffff ffffffff     ................
30016ce0:	ffffffff ffffffff ffffffff ffffffff     ................
30016cf0:	ffffffff ffffffff ffffffff ffffffff     ................
30016d00:	ffffffff ffffffff ffffffff ffffffff     ................
30016d10:	ffffffff ffffffff ffffffff ffffffff     ................
30016d20:	ffffffff ffffffff ffffffff ffffffff     ................
30016d30:	ffffffff ffffffff ffffffff ffffffff     ................
30016d40:	ffffffff ffffffff ffffffff ffffffff     ................
30016d50:	ffffffff ffffffff ffffffff ffffffff     ................
30016d60:	ffffffff ffffffff ffffffff ffffffff     ................
30016d70:	ffffffff ffffffff ffffffff ffffffff     ................
30016d80:	ffffffff ffffffff ffffffff ffffffff     ................
30016d90:	ffffffff ffffffff ffffffff ffffffff     ................
30016da0:	ffffffff ffffffff ffffffff ffffffff     ................
30016db0:	ffffffff ffffffff ffffffff ffffffff     ................
30016dc0:	ffffffff ffffffff ffffffff ffffffff     ................
30016dd0:	ffffffff ffffffff ffffffff ffffffff     ................
30016de0:	ffffffff ffffffff ffffffff ffffffff     ................
30016df0:	ffffffff ffffffff ffffffff ffffffff     ................
30016e00:	ffffffff ffffffff ffffffff ffffffff     ................
30016e10:	ffffffff ffffffff ffffffff ffffffff     ................
30016e20:	ffffffff ffffffff ffffffff ffffffff     ................
30016e30:	ffffffff ffffffff ffffffff ffffffff     ................
30016e40:	ffffffff ffffffff ffffffff ffffffff     ................
30016e50:	ffffffff ffffffff ffffffff ffffffff     ................
30016e60:	ffffffff ffffffff ffffffff ffffffff     ................
30016e70:	ffffffff ffffffff ffffffff ffffffff     ................
30016e80:	ffffffff ffffffff ffffffff ffffffff     ................
30016e90:	ffffffff ffffffff ffffffff ffffffff     ................
30016ea0:	ffffffff ffffffff ffffffff ffffffff     ................
30016eb0:	ffffffff ffffffff ffffffff ffffffff     ................
30016ec0:	ffffffff ffffffff ffffffff ffffffff     ................
30016ed0:	ffffffff ffffffff ffffffff ffffffff     ................
30016ee0:	ffffffff ffffffff ffffffff ffffffff     ................
30016ef0:	ffffffff ffffffff ffffffff ffffffff     ................
30016f00:	ffffffff ffffffff ffffffff ffffffff     ................
30016f10:	ffffffff ffffffff ffffffff ffffffff     ................
30016f20:	ffffffff ffffffff ffffffff ffffffff     ................
30016f30:	ffffffff ffffffff ffffffff ffffffff     ................
30016f40:	ffffffff ffffffff ffffffff ffffffff     ................
30016f50:	ffffffff ffffffff ffffffff ffffffff     ................
30016f60:	ffffffff ffffffff ffffffff ffffffff     ................
30016f70:	ffffffff ffffffff ffffffff ffffffff     ................
30016f80:	ffffffff ffffffff ffffffff ffffffff     ................
30016f90:	ffffffff ffffffff ffffffff ffffffff     ................
30016fa0:	ffffffff ffffffff ffffffff ffffffff     ................
30016fb0:	ffffffff ffffffff ffffffff ffffffff     ................
30016fc0:	ffffffff ffffffff ffffffff ffffffff     ................
30016fd0:	ffffffff ffffffff ffffffff ffffffff     ................
30016fe0:	ffffffff ffffffff ffffffff ffffffff     ................
30016ff0:	ffffffff ffffffff ffffffff ffffffff     ................
30017000:	ffffffff ffffffff ffffffff ffffffff     ................
30017010:	ffffffff ffffffff ffffffff ffffffff     ................
30017020:	ffffffff ffffffff ffffffff ffffffff     ................
30017030:	ffffffff ffffffff ffffffff ffffffff     ................
30017040:	ffffffff ffffffff ffffffff ffffffff     ................
30017050:	ffffffff ffffffff ffffffff ffffffff     ................
30017060:	ffffffff ffffffff ffffffff ffffffff     ................
30017070:	ffffffff ffffffff ffffffff ffffffff     ................
30017080:	ffffffff ffffffff ffffffff ffffffff     ................
30017090:	ffffffff ffffffff ffffffff ffffffff     ................
300170a0:	ffffffff ffffffff ffffffff ffffffff     ................
300170b0:	ffffffff ffffffff ffffffff ffffffff     ................
300170c0:	ffffffff ffffffff ffffffff ffffffff     ................
300170d0:	ffffffff ffffffff ffffffff ffffffff     ................
300170e0:	ffffffff ffffffff ffffffff ffffffff     ................
300170f0:	ffffffff ffffffff ffffffff ffffffff     ................
30017100:	ffffffff ffffffff ffffffff ffffffff     ................
30017110:	ffffffff ffffffff ffffffff ffffffff     ................
30017120:	ffffffff ffffffff ffffffff ffffffff     ................
30017130:	ffffffff ffffffff ffffffff ffffffff     ................
30017140:	ffffffff ffffffff ffffffff ffffffff     ................
30017150:	ffffffff ffffffff ffffffff ffffffff     ................
30017160:	ffffffff ffffffff ffffffff ffffffff     ................
30017170:	ffffffff ffffffff ffffffff ffffffff     ................
30017180:	ffffffff ffffffff ffffffff ffffffff     ................
30017190:	ffffffff ffffffff ffffffff ffffffff     ................
300171a0:	ffffffff ffffffff ffffffff ffffffff     ................
300171b0:	ffffffff ffffffff ffffffff ffffffff     ................
300171c0:	ffffffff ffffffff ffffffff ffffffff     ................
300171d0:	ffffffff ffffffff ffffffff ffffffff     ................
300171e0:	ffffffff ffffffff ffffffff ffffffff     ................
300171f0:	ffffffff ffffffff ffffffff ffffffff     ................
30017200:	ffffffff ffffffff ffffffff ffffffff     ................
30017210:	ffffffff ffffffff ffffffff ffffffff     ................
30017220:	ffffffff ffffffff ffffffff ffffffff     ................
30017230:	ffffffff ffffffff ffffffff ffffffff     ................
30017240:	ffffffff ffffffff ffffffff ffffffff     ................
30017250:	ffffffff ffffffff ffffffff ffffffff     ................
30017260:	ffffffff ffffffff ffffffff ffffffff     ................
30017270:	ffffffff ffffffff ffffffff ffffffff     ................
30017280:	ffffffff ffffffff ffffffff ffffffff     ................
30017290:	ffffffff ffffffff ffffffff ffffffff     ................
300172a0:	ffffffff ffffffff ffffffff ffffffff     ................
300172b0:	ffffffff ffffffff ffffffff ffffffff     ................
300172c0:	ffffffff ffffffff ffffffff ffffffff     ................
300172d0:	ffffffff ffffffff ffffffff ffffffff     ................
300172e0:	ffffffff ffffffff ffffffff ffffffff     ................
300172f0:	ffffffff ffffffff ffffffff ffffffff     ................
30017300:	ffffffff ffffffff ffffffff ffffffff     ................
30017310:	ffffffff ffffffff ffffffff ffffffff     ................
30017320:	ffffffff ffffffff ffffffff ffffffff     ................
30017330:	ffffffff ffffffff ffffffff ffffffff     ................
30017340:	ffffffff ffffffff ffffffff ffffffff     ................
30017350:	ffffffff ffffffff ffffffff ffffffff     ................
30017360:	ffffffff ffffffff ffffffff ffffffff     ................
30017370:	ffffffff ffffffff ffffffff ffffffff     ................
30017380:	ffffffff ffffffff ffffffff ffffffff     ................
30017390:	ffffffff ffffffff ffffffff ffffffff     ................
300173a0:	ffffffff ffffffff ffffffff ffffffff     ................
300173b0:	ffffffff ffffffff ffffffff ffffffff     ................
300173c0:	ffffffff ffffffff ffffffff ffffffff     ................
300173d0:	ffffffff ffffffff ffffffff ffffffff     ................
300173e0:	ffffffff ffffffff ffffffff ffffffff     ................
300173f0:	ffffffff ffffffff ffffffff ffffffff     ................
30017400:	ffffffff ffffffff ffffffff ffffffff     ................
30017410:	ffffffff ffffffff ffffffff ffffffff     ................
30017420:	ffffffff ffffffff ffffffff ffffffff     ................
30017430:	ffffffff ffffffff ffffffff ffffffff     ................
30017440:	ffffffff ffffffff ffffffff ffffffff     ................
30017450:	ffffffff ffffffff ffffffff ffffffff     ................
30017460:	ffffffff ffffffff ffffffff ffffffff     ................
30017470:	ffffffff ffffffff ffffffff ffffffff     ................
30017480:	ffffffff ffffffff ffffffff ffffffff     ................
30017490:	ffffffff ffffffff ffffffff ffffffff     ................
300174a0:	ffffffff ffffffff ffffffff ffffffff     ................
300174b0:	ffffffff ffffffff ffffffff ffffffff     ................
300174c0:	ffffffff ffffffff ffffffff ffffffff     ................
300174d0:	ffffffff ffffffff ffffffff ffffffff     ................
300174e0:	ffffffff ffffffff ffffffff ffffffff     ................
300174f0:	ffffffff ffffffff ffffffff ffffffff     ................
30017500:	ffffffff ffffffff ffffffff ffffffff     ................
30017510:	ffffffff ffffffff ffffffff ffffffff     ................
30017520:	ffffffff ffffffff ffffffff ffffffff     ................
30017530:	ffffffff ffffffff ffffffff ffffffff     ................
30017540:	ffffffff ffffffff ffffffff ffffffff     ................
30017550:	ffffffff ffffffff ffffffff ffffffff     ................
30017560:	ffffffff ffffffff ffffffff ffffffff     ................
30017570:	ffffffff ffffffff ffffffff ffffffff     ................
30017580:	ffffffff ffffffff ffffffff ffffffff     ................
30017590:	ffffffff ffffffff ffffffff ffffffff     ................
300175a0:	ffffffff ffffffff ffffffff ffffffff     ................
300175b0:	ffffffff ffffffff ffffffff ffffffff     ................
300175c0:	ffffffff ffffffff ffffffff ffffffff     ................
300175d0:	ffffffff ffffffff ffffffff ffffffff     ................
300175e0:	ffffffff ffffffff ffffffff ffffffff     ................
300175f0:	ffffffff ffffffff ffffffff ffffffff     ................
30017600:	ffffffff ffffffff ffffffff ffffffff     ................
30017610:	ffffffff ffffffff ffffffff ffffffff     ................
30017620:	ffffffff ffffffff ffffffff ffffffff     ................
30017630:	ffffffff ffffffff ffffffff ffffffff     ................
30017640:	ffffffff ffffffff ffffffff ffffffff     ................
30017650:	ffffffff ffffffff ffffffff ffffffff     ................
30017660:	ffffffff ffffffff ffffffff ffffffff     ................
30017670:	ffffffff ffffffff ffffffff ffffffff     ................
30017680:	ffffffff ffffffff ffffffff ffffffff     ................
30017690:	ffffffff ffffffff ffffffff ffffffff     ................
300176a0:	ffffffff ffffffff ffffffff ffffffff     ................
300176b0:	ffffffff ffffffff ffffffff ffffffff     ................
300176c0:	ffffffff ffffffff ffffffff ffffffff     ................
300176d0:	ffffffff ffffffff ffffffff ffffffff     ................
300176e0:	ffffffff ffffffff ffffffff ffffffff     ................
300176f0:	ffffffff ffffffff ffffffff ffffffff     ................
30017700:	ffffffff ffffffff ffffffff ffffffff     ................
30017710:	ffffffff ffffffff ffffffff ffffffff     ................
30017720:	ffffffff ffffffff ffffffff ffffffff     ................
30017730:	ffffffff ffffffff ffffffff ffffffff     ................
30017740:	ffffffff ffffffff ffffffff ffffffff     ................
30017750:	ffffffff ffffffff ffffffff ffffffff     ................
30017760:	ffffffff ffffffff ffffffff ffffffff     ................
30017770:	ffffffff ffffffff ffffffff ffffffff     ................
30017780:	ffffffff ffffffff ffffffff ffffffff     ................
30017790:	ffffffff ffffffff ffffffff ffffffff     ................
300177a0:	ffffffff ffffffff ffffffff ffffffff     ................
300177b0:	ffffffff ffffffff ffffffff ffffffff     ................
300177c0:	ffffffff ffffffff ffffffff ffffffff     ................
300177d0:	ffffffff ffffffff ffffffff ffffffff     ................
300177e0:	ffffffff ffffffff ffffffff ffffffff     ................
300177f0:	ffffffff ffffffff ffffffff ffffffff     ................
30017800:	ffffffff ffffffff ffffffff ffffffff     ................
30017810:	ffffffff ffffffff ffffffff ffffffff     ................
30017820:	ffffffff ffffffff ffffffff ffffffff     ................
30017830:	ffffffff ffffffff ffffffff ffffffff     ................
30017840:	ffffffff ffffffff ffffffff ffffffff     ................
30017850:	ffffffff ffffffff ffffffff ffffffff     ................
30017860:	ffffffff ffffffff ffffffff ffffffff     ................
30017870:	ffffffff ffffffff ffffffff ffffffff     ................
30017880:	ffffffff ffffffff ffffffff ffffffff     ................
30017890:	ffffffff ffffffff ffffffff ffffffff     ................
300178a0:	ffffffff ffffffff ffffffff ffffffff     ................
300178b0:	ffffffff ffffffff ffffffff ffffffff     ................
300178c0:	ffffffff ffffffff ffffffff ffffffff     ................
300178d0:	ffffffff ffffffff ffffffff ffffffff     ................
300178e0:	ffffffff ffffffff ffffffff ffffffff     ................
300178f0:	ffffffff ffffffff ffffffff ffffffff     ................
30017900:	ffffffff ffffffff ffffffff ffffffff     ................
30017910:	ffffffff ffffffff ffffffff ffffffff     ................
30017920:	ffffffff ffffffff ffffffff ffffffff     ................
30017930:	ffffffff ffffffff ffffffff ffffffff     ................
30017940:	ffffffff ffffffff ffffffff ffffffff     ................
30017950:	ffffffff ffffffff ffffffff ffffffff     ................
30017960:	ffffffff ffffffff ffffffff ffffffff     ................
30017970:	ffffffff ffffffff ffffffff ffffffff     ................
30017980:	ffffffff ffffffff ffffffff ffffffff     ................
30017990:	ffffffff ffffffff ffffffff ffffffff     ................
300179a0:	ffffffff ffffffff ffffffff ffffffff     ................
300179b0:	ffffffff ffffffff ffffffff ffffffff     ................
300179c0:	ffffffff ffffffff ffffffff ffffffff     ................
300179d0:	ffffffff ffffffff ffffffff ffffffff     ................
300179e0:	ffffffff ffffffff ffffffff ffffffff     ................
300179f0:	ffffffff ffffffff ffffffff ffffffff     ................
30017a00:	ffffffff ffffffff ffffffff ffffffff     ................
30017a10:	ffffffff ffffffff ffffffff ffffffff     ................
30017a20:	ffffffff ffffffff ffffffff ffffffff     ................
30017a30:	ffffffff ffffffff ffffffff ffffffff     ................
30017a40:	ffffffff ffffffff ffffffff ffffffff     ................
30017a50:	ffffffff ffffffff ffffffff ffffffff     ................
30017a60:	ffffffff ffffffff ffffffff ffffffff     ................
30017a70:	ffffffff ffffffff ffffffff ffffffff     ................
30017a80:	ffffffff ffffffff ffffffff ffffffff     ................
30017a90:	ffffffff ffffffff ffffffff ffffffff     ................
30017aa0:	ffffffff ffffffff ffffffff ffffffff     ................
30017ab0:	ffffffff ffffffff ffffffff ffffffff     ................
30017ac0:	ffffffff ffffffff ffffffff ffffffff     ................
30017ad0:	ffffffff ffffffff ffffffff ffffffff     ................
30017ae0:	ffffffff ffffffff ffffffff ffffffff     ................
30017af0:	ffffffff ffffffff ffffffff ffffffff     ................
30017b00:	ffffffff ffffffff ffffffff ffffffff     ................
30017b10:	ffffffff ffffffff ffffffff ffffffff     ................
30017b20:	ffffffff ffffffff ffffffff ffffffff     ................
30017b30:	ffffffff ffffffff ffffffff ffffffff     ................
30017b40:	ffffffff ffffffff ffffffff ffffffff     ................
30017b50:	ffffffff ffffffff ffffffff ffffffff     ................
30017b60:	ffffffff ffffffff ffffffff ffffffff     ................
30017b70:	ffffffff ffffffff ffffffff ffffffff     ................
30017b80:	ffffffff ffffffff ffffffff ffffffff     ................
30017b90:	ffffffff ffffffff ffffffff ffffffff     ................
30017ba0:	ffffffff ffffffff ffffffff ffffffff     ................
30017bb0:	ffffffff ffffffff ffffffff ffffffff     ................
30017bc0:	ffffffff ffffffff ffffffff ffffffff     ................
30017bd0:	ffffffff ffffffff ffffffff ffffffff     ................
30017be0:	ffffffff ffffffff ffffffff ffffffff     ................
30017bf0:	ffffffff ffffffff ffffffff ffffffff     ................
30017c00:	ffffffff ffffffff ffffffff ffffffff     ................
30017c10:	ffffffff ffffffff ffffffff ffffffff     ................
30017c20:	ffffffff ffffffff ffffffff ffffffff     ................
30017c30:	ffffffff ffffffff ffffffff ffffffff     ................
30017c40:	ffffffff ffffffff ffffffff ffffffff     ................
30017c50:	ffffffff ffffffff ffffffff ffffffff     ................
30017c60:	ffffffff ffffffff ffffffff ffffffff     ................
30017c70:	ffffffff ffffffff ffffffff ffffffff     ................
30017c80:	ffffffff ffffffff ffffffff ffffffff     ................
30017c90:	ffffffff ffffffff ffffffff ffffffff     ................
30017ca0:	ffffffff ffffffff ffffffff ffffffff     ................
30017cb0:	ffffffff ffffffff ffffffff ffffffff     ................
30017cc0:	ffffffff ffffffff ffffffff ffffffff     ................
30017cd0:	ffffffff ffffffff ffffffff ffffffff     ................
30017ce0:	ffffffff ffffffff ffffffff ffffffff     ................
30017cf0:	ffffffff ffffffff ffffffff ffffffff     ................
30017d00:	ffffffff ffffffff ffffffff ffffffff     ................
30017d10:	ffffffff ffffffff ffffffff ffffffff     ................
30017d20:	ffffffff ffffffff ffffffff ffffffff     ................
30017d30:	ffffffff ffffffff ffffffff ffffffff     ................
30017d40:	ffffffff ffffffff ffffffff ffffffff     ................
30017d50:	ffffffff ffffffff ffffffff ffffffff     ................
30017d60:	ffffffff ffffffff ffffffff ffffffff     ................
30017d70:	ffffffff ffffffff ffffffff ffffffff     ................
30017d80:	ffffffff ffffffff ffffffff ffffffff     ................
30017d90:	ffffffff ffffffff ffffffff ffffffff     ................
30017da0:	ffffffff ffffffff ffffffff ffffffff     ................
30017db0:	ffffffff ffffffff ffffffff ffffffff     ................
30017dc0:	ffffffff ffffffff ffffffff ffffffff     ................
30017dd0:	ffffffff ffffffff ffffffff ffffffff     ................
30017de0:	ffffffff ffffffff ffffffff ffffffff     ................
30017df0:	ffffffff ffffffff ffffffff ffffffff     ................
30017e00:	ffffffff ffffffff ffffffff ffffffff     ................
30017e10:	ffffffff ffffffff ffffffff ffffffff     ................
30017e20:	ffffffff ffffffff ffffffff ffffffff     ................
30017e30:	ffffffff ffffffff ffffffff ffffffff     ................
30017e40:	ffffffff ffffffff ffffffff ffffffff     ................
30017e50:	ffffffff ffffffff ffffffff ffffffff     ................
30017e60:	ffffffff ffffffff ffffffff ffffffff     ................
30017e70:	ffffffff ffffffff ffffffff ffffffff     ................
30017e80:	ffffffff ffffffff ffffffff ffffffff     ................
30017e90:	ffffffff ffffffff ffffffff ffffffff     ................
30017ea0:	ffffffff ffffffff ffffffff ffffffff     ................
30017eb0:	ffffffff ffffffff ffffffff ffffffff     ................
30017ec0:	ffffffff ffffffff ffffffff ffffffff     ................
30017ed0:	ffffffff ffffffff ffffffff ffffffff     ................
30017ee0:	ffffffff ffffffff ffffffff ffffffff     ................
30017ef0:	ffffffff ffffffff ffffffff ffffffff     ................
30017f00:	ffffffff ffffffff ffffffff ffffffff     ................
30017f10:	ffffffff ffffffff ffffffff ffffffff     ................
30017f20:	ffffffff ffffffff ffffffff ffffffff     ................
30017f30:	ffffffff ffffffff ffffffff ffffffff     ................
30017f40:	ffffffff ffffffff ffffffff ffffffff     ................
30017f50:	ffffffff ffffffff ffffffff ffffffff     ................
30017f60:	ffffffff ffffffff ffffffff ffffffff     ................
30017f70:	ffffffff ffffffff ffffffff ffffffff     ................
30017f80:	ffffffff ffffffff ffffffff ffffffff     ................
30017f90:	ffffffff ffffffff ffffffff ffffffff     ................
30017fa0:	ffffffff ffffffff ffffffff ffffffff     ................
30017fb0:	ffffffff ffffffff ffffffff ffffffff     ................
30017fc0:	ffffffff ffffffff ffffffff ffffffff     ................
30017fd0:	ffffffff ffffffff ffffffff ffffffff     ................
30017fe0:	ffffffff ffffffff ffffffff ffffffff     ................
30017ff0:	ffffffff ffffffff ffffffff ffffffff     ................
30018000:	ffffffff ffffffff ffffffff ffffffff     ................
30018010:	ffffffff ffffffff ffffffff ffffffff     ................
30018020:	ffffffff ffffffff ffffffff ffffffff     ................
30018030:	ffffffff ffffffff ffffffff ffffffff     ................
30018040:	ffffffff ffffffff ffffffff ffffffff     ................
30018050:	ffffffff ffffffff ffffffff ffffffff     ................
30018060:	ffffffff ffffffff ffffffff ffffffff     ................
30018070:	ffffffff ffffffff ffffffff ffffffff     ................
30018080:	ffffffff ffffffff ffffffff ffffffff     ................
30018090:	ffffffff ffffffff ffffffff ffffffff     ................
300180a0:	ffffffff ffffffff ffffffff ffffffff     ................
300180b0:	ffffffff ffffffff ffffffff ffffffff     ................
300180c0:	ffffffff ffffffff ffffffff ffffffff     ................
300180d0:	ffffffff ffffffff ffffffff ffffffff     ................
300180e0:	ffffffff ffffffff ffffffff ffffffff     ................
300180f0:	ffffffff ffffffff ffffffff ffffffff     ................
30018100:	ffffffff ffffffff ffffffff ffffffff     ................
30018110:	ffffffff ffffffff ffffffff ffffffff     ................
30018120:	ffffffff ffffffff ffffffff ffffffff     ................
30018130:	ffffffff ffffffff ffffffff ffffffff     ................
30018140:	ffffffff ffffffff ffffffff ffffffff     ................
30018150:	ffffffff ffffffff ffffffff ffffffff     ................
30018160:	ffffffff ffffffff ffffffff ffffffff     ................
30018170:	ffffffff ffffffff ffffffff ffffffff     ................
30018180:	ffffffff ffffffff ffffffff ffffffff     ................
30018190:	ffffffff ffffffff ffffffff ffffffff     ................
300181a0:	ffffffff ffffffff ffffffff ffffffff     ................
300181b0:	ffffffff ffffffff ffffffff ffffffff     ................
300181c0:	ffffffff ffffffff ffffffff ffffffff     ................
300181d0:	ffffffff ffffffff ffffffff ffffffff     ................
300181e0:	ffffffff ffffffff ffffffff ffffffff     ................
300181f0:	ffffffff ffffffff ffffffff ffffffff     ................
30018200:	ffffffff ffffffff ffffffff ffffffff     ................
30018210:	ffffffff ffffffff ffffffff ffffffff     ................
30018220:	ffffffff ffffffff ffffffff ffffffff     ................
30018230:	ffffffff ffffffff ffffffff ffffffff     ................
30018240:	ffffffff ffffffff ffffffff ffffffff     ................
30018250:	ffffffff ffffffff ffffffff ffffffff     ................
30018260:	ffffffff ffffffff ffffffff ffffffff     ................
30018270:	ffffffff ffffffff ffffffff ffffffff     ................
30018280:	ffffffff ffffffff ffffffff ffffffff     ................
30018290:	ffffffff ffffffff ffffffff ffffffff     ................
300182a0:	ffffffff ffffffff ffffffff ffffffff     ................
300182b0:	ffffffff ffffffff ffffffff ffffffff     ................
300182c0:	ffffffff ffffffff ffffffff ffffffff     ................
300182d0:	ffffffff ffffffff ffffffff ffffffff     ................
300182e0:	ffffffff ffffffff ffffffff ffffffff     ................
300182f0:	ffffffff ffffffff ffffffff ffffffff     ................
30018300:	ffffffff ffffffff ffffffff ffffffff     ................
30018310:	ffffffff ffffffff ffffffff ffffffff     ................
30018320:	ffffffff ffffffff ffffffff ffffffff     ................
30018330:	ffffffff ffffffff ffffffff ffffffff     ................
30018340:	ffffffff ffffffff ffffffff ffffffff     ................
30018350:	ffffffff ffffffff ffffffff ffffffff     ................
30018360:	ffffffff ffffffff ffffffff ffffffff     ................
30018370:	ffffffff ffffffff ffffffff ffffffff     ................
30018380:	ffffffff ffffffff ffffffff ffffffff     ................
30018390:	ffffffff ffffffff ffffffff ffffffff     ................
300183a0:	ffffffff ffffffff ffffffff ffffffff     ................
300183b0:	ffffffff ffffffff ffffffff ffffffff     ................
300183c0:	ffffffff ffffffff ffffffff ffffffff     ................
300183d0:	ffffffff ffffffff ffffffff ffffffff     ................
300183e0:	ffffffff ffffffff ffffffff ffffffff     ................
300183f0:	ffffffff ffffffff ffffffff ffffffff     ................
30018400:	ffffffff ffffffff ffffffff ffffffff     ................
30018410:	ffffffff ffffffff ffffffff ffffffff     ................
30018420:	ffffffff ffffffff ffffffff ffffffff     ................
30018430:	ffffffff ffffffff ffffffff ffffffff     ................
30018440:	ffffffff ffffffff ffffffff ffffffff     ................
30018450:	ffffffff ffffffff ffffffff ffffffff     ................
30018460:	ffffffff ffffffff ffffffff ffffffff     ................
30018470:	ffffffff ffffffff ffffffff ffffffff     ................
30018480:	ffffffff ffffffff ffffffff ffffffff     ................
30018490:	ffffffff ffffffff ffffffff ffffffff     ................
300184a0:	ffffffff ffffffff ffffffff ffffffff     ................
300184b0:	ffffffff ffffffff ffffffff ffffffff     ................
300184c0:	ffffffff ffffffff ffffffff ffffffff     ................
300184d0:	ffffffff ffffffff ffffffff ffffffff     ................
300184e0:	ffffffff ffffffff ffffffff ffffffff     ................
300184f0:	ffffffff ffffffff ffffffff ffffffff     ................
30018500:	ffffffff ffffffff ffffffff ffffffff     ................
30018510:	ffffffff ffffffff ffffffff ffffffff     ................
30018520:	ffffffff ffffffff ffffffff ffffffff     ................
30018530:	ffffffff ffffffff ffffffff ffffffff     ................
30018540:	ffffffff ffffffff ffffffff ffffffff     ................
30018550:	ffffffff ffffffff ffffffff ffffffff     ................
30018560:	ffffffff ffffffff ffffffff ffffffff     ................
30018570:	ffffffff ffffffff ffffffff ffffffff     ................
30018580:	ffffffff ffffffff ffffffff ffffffff     ................
30018590:	ffffffff ffffffff ffffffff ffffffff     ................
300185a0:	ffffffff ffffffff ffffffff ffffffff     ................
300185b0:	ffffffff ffffffff ffffffff ffffffff     ................
300185c0:	ffffffff ffffffff ffffffff ffffffff     ................
300185d0:	ffffffff ffffffff ffffffff ffffffff     ................
300185e0:	ffffffff ffffffff ffffffff ffffffff     ................
300185f0:	ffffffff ffffffff ffffffff ffffffff     ................
30018600:	ffffffff ffffffff ffffffff ffffffff     ................
30018610:	ffffffff ffffffff ffffffff ffffffff     ................
30018620:	ffffffff ffffffff ffffffff ffffffff     ................
30018630:	ffffffff ffffffff ffffffff ffffffff     ................
30018640:	ffffffff ffffffff ffffffff ffffffff     ................
30018650:	ffffffff ffffffff ffffffff ffffffff     ................
30018660:	ffffffff ffffffff ffffffff ffffffff     ................
30018670:	ffffffff ffffffff ffffffff ffffffff     ................
30018680:	ffffffff ffffffff ffffffff ffffffff     ................
30018690:	ffffffff ffffffff ffffffff ffffffff     ................
300186a0:	ffffffff ffffffff ffffffff ffffffff     ................
300186b0:	ffffffff ffffffff ffffffff ffffffff     ................
300186c0:	ffffffff ffffffff ffffffff ffffffff     ................
300186d0:	ffffffff ffffffff ffffffff ffffffff     ................
300186e0:	ffffffff ffffffff ffffffff ffffffff     ................
300186f0:	ffffffff ffffffff ffffffff ffffffff     ................
30018700:	ffffffff ffffffff ffffffff ffffffff     ................
30018710:	ffffffff ffffffff ffffffff ffffffff     ................
30018720:	ffffffff ffffffff ffffffff ffffffff     ................
30018730:	ffffffff ffffffff ffffffff ffffffff     ................
30018740:	ffffffff ffffffff ffffffff ffffffff     ................
30018750:	ffffffff ffffffff ffffffff ffffffff     ................
30018760:	ffffffff ffffffff ffffffff ffffffff     ................
30018770:	ffffffff ffffffff ffffffff ffffffff     ................
30018780:	ffffffff ffffffff ffffffff ffffffff     ................
30018790:	ffffffff ffffffff ffffffff ffffffff     ................
300187a0:	ffffffff ffffffff ffffffff ffffffff     ................
300187b0:	ffffffff ffffffff ffffffff ffffffff     ................
300187c0:	ffffffff ffffffff ffffffff ffffffff     ................
300187d0:	ffffffff ffffffff ffffffff ffffffff     ................
300187e0:	ffffffff ffffffff ffffffff ffffffff     ................
300187f0:	ffffffff ffffffff ffffffff ffffffff     ................
30018800:	ffffffff ffffffff ffffffff ffffffff     ................
30018810:	ffffffff ffffffff ffffffff ffffffff     ................
30018820:	ffffffff ffffffff ffffffff ffffffff     ................
30018830:	ffffffff ffffffff ffffffff ffffffff     ................
30018840:	ffffffff ffffffff ffffffff ffffffff     ................
30018850:	ffffffff ffffffff ffffffff ffffffff     ................
30018860:	ffffffff ffffffff ffffffff ffffffff     ................
30018870:	ffffffff ffffffff ffffffff ffffffff     ................
30018880:	ffffffff ffffffff ffffffff ffffffff     ................
30018890:	ffffffff ffffffff ffffffff ffffffff     ................
300188a0:	ffffffff ffffffff ffffffff ffffffff     ................
300188b0:	ffffffff ffffffff ffffffff ffffffff     ................
300188c0:	ffffffff ffffffff ffffffff ffffffff     ................
300188d0:	ffffffff ffffffff ffffffff ffffffff     ................
300188e0:	ffffffff ffffffff ffffffff ffffffff     ................
300188f0:	ffffffff ffffffff ffffffff ffffffff     ................
30018900:	ffffffff ffffffff ffffffff ffffffff     ................
30018910:	ffffffff ffffffff ffffffff ffffffff     ................
30018920:	ffffffff ffffffff ffffffff ffffffff     ................
30018930:	ffffffff ffffffff ffffffff ffffffff     ................
30018940:	ffffffff ffffffff ffffffff ffffffff     ................
30018950:	ffffffff ffffffff ffffffff ffffffff     ................
30018960:	ffffffff ffffffff ffffffff ffffffff     ................
30018970:	ffffffff ffffffff ffffffff ffffffff     ................
30018980:	ffffffff ffffffff ffffffff ffffffff     ................
30018990:	ffffffff ffffffff ffffffff ffffffff     ................
300189a0:	ffffffff ffffffff ffffffff ffffffff     ................
300189b0:	ffffffff ffffffff ffffffff ffffffff     ................
300189c0:	ffffffff ffffffff ffffffff ffffffff     ................
300189d0:	ffffffff ffffffff ffffffff ffffffff     ................
300189e0:	ffffffff ffffffff ffffffff ffffffff     ................
300189f0:	ffffffff ffffffff ffffffff ffffffff     ................
30018a00:	ffffffff ffffffff ffffffff ffffffff     ................
30018a10:	ffffffff ffffffff ffffffff ffffffff     ................
30018a20:	ffffffff ffffffff ffffffff ffffffff     ................
30018a30:	ffffffff ffffffff ffffffff ffffffff     ................
30018a40:	ffffffff ffffffff ffffffff ffffffff     ................
30018a50:	ffffffff ffffffff ffffffff ffffffff     ................
30018a60:	ffffffff ffffffff ffffffff ffffffff     ................
30018a70:	ffffffff ffffffff ffffffff ffffffff     ................
30018a80:	ffffffff ffffffff ffffffff ffffffff     ................
30018a90:	ffffffff ffffffff ffffffff ffffffff     ................
30018aa0:	ffffffff ffffffff ffffffff ffffffff     ................
30018ab0:	ffffffff ffffffff ffffffff ffffffff     ................
30018ac0:	ffffffff ffffffff ffffffff ffffffff     ................
30018ad0:	ffffffff ffffffff ffffffff ffffffff     ................
30018ae0:	ffffffff ffffffff ffffffff ffffffff     ................
30018af0:	ffffffff ffffffff ffffffff ffffffff     ................
30018b00:	ffffffff ffffffff ffffffff ffffffff     ................
30018b10:	ffffffff ffffffff ffffffff ffffffff     ................
30018b20:	ffffffff ffffffff ffffffff ffffffff     ................
30018b30:	ffffffff ffffffff ffffffff ffffffff     ................
30018b40:	ffffffff ffffffff ffffffff ffffffff     ................
30018b50:	ffffffff ffffffff ffffffff ffffffff     ................
30018b60:	ffffffff ffffffff ffffffff ffffffff     ................
30018b70:	ffffffff ffffffff ffffffff ffffffff     ................
30018b80:	ffffffff ffffffff ffffffff ffffffff     ................
30018b90:	ffffffff ffffffff ffffffff ffffffff     ................
30018ba0:	ffffffff ffffffff ffffffff ffffffff     ................
30018bb0:	ffffffff ffffffff ffffffff ffffffff     ................
30018bc0:	ffffffff ffffffff ffffffff ffffffff     ................
30018bd0:	ffffffff ffffffff ffffffff ffffffff     ................
30018be0:	ffffffff ffffffff ffffffff ffffffff     ................
30018bf0:	ffffffff ffffffff ffffffff ffffffff     ................
30018c00:	ffffffff ffffffff ffffffff ffffffff     ................
30018c10:	ffffffff ffffffff ffffffff ffffffff     ................
30018c20:	ffffffff ffffffff ffffffff ffffffff     ................
30018c30:	ffffffff ffffffff ffffffff ffffffff     ................
30018c40:	ffffffff ffffffff ffffffff ffffffff     ................
30018c50:	ffffffff ffffffff ffffffff ffffffff     ................
30018c60:	ffffffff ffffffff ffffffff ffffffff     ................
30018c70:	ffffffff ffffffff ffffffff ffffffff     ................
30018c80:	ffffffff ffffffff ffffffff ffffffff     ................
30018c90:	ffffffff ffffffff ffffffff ffffffff     ................
30018ca0:	ffffffff ffffffff ffffffff ffffffff     ................
30018cb0:	ffffffff ffffffff ffffffff ffffffff     ................
30018cc0:	ffffffff ffffffff ffffffff ffffffff     ................
30018cd0:	ffffffff ffffffff ffffffff ffffffff     ................
30018ce0:	ffffffff ffffffff ffffffff ffffffff     ................
30018cf0:	ffffffff ffffffff ffffffff ffffffff     ................
30018d00:	ffffffff ffffffff ffffffff ffffffff     ................
30018d10:	ffffffff ffffffff ffffffff ffffffff     ................
30018d20:	ffffffff ffffffff ffffffff ffffffff     ................
30018d30:	ffffffff ffffffff ffffffff ffffffff     ................
30018d40:	ffffffff ffffffff ffffffff ffffffff     ................
30018d50:	ffffffff ffffffff ffffffff ffffffff     ................
30018d60:	ffffffff ffffffff ffffffff ffffffff     ................
30018d70:	ffffffff ffffffff ffffffff ffffffff     ................
30018d80:	ffffffff ffffffff ffffffff ffffffff     ................
30018d90:	ffffffff ffffffff ffffffff ffffffff     ................
30018da0:	ffffffff ffffffff ffffffff ffffffff     ................
30018db0:	ffffffff ffffffff ffffffff ffffffff     ................
30018dc0:	ffffffff ffffffff ffffffff ffffffff     ................
30018dd0:	ffffffff ffffffff ffffffff ffffffff     ................
30018de0:	ffffffff ffffffff ffffffff ffffffff     ................
30018df0:	ffffffff ffffffff ffffffff ffffffff     ................
30018e00:	ffffffff ffffffff ffffffff ffffffff     ................
30018e10:	ffffffff ffffffff ffffffff ffffffff     ................
30018e20:	ffffffff ffffffff ffffffff ffffffff     ................
30018e30:	ffffffff ffffffff ffffffff ffffffff     ................
30018e40:	ffffffff ffffffff ffffffff ffffffff     ................
30018e50:	ffffffff ffffffff ffffffff ffffffff     ................
30018e60:	ffffffff ffffffff ffffffff ffffffff     ................
30018e70:	ffffffff ffffffff ffffffff ffffffff     ................
30018e80:	ffffffff ffffffff ffffffff ffffffff     ................
30018e90:	ffffffff ffffffff ffffffff ffffffff     ................
30018ea0:	ffffffff ffffffff ffffffff ffffffff     ................
30018eb0:	ffffffff ffffffff ffffffff ffffffff     ................
30018ec0:	ffffffff ffffffff ffffffff ffffffff     ................
30018ed0:	ffffffff ffffffff ffffffff ffffffff     ................
30018ee0:	ffffffff ffffffff ffffffff ffffffff     ................
30018ef0:	ffffffff ffffffff ffffffff ffffffff     ................
30018f00:	ffffffff ffffffff ffffffff 2064636c     ............lcd 
30018f10:	74736574 0000000a 2064636c 74696e69     test....lcd init
30018f20:	6e6f6420 00000a65 6e61725b 203a6567      done...[range: 
30018f30:	5d426425 622d3420 73657479 2f727720     %dB] 4-bytes wr/
30018f40:	74206472 0a747365 00000000 7272655b     rd test.....[err
30018f50:	205d726f 203a6472 6f207825 203a6772     or] rd: %x org: 
30018f60:	000a7825 6e61725b 203a6567 5d426425     %x..[range: %dB]
30018f70:	622d3220 73657479 2f727720 74206472      2-bytes wr/rd t
30018f80:	0a747365 00000000 6e61725b 203a6567     est.....[range: 
30018f90:	5d426425 622d3120 73657479 2f727720     %dB] 1-bytes wr/
30018fa0:	74206472 0a747365 00000000 6e61725b     rd test.....[ran
30018fb0:	203a6567 424d6425 7473205d 65646972     ge: %dMB] stride
30018fc0:	636e6920 656d6572 2073746e 722f7277      increments wr/r
30018fd0:	65742064 000a7473 462a2a2a 454c4941     d test..***FAILE
30018fe0:	59422044 2a2a4554 7461202a 0a782520     D BYTE*** at %x.
30018ff0:	00000000 0000002e 69727473 74206564     ........stride t
30019000:	20747365 656e6f64 0000000a 5253505b     est done....[PSR
30019010:	205d4d41 666c6573 73657420 6f642074     AM] self test do
30019020:	000a656e 636e6562 72616d6b 6574206b     ne..benckmark te
30019030:	000a7473 6c637963 6e612065 6e692064     st..cycle and in
30019040:	736e7473 61657220 6f642064 0a21656e     stns read done!.
30019050:	00000000 6c637943 203a7365 78257830     ....Cycles: 0x%x
30019060:	0000000a 74736e49 203a736e 78257830     ....Instns: 0x%x
30019070:	0000000a 736b6843 203a6d75 78257830     ....Chksum: 0x%x
30019080:	0000000a 636e6562 72616d6b 6f64206b     ....benckmark do
30019090:	000a656e 75746552 74206e72 656d206f     ne..Return to me
300190a0:	6220756e 65732079 6e69646e 21272067     nu by sending '!
300190b0:	000a0a27 73657250 4e452073 20524554     '...Press ENTER 
300190c0:	63206f74 69746e6f 2e65756e 00000a2e     to continue.....
300190d0:	6c65530a 20746365 61206e61 6f697463     .Select an actio
300190e0:	0a0a3a6e 00000000 5b202020 72205d74     n:......   [t] r
300190f0:	74206e75 72656d69 73657420 00000a74     un timer test...
30019100:	5b202020 72205d67 67206e75 206f6970        [g] run gpio 
30019110:	74736574 0000000a 5b202020 70205d68     test....   [h] p
30019120:	746e6972 756f6820 656b6573 6e697065     rint housekeepin
30019130:	70732067 6e692069 000a6f66 5b202020     g spi info..   [
30019140:	72205d61 61206e75 69686372 206f666e     a] run archinfo 
30019150:	74736574 0000000a 5b202020 72205d72     test....   [r] r
30019160:	72206e75 7420676e 0a747365 00000000     un rng test.....
30019170:	5b202020 72205d75 75206e75 20747261        [u] run uart 
30019180:	74736574 0000000a 5b202020 72205d70     test....   [p] r
30019190:	70206e75 74206d77 0a747365 00000000     un pwm test.....
300191a0:	5b202020 72205d73 70206e75 74203273        [s] run ps2 t
300191b0:	0a747365 00000000 5b202020 72205d69     est.....   [i] r
300191c0:	69206e75 74206332 0a747365 00000000     un i2c test.....
300191d0:	5b202020 72205d6c 6c206e75 74206463        [l] run lcd t
300191e0:	0a747365 00000000 5b202020 72205d62     est.....   [b] r
300191f0:	74206e75 20796e69 636e6562 72616d68     un tiny benchmar
30019200:	00000a6b 5b202020 72205d6d 4d206e75     k...   [m] run M
30019210:	65746d65 000a7473 5b202020 65205d65     emtest..   [e] e
30019220:	206f6863 74726175 00000a0a 796e6974     cho uart....tiny
30019230:	203e6873 00000000 0000000a 30007d7c     sh> ........|}.0
30019240:	30007db4 30007dd4 30007dd4 30007dc4     .}.0.}.0.}.0.}.0
30019250:	30007dd4 30007d6c 30007d74 30007da4     .}.0l}.0t}.0.}.0
30019260:	30007dd4 30007dd4 30007dac 30007dcc     .}.0.}.0.}.0.}.0
30019270:	30007dd4 30007dd4 30007d94 30007dd4     .}.0.}.0.}.0.}.0
30019280:	30007d84 30007d9c 30007d64 30007d8c     .}.0.}.0d}.0.}.0
30019290:	6c6c6548 6954206f 0a6f6d6d 00000000     Hello Timmo.....
300192a0:	73726966 6f622074 6f6c746f 72656461     first bootloader
300192b0:	6e6f6420 61202c65 73207070 69746365      done, app secti
300192c0:	69206e6f 3a6f666e 0000000a 6469735f     on info:...._sid
300192d0:	3a617461 20202020 25783020 000a7830     ata:     0x%0x..
300192e0:	6164735f 203a6174 20202020 30783020     _sdata:      0x0
300192f0:	000a7825 6164655f 203a6174 20202020     %x.._edata:     
30019300:	30783020 000a7825 7362735f 20203a73      0x0%x.._sbss:  
30019310:	20202020 30783020 000a7825 7362655f          0x0%x.._ebs
30019320:	20203a73 20202020 30783020 000a7825     s:       0x0%x..
30019330:	6165685f 74735f70 3a747261 30783020     _heap_start: 0x0
30019340:	0a0a7825 00000000 74726175 6e6f6320     %x......uart con
30019350:	3a676966 316e3820 62642520 000a7370     fig: 8n1 %dbps..
30019360:	20707061 746f6f62 2e676e69 000a2e2e     app booting.....
30019370:	0000000a 20202020 20202020 205f2020     ....          _ 
30019380:	20202020 20202020 20202020 5f5f5f5f                 ____
30019390:	2020205f 20202020 5f5f5f20 0a205f5f     _        _____ .
300193a0:	00000000 20202020 20202020 7c207c20     ....         | |
300193b0:	20202020 20202020 2f202020 5f5f5f20                / ___
300193c0:	20207c5f 20202020 5f5f202f 0a7c5f5f     _|      / ____|.
300193d0:	00000000 5f205f20 5f5f205f 7c207c5f     .... _ __ ___| |
300193e0:	205f205f 5f205f5f 207c5f5f 5f5f5f28     _ _ __ ___| (___
300193f0:	5f202020 7c205f5f 20207c20 0a202020        ___ | |     .
30019400:	00000000 5f27207c 5f202f5f 5f205c20     ....| '__/ _ \ _
30019410:	27207c5f 202f5f5f 5c5c205f 205f5f5f     _| '__/ _ \\___ 
30019420:	202f205c 7c5c205f 000a7c20 207c207c     \ / _ \| |..| | 
30019430:	5f20207c 7c202f5f 7c207c5f 28207c20     |  __/ |_| | | (
30019440:	7c20295f 295f5f5f 28207c20 7c20295f     _) |___) | (_) |
30019450:	5f5f7c20 0a205f5f 00000000 207c5f7c      |____ .....|_| 
30019460:	5f5f5c20 5f5c7c5f 7c5f7c5f 5f5c2020      \___|\__|_|  \_
30019470:	5f2f5f5f 5f5f5f5f 5f5c202f 202f5f5f     __/_____/ \___/ 
30019480:	5f5f5f5c 0a7c5f5f 00000000 65722020     \_____|.....  re
30019490:	536f7274 203a436f 75432041 6d6f7473     troSoC: A Custom
300194a0:	64657a69 49534120 6f662043 65522072     ized ASIC for Re
300194b0:	206f7274 66757453 000a2166 20202020     tro Stuff!..    
300194c0:	7474683c 2f3a7370 7469672f 2e627568     <https://github.
300194d0:	2f6d6f63 72746572 436f536f 7465722f     com/retroSoC/ret
300194e0:	6f536f72 000a3e43 75612020 726f6874     roSoC>..  author
300194f0:	4d20203a 534d4172 696e6928 65762074     :  MrAMS(init ve
30019500:	6f697372 3c20296e 70747468 2f2f3a73     rsion) <https://
30019510:	68746967 632e6275 4d2f6d6f 534d4172     github.com/MrAMS
30019520:	00000a3e 20202020 20202020 6d202020     >...           m
30019530:	79736b61 20696b75 20202020 20202020     aksyuki         
30019540:	3c202020 70747468 2f2f3a73 68746967        <https://gith
30019550:	632e6275 6d2f6d6f 79736b61 3e696b75     ub.com/maksyuki>
30019560:	0000000a 65762020 6f697372 76203a6e     ....  version: v
30019570:	28302e31 6d6d6f63 203a7469 37623337     1.0(commit: 73b7
30019580:	29303366 0000000a 696c2020 736e6563     f30)....  licens
30019590:	4d203a65 6e616c75 2d4c5350 20302e32     e: MulanPSL-2.0 
300195a0:	6563696c 0a65736e 0000000a 636f7250     license.....Proc
300195b0:	6f737365 000a3a72 4f432020 203a4552     essor:..  CORE: 
300195c0:	20202020 20202020 20202020 63697020                  pic
300195d0:	3376726f 00000a32 53492020 20203a41     orv32...  ISA:  
300195e0:	20202020 20202020 20202020 33767220                  rv3
300195f0:	616d6932 00000a63 52462020 203a5145     2imac...  FREQ: 
30019600:	20202020 20202020 20202020 4d642520                  %dM
30019610:	0a0a7a48 00000000 74736e49 6d654d2f     Hz......Inst/Mem
30019620:	2079726f 69766544 203a6563 0000000a     ory Device: ....
30019630:	6e4f2020 6968632d 41522070 6973204d       On-chip RAM si
30019640:	203a657a 305b4020 30303078 30303030     ze:  @[0x0000000
30019650:	302d7825 30303078 205d7825 424b6425     %x-0x000%x] %dKB
30019660:	0000000a 78452020 6e726574 52535020     ....  Extern PSR
30019670:	73204d41 3a657a69 305b4020 78253078     AM size: @[0x0%x
30019680:	3078302d 205d7825 424d6425 78642528     -0x0%x] %dMB(%dx
30019690:	29424d38 0000000a 50532020 6c462049     8MB)....  SPI Fl
300196a0:	20687361 657a6973 2020203a 305b4020     ash size:    @[0
300196b0:	2d782578 78257830 6425205d 0a0a424d     x%x-0x%x] %dMB..
300196c0:	00000000 6f6d654d 4d207972 49207061     ....Memory Map I
300196d0:	6544204f 65636976 00000a3a 20202020     O Device:...    
300196e0:	20202020 20202020 20202020 20202020                     
300196f0:	78203120 50535120 20205346 20202020      1 x QSPFS      
30019700:	40202020 25307830 00000a78 20202020        @0x0%x...    
30019710:	20202020 20202020 20202020 20202020                     
30019720:	78203631 49504720 2020204f 20202020     16 x GPIO       
30019730:	40202020 25307830 00000a78 20202020        @0x0%x...    
30019740:	20202020 20202020 20202020 20202020                     
30019750:	78203120 52415520 20202054 20202020      1 x UART       
30019760:	40202020 25307830 00000a78 20202020        @0x0%x...    
30019770:	20202020 20202020 20202020 20202020                     
30019780:	78203120 204b4820 20495053 20202020      1 x HK SPI     
30019790:	40202020 25307830 00000a78 20202020        @0x0%x...    
300197a0:	20202020 20202020 20202020 20202020                     
300197b0:	78203120 53595320 52544320 2020204c      1 x SYS CTRL   
300197c0:	40202020 25307830 00000a78 20202020        @0x0%x...    
300197d0:	20202020 20202020 20202020 20202020                     
300197e0:	78203220 4d495420 20205245 20202020      2 x TIMER      
300197f0:	40202020 25307830 78302c78 0a782530        @0x0%x,0x0%x.
30019800:	00000000 20202020 20202020 20202020     ....            
30019810:	20202020 20202020 78203120 43524120              1 x ARC
30019820:	464e4948 2020204f 40202020 25307830     HINFO      @0x0%
30019830:	00000a78 20202020 20202020 20202020     x...            
30019840:	20202020 20202020 78203120 474e5220              1 x RNG
30019850:	20202020 20202020 40202020 25307830                @0x0%
30019860:	00000a78 20202020 20202020 20202020     x...            
30019870:	20202020 20202020 78203120 52415520              1 x UAR
30019880:	50482854 20202029 40202020 25307830     T(HP)      @0x0%
30019890:	00000a78 20202020 20202020 20202020     x...            
300198a0:	20202020 20202020 78203420 4d575020              4 x PWM
300198b0:	20202020 20202020 40202020 25307830                @0x0%
300198c0:	00000a78 20202020 20202020 20202020     x...            
300198d0:	20202020 20202020 78203120 32535020              1 x PS2
300198e0:	20202020 20202020 40202020 25307830                @0x0%
300198f0:	00000a78 20202020 20202020 20202020     x...            
30019900:	20202020 20202020 78203120 43324920              1 x I2C
30019910:	20202020 20202020 40202020 25307830                @0x0%
30019920:	00000a78 20202020 20202020 20202020     x...            
30019930:	20202020 20202020 78203120 50535120              1 x QSP
30019940:	20202049 20202020 40202020 25307830     I          @0x0%
30019950:	00000a78 20202020 20202020 20202020     x...            
30019960:	20202020 20202020 78203120 52535020              1 x PSR
30019970:	20204d41 20202020 40202020 25307830     AM         @0x0%
30019980:	00000a78 20202020 20202020 20202020     x...            
30019990:	20202020 20202020 78203120 46505320              1 x SPF
300199a0:	50542853 2020294f 40202020 73756e75     S(TPO)     @unus
300199b0:	0a0a6465 00000000 666c6573 73657420     ed......self tes
300199c0:	74732074 2e747261 000a2e2e 5253505b     t start.....[PSR
300199d0:	205d4d41 69766564 203a6563 20202020     AM] device:     
300199e0:	2d505345 41525350 4834364d 78616d28     ESP-PSRAM64H(max
300199f0:	4d642520 0a297a48 00000000 20202020      %dMHz).....    
30019a00:	20202020 746c6f76 2020203a 20202020         volt:       
30019a10:	56332e33 0000000a 20202020 20202020     3.3V....        
30019a20:	65776f70 70752d72 2020203a 20495053     power-up:   SPI 
30019a30:	65646f6d 0000000a 20202020 20202020     mode....        
30019a40:	6d726f6e 203a6c61 20202020 20495051     normal:     QPI 
30019a50:	65646f6d 0000000a 20202020 20202020     mode....        
30019a60:	6b6c6373 65726620 20203a71 484d6425     sclk freq:  %dMH
30019a70:	00000a7a 5253505b 205d4d41 74696177     z...[PSRAM] wait
30019a80:	63796320 2873656c 61666564 29746c75      cycles(default)
30019a90:	2020203a 25202020 00000a64 5253505b     :      %d...[PSR
30019aa0:	205d4d41 20646863 616c6564 79632079     AM] chd delay cy
30019ab0:	73656c63 66656428 74756c61 25203a29     cles(defalut): %
30019ac0:	00000a64 5253505b 205d4d41 696d6974     d...[PSRAM] timi
30019ad0:	6320676e 6b636568 0000000a 4b4c4374     ng check....tCLK
30019ae0:	20202020 3e3d3d3d 70786520 20203a74         ===> expt:  
30019af0:	736e6425 6e696d28 00000a29 20202020     %dns(min)...    
30019b00:	20202020 20202020 74636120 203a6c75              actul: 
30019b10:	736e6425 00000020 000a7325 2f484374     %dns ...%s..tCH/
30019b20:	204c4374 3e3d3d3d 70786520 20203a74     tCL ===> expt:  
30019b30:	342e305b 2e302d35 205d3535 4b4c4374     [0.45-0.55] tCLK
30019b40:	6e696d28 00000a29 20202020 20202020     (min)...        
30019b50:	20202020 74636120 203a6c75 342e305b          actul: [0.4
30019b60:	2e302d35 205d3535 4b4c4374 00000020     5-0.55] tCLK ...
30019b70:	4b484b74 2020204c 3e3d3d3d 70786520     tKHKL   ===> exp
30019b80:	20203a74 6e352e31 616d2873 000a2978     t:  1.5ns(max)..
30019b90:	20202020 20202020 20202020 74636120                  act
30019ba0:	203a6c75 6e352e31 00002073 48504374     ul: 1.5ns ..tCPH
30019bb0:	20202020 3e3d3d3d 70786520 20203a74         ===> expt:  
30019bc0:	736e6425 6e696d28 00000a29 4d454374     %dns(min)...tCEM
30019bd0:	20202020 3e3d3d3d 70786520 20203a74         ===> expt:  
30019be0:	73756425 78616d28 00000a29 20202020     %dus(max)...    
30019bf0:	20202020 20202020 74636120 203a6c75              actul: 
30019c00:	73756425 00000020 50534374 20202020     %dus ...tCSP    
30019c10:	3e3d3d3d 70786520 20203a74 736e6425     ===> expt:  %dns
30019c20:	6e696d28 00000a29 44484374 20202020     (min)...tCHD    
30019c30:	3e3d3d3d 70786520 20203a74 736e6425     ===> expt:  %dns
30019c40:	6e696d28 00000a29 20505374 20202020     (min)...tSP     
30019c50:	3e3d3d3d 70786520 20203a74 736e6425     ===> expt:  %dns
30019c60:	6e696d28 00000a29 5253505b 205d4d41     (min)...[PSRAM] 
30019c70:	696d6974 6320676e 6b636568 69616620     timing check fai
30019c80:	00000a6c 5253505b 205d4d41 20746573     l...[PSRAM] set 
30019c90:	74696177 63796320 2073656c 25206f74     wait cycles to %
30019ca0:	00000a64 5253505b 205d4d41 20746573     d...[PSRAM] set 
30019cb0:	20646863 6c637963 74207365 6425206f     chd cycles to %d
30019cc0:	0000000a 7478655b 206e7265 41525350     ....[extern PSRA
30019cd0:	6574204d 0a5d7473 00000000 666c6573     M test].....self
30019ce0:	73657420 6f642074 0a0a656e 00000000      test done......
30019cf0:	3b305b1b 5b6d3233 53534150 305b1b5d     .[0;32m[PASS].[0
30019d00:	0000006d 3b305b1b 5b6d3133 4c494146     m....[0;31m[FAIL
30019d10:	305b1b5d 0000006d 03121e33 00180807     ].[0m...3.......
30019d20:	010c1617 00180813                       ........
